
build/myos.bin:     file format elf32-i386

Sections:
Idx Name          Size      VMA       LMA       File off  Algn
  0 .multiboot_start 0000000c  00007000  00007000  00001000  2**12
                  CONTENTS, ALLOC, LOAD, READONLY, DATA
  1 .stack16      00004000  00007010  00007010  0000100c  2**4
                  ALLOC
  2 .args16       00000030  0000b020  0000b020  0000100c  2**2
                  ALLOC
  3 .pm32_to_pm16_section 00000040  0000b060  0000b060  00005060  2**4
                  CONTENTS, ALLOC, LOAD, READONLY, DATA
  4 .saved_sp16   00000002  0000b0a0  0000b0a0  000050a0  2**0
                  CONTENTS, ALLOC, LOAD, READONLY, DATA
  5 .pm16_and_real16_wrappers 00000086  0000b0b0  0000b0b0  000050b0  2**4
                  CONTENTS, ALLOC, LOAD, READONLY, DATA
  6 .realmode16_functions 00000038  0000b140  0000b140  00005140  2**4
                  CONTENTS, ALLOC, LOAD, READONLY, CODE
  7 .resume32     00000023  0000b180  0000b180  00005180  2**4
                  CONTENTS, ALLOC, LOAD, READONLY, DATA
  8 .misc32       00000026  0000b1b0  0000b1b0  000051b0  2**4
                  CONTENTS, ALLOC, LOAD, READONLY, DATA
  9 .text         00004a0c  00200000  00200000  00006000  2**12
                  CONTENTS, ALLOC, LOAD, READONLY, CODE
 10 .rodata       00000144  00205000  00205000  0000b000  2**12
                  CONTENTS, ALLOC, LOAD, READONLY, DATA
 11 .rodata.str1.1 0000065d  00205144  00205144  0000b144  2**0
                  CONTENTS, ALLOC, LOAD, READONLY, DATA
 12 .rodata.str1.4 0000033c  002057a4  002057a4  0000b7a4  2**2
                  CONTENTS, ALLOC, LOAD, READONLY, DATA
 13 .rodata.cst4  00000008  00205ae0  00205ae0  0000bae0  2**2
                  CONTENTS, ALLOC, LOAD, READONLY, DATA
 14 .rodata.cst2  00000004  00205ae8  00205ae8  0000bae8  2**1
                  CONTENTS, ALLOC, LOAD, READONLY, DATA
 15 .data         00000004  00206000  00206000  0000c000  2**12
                  CONTENTS, ALLOC, LOAD, DATA
 16 .bss          0002f000  00207000  00207000  0000c004  2**12
                  ALLOC
 17 .comment      00000023  00000000  00000000  0000c004  2**0
                  CONTENTS, READONLY

Disassembly of section .multiboot_start:

00007000 <.multiboot_start>:
    7000:	02 b0 ad 1b 03 00    	add    0x31bad(%eax),%dh
    7006:	00 00                	add    %al,(%eax)
    7008:	fb                   	sti
    7009:	4f                   	dec    %edi
    700a:	52                   	push   %edx
    700b:	e4                   	.byte 0xe4

Disassembly of section .pm32_to_pm16_section:

0000b060 <pm32_to_pm16>:
    b060:	60                   	pusha
    b061:	9c                   	pushf
    b062:	1e                   	push   %ds
    b063:	06                   	push   %es
    b064:	0f a0                	push   %fs
    b066:	0f a8                	push   %gs
    b068:	0f 01 05 20 b0 00 00 	sgdtl  0xb020
    b06f:	89 25 28 b0 00 00    	mov    %esp,0xb028
    b075:	66 8c d0             	mov    %ss,%ax
    b078:	66 a3 2c b0 00 00    	mov    %ax,0xb02c
    b07e:	0e                   	push   %cs
    b07f:	66 58                	pop    %ax
    b081:	66 a3 2e b0 00 00    	mov    %ax,0xb02e
    b087:	bc 00 00 00 00       	mov    $0x0,%esp
    b08c:	bd 00 00 00 00       	mov    $0x0,%ebp
    b091:	fa                   	cli
    b092:	0f 01 15 b0 b1 00 00 	lgdtl  0xb1b0
    b099:	ea b0 b0 00 00 10 00 	ljmp   $0x10,$0xb0b0

Disassembly of section .saved_sp16:

0000b0a0 <saved_sp16>:
	...

Disassembly of section .pm16_and_real16_wrappers:

0000b0b0 <pm16_to_real16>:
    b0b0:	b8 18 00 8e d8       	mov    $0xd88e0018,%eax
    b0b5:	8e c0                	mov    %eax,%es
    b0b7:	8e e0                	mov    %eax,%fs
    b0b9:	8e e8                	mov    %eax,%gs
    b0bb:	8e d0                	mov    %eax,%ss
    b0bd:	0f 20 c0             	mov    %cr0,%eax
    b0c0:	66 83 e0 fe          	and    $0xfffe,%ax
    b0c4:	0f 22 c0             	mov    %eax,%cr0
    b0c7:	ea cc b0 00 00   	ljmp   $0xb8,$0xb0cc

0000b0cc <call_real16_function>:
    b0cc:	b8 00 00 8e d8       	mov    $0xd88e0000,%eax
    b0d1:	8e c0                	mov    %eax,%es
    b0d3:	8e e0                	mov    %eax,%fs
    b0d5:	8e e8                	mov    %eax,%gs
    b0d7:	66 b8 10 70          	mov    $0x7010,%ax
    b0db:	00 00                	add    %al,(%eax)
    b0dd:	66 c1 e8 04          	shr    $0x4,%ax
    b0e1:	8e d0                	mov    %eax,%ss
    b0e3:	8e d0                	mov    %eax,%ss
    b0e5:	66 bc 00 40          	mov    $0x4000,%sp
    b0e9:	00 00                	add    %al,(%eax)
    b0eb:	89 26                	mov    %esp,(%esi)
    b0ed:	a0 b0 8b 0e 38       	mov    0x380e8bb0,%al
    b0f2:	b0 83                	mov    $0x83,%al
    b0f4:	f9                   	stc
    b0f5:	00 eb                	add    %ch,%bl
    b0f7:	23 74 1c 8c          	and    -0x74(%esp,%ebx,1),%esi
    b0fb:	d0 8e c0 89 e7 8d    	rorb   $1,-0x72187640(%esi)
    b101:	36 3a b0 d1 e1 01 ce 	cmp    %ss:-0x31fe1e2f(%eax),%dh
    b108:	83 ee 02             	sub    $0x2,%esi
    b10b:	29 cc                	sub    %ecx,%esp
    b10d:	83 c4 02             	add    $0x2,%esp
    b110:	d1 e9                	shr    $1,%ecx
    b112:	fd                   	std
    b113:	f3 a5                	rep movsl %ds:(%esi),%es:(%edi)
    b115:	fc                   	cld

0000b116 <args_done>:
    b116:	a1 34 b0 ff d0       	mov    0xd0ffb034,%eax

0000b11b <after_call>:
    b11b:	a3 30 b0 8b 26       	mov    %eax,0x268bb030
    b120:	a0 b0 0f 01 16       	mov    0x16010fb0,%al
    b125:	20 b0 0f 20 c0 66    	and    %dh,0x66c0200f(%eax)
    b12b:	83 c8 01             	or     $0x1,%eax
    b12e:	0f 22 c0             	mov    %eax,%cr0
    b131:	ea                   	.byte 0xea
    b132:	80                   	.byte 0x80
    b133:	b1 10                	mov    $0x10,%cl
	...

Disassembly of section .realmode16_functions:

0000b140 <add16>:
    b140:	55                   	push   %ebp
    b141:	89 e5                	mov    %esp,%ebp
    b143:	8b 46 04             	mov    0x4(%esi),%eax
    b146:	03 46 06             	add    0x6(%esi),%eax
    b149:	5d                   	pop    %ebp
    b14a:	c3                   	ret
    b14b:	c3                   	ret

0000b14c <add16_ref>:
    b14c:	55                   	push   %ebp
    b14d:	89 e5                	mov    %esp,%ebp
    b14f:	8b 46 04             	mov    0x4(%esi),%eax
    b152:	d1 e0                	shl    $1,%eax
    b154:	03 46 06             	add    0x6(%esi),%eax
    b157:	5d                   	pop    %ebp
    b158:	c3                   	ret

0000b159 <ret_5>:
    b159:	b8 05 00 c3        	mov    $0x55c30005,%eax

0000b15d <complex_operation>:
    b15d:	55                   	push   %ebp
    b15e:	89 e5                	mov    %esp,%ebp
    b160:	8b 56 0a             	mov    0xa(%esi),%edx
    b163:	89 d0                	mov    %edx,%eax
    b165:	d1 e0                	shl    $1,%eax
    b167:	01 d0                	add    %edx,%eax
    b169:	03 46 06             	add    0x6(%esi),%eax
    b16c:	2b 46 08             	sub    0x8(%esi),%eax
    b16f:	8b 56 04             	mov    0x4(%esi),%edx
    b172:	d1 e2                	shl    $1,%edx
    b174:	01 d0                	add    %edx,%eax
    b176:	5d                   	pop    %ebp
    b177:	c3                   	ret

Disassembly of section .resume32:

0000b180 <resume32>:
    b180:	8b 25 28 b0 00 00    	mov    0xb028,%esp
    b186:	66 a1 2c b0 00 00    	mov    0xb02c,%ax
    b18c:	8e d0                	mov    %eax,%ss
    b18e:	8e d0                	mov    %eax,%ss
    b190:	0f a9                	pop    %gs
    b192:	0f a1                	pop    %fs
    b194:	07                   	pop    %es
    b195:	1f                   	pop    %ds
    b196:	9d                   	popf
    b197:	61                   	popa
    b198:	0f b7 05 30 b0 00 00 	movzwl 0xb030,%eax
    b19f:	c3                   	ret

0000b1a0 <halt_loop2>:
    b1a0:	f4                   	hlt
    b1a1:	eb fd                	jmp    b1a0 <halt_loop2>

Disassembly of section .misc32:

0000b1b0 <GDT16_DESCRIPTOR>:
    b1b0:	1f                   	pop    %ds
    b1b1:	00 b6 b1 00 00     	add    %dh,0xb1(%esi)

0000b1b6 <GDT16_START>:
	...

0000b1c6 <GDT16_START.CODE.limit_low>:
    b1c6:	ff                   	(bad)
    b1c7:	ff                 	incl   (%eax)

0000b1c8 <GDT16_START.CODE.base_low>:
	...

0000b1ca <GDT16_START.CODE.base_mid>:
	...

0000b1cb <GDT16_START.CODE.access>:
    b1cb:	9a       	lcall  $0x0,$0xffff0000

0000b1cc <GDT16_START.CODE.flags_LimitHigh>:
	...

0000b1cd <GDT16_START.CODE.base_high>:
	...

0000b1ce <GDT16_START.DATA.limit_low>:
    b1ce:	ff                   	(bad)
    b1cf:	ff                 	incl   (%eax)

0000b1d0 <GDT16_START.DATA.base_low>:
	...

0000b1d2 <GDT16_START.DATA.base_mid>:
	...

0000b1d3 <GDT16_START.DATA.access>:
    b1d3:	92                   	xchg   %eax,%edx

0000b1d4 <GDT16_START.DATA.flags_limitHigh>:
	...

0000b1d5 <GDT16_START.DATA.base_high>:
	...

Disassembly of section .text:

00200000 <_start>:
  200000:	b8 c0 fa ad de       	mov    $0xdeadfac0,%eax
  200005:	bc 00 b0 20 00       	mov    $0x20b000,%esp
  20000a:	e8 a1 05 00 00       	call   2005b0 <kernel_main>

0020000f <halt_loop>:
  20000f:	fa                   	cli
  200010:	f4                   	hlt
  200011:	eb fc                	jmp    20000f <halt_loop>
  200013:	66 90                	xchg   %ax,%ax
  200015:	66 90                	xchg   %ax,%ax
  200017:	66 90                	xchg   %ax,%ax
  200019:	66 90                	xchg   %ax,%ax
  20001b:	66 90                	xchg   %ax,%ax
  20001d:	66 90                	xchg   %ax,%ax
  20001f:	90                   	nop

00200020 <get_ss_selector>:
  200020:	66 8c d0             	mov    %ss,%ax
  200023:	c3                   	ret
  200024:	2e 8d b4 26 00 00 00 	lea    %cs:0x0(%esi,%eiz,1),%esi
  20002b:	00 
  20002c:	8d 74 26 00          	lea    0x0(%esi,%eiz,1),%esi

00200030 <get_cs_selector>:
  200030:	66 8c c8             	mov    %cs,%ax
  200033:	c3                   	ret
  200034:	2e 8d b4 26 00 00 00 	lea    %cs:0x0(%esi,%eiz,1),%esi
  20003b:	00 
  20003c:	8d 74 26 00          	lea    0x0(%esi,%eiz,1),%esi

00200040 <get_fs_selector>:
  200040:	66 8c e0             	mov    %fs,%ax
  200043:	c3                   	ret
  200044:	2e 8d b4 26 00 00 00 	lea    %cs:0x0(%esi,%eiz,1),%esi
  20004b:	00 
  20004c:	8d 74 26 00          	lea    0x0(%esi,%eiz,1),%esi

00200050 <get_gs_selector>:
  200050:	66 8c e8             	mov    %gs,%ax
  200053:	c3                   	ret
  200054:	2e 8d b4 26 00 00 00 	lea    %cs:0x0(%esi,%eiz,1),%esi
  20005b:	00 
  20005c:	8d 74 26 00          	lea    0x0(%esi,%eiz,1),%esi

00200060 <get_ds_selector>:
  200060:	66 8c d8             	mov    %ds,%ax
  200063:	c3                   	ret
  200064:	2e 8d b4 26 00 00 00 	lea    %cs:0x0(%esi,%eiz,1),%esi
  20006b:	00 
  20006c:	8d 74 26 00          	lea    0x0(%esi,%eiz,1),%esi

00200070 <get_es_selector>:
  200070:	66 8c c0             	mov    %es,%ax
  200073:	c3                   	ret
  200074:	2e 8d b4 26 00 00 00 	lea    %cs:0x0(%esi,%eiz,1),%esi
  20007b:	00 
  20007c:	8d 74 26 00          	lea    0x0(%esi,%eiz,1),%esi

00200080 <gdt_analize>:
  200080:	55                   	push   %ebp
  200081:	89 e5                	mov    %esp,%ebp
  200083:	53                   	push   %ebx
  200084:	83 ec 0c             	sub    $0xc,%esp
  200087:	8b 45 0c             	mov    0xc(%ebp),%eax
  20008a:	68 44 51 20 00       	push   $0x205144
  20008f:	8d 1c c5 00 00 00 00 	lea    0x0(,%eax,8),%ebx
  200096:	03 5d 08             	add    0x8(%ebp),%ebx
  200099:	ff 73 04             	push   0x4(%ebx)
  20009c:	e8 5f 0d 00 00       	call   200e00 <printBinary>
  2000a1:	58                   	pop    %eax
  2000a2:	5a                   	pop    %edx
  2000a3:	68 4b 51 20 00       	push   $0x20514b
  2000a8:	ff 33                	push   (%ebx)
  2000aa:	e8 51 0d 00 00       	call   200e00 <printBinary>
  2000af:	c7 04 24 51 51 20 00 	movl   $0x205151,(%esp)
  2000b6:	e8 95 17 00 00       	call   201850 <terminal_writestring>
  2000bb:	89 1c 24             	mov    %ebx,(%esp)
  2000be:	e8 6d 3a 00 00       	call   203b30 <getBaseAddress>
  2000c3:	59                   	pop    %ecx
  2000c4:	5a                   	pop    %edx
  2000c5:	68 6c 51 20 00       	push   $0x20516c
  2000ca:	50                   	push   %eax
  2000cb:	e8 30 0d 00 00       	call   200e00 <printBinary>
  2000d0:	89 1c 24             	mov    %ebx,(%esp)
  2000d3:	e8 28 38 00 00       	call   203900 <getSegmentLimit>
  2000d8:	83 c4 0c             	add    $0xc,%esp
  2000db:	6a 14                	push   $0x14
  2000dd:	68 79 51 20 00       	push   $0x205179
  2000e2:	50                   	push   %eax
  2000e3:	e8 d8 0d 00 00       	call   200ec0 <printBinarySize>
  2000e8:	c7 04 24 22 54 20 00 	movl   $0x205422,(%esp)
  2000ef:	e8 5c 17 00 00       	call   201850 <terminal_writestring>
  2000f4:	89 1c 24             	mov    %ebx,(%esp)
  2000f7:	e8 94 45 00 00       	call   204690 <printFlags>
  2000fc:	89 1c 24             	mov    %ebx,(%esp)
  2000ff:	e8 1c 43 00 00       	call   204420 <printAccess>
  200104:	c7 04 24 22 54 20 00 	movl   $0x205422,(%esp)
  20010b:	e8 40 17 00 00       	call   201850 <terminal_writestring>
  200110:	89 1c 24             	mov    %ebx,(%esp)
  200113:	e8 b8 39 00 00       	call   203ad0 <getGranularity>
  200118:	59                   	pop    %ecx
  200119:	5a                   	pop    %edx
  20011a:	0f b6 c0             	movzbl %al,%eax
  20011d:	50                   	push   %eax
  20011e:	68 92 51 20 00       	push   $0x205192
  200123:	e8 98 20 00 00       	call   2021c0 <terminal_write_uint>
  200128:	89 1c 24             	mov    %ebx,(%esp)
  20012b:	e8 40 39 00 00       	call   203a70 <getDefaultOperationSize>
  200130:	59                   	pop    %ecx
  200131:	5a                   	pop    %edx
  200132:	0f b6 c0             	movzbl %al,%eax
  200135:	50                   	push   %eax
  200136:	68 a1 51 20 00       	push   $0x2051a1
  20013b:	e8 80 20 00 00       	call   2021c0 <terminal_write_uint>
  200140:	89 1c 24             	mov    %ebx,(%esp)
  200143:	e8 c8 38 00 00       	call   203a10 <getLongMode>
  200148:	59                   	pop    %ecx
  200149:	5a                   	pop    %edx
  20014a:	0f b6 c0             	movzbl %al,%eax
  20014d:	50                   	push   %eax
  20014e:	68 b9 51 20 00       	push   $0x2051b9
  200153:	e8 68 20 00 00       	call   2021c0 <terminal_write_uint>
  200158:	89 1c 24             	mov    %ebx,(%esp)
  20015b:	e8 50 38 00 00       	call   2039b0 <getAVL>
  200160:	59                   	pop    %ecx
  200161:	5a                   	pop    %edx
  200162:	0f b6 c0             	movzbl %al,%eax
  200165:	50                   	push   %eax
  200166:	68 c5 51 20 00       	push   $0x2051c5
  20016b:	e8 50 20 00 00       	call   2021c0 <terminal_write_uint>
  200170:	c7 04 24 22 54 20 00 	movl   $0x205422,(%esp)
  200177:	e8 d4 16 00 00       	call   201850 <terminal_writestring>
  20017c:	89 1c 24             	mov    %ebx,(%esp)
  20017f:	e8 1c 37 00 00       	call   2038a0 <getPresent>
  200184:	59                   	pop    %ecx
  200185:	5a                   	pop    %edx
  200186:	0f b6 c0             	movzbl %al,%eax
  200189:	50                   	push   %eax
  20018a:	68 cc 51 20 00       	push   $0x2051cc
  20018f:	e8 2c 20 00 00       	call   2021c0 <terminal_write_uint>
  200194:	89 1c 24             	mov    %ebx,(%esp)
  200197:	e8 a4 36 00 00       	call   203840 <getPriviledgeDPL>
  20019c:	83 c4 0c             	add    $0xc,%esp
  20019f:	0f b6 c0             	movzbl %al,%eax
  2001a2:	6a 02                	push   $0x2
  2001a4:	68 d7 51 20 00       	push   $0x2051d7
  2001a9:	50                   	push   %eax
  2001aa:	e8 11 0d 00 00       	call   200ec0 <printBinarySize>
  2001af:	89 1c 24             	mov    %ebx,(%esp)
  2001b2:	e8 29 36 00 00       	call   2037e0 <getDescriptorTypeS>
  2001b7:	59                   	pop    %ecx
  2001b8:	5a                   	pop    %edx
  2001b9:	0f b6 c0             	movzbl %al,%eax
  2001bc:	50                   	push   %eax
  2001bd:	68 e8 51 20 00       	push   $0x2051e8
  2001c2:	e8 f9 1f 00 00       	call   2021c0 <terminal_write_uint>
  2001c7:	89 1c 24             	mov    %ebx,(%esp)
  2001ca:	e8 b1 35 00 00       	call   203780 <getType>
  2001cf:	83 c4 0c             	add    $0xc,%esp
  2001d2:	0f b6 c0             	movzbl %al,%eax
  2001d5:	6a 04                	push   $0x4
  2001d7:	68 fb 51 20 00       	push   $0x2051fb
  2001dc:	50                   	push   %eax
  2001dd:	e8 de 0c 00 00       	call   200ec0 <printBinarySize>
  2001e2:	8b 5d fc             	mov    -0x4(%ebp),%ebx
  2001e5:	83 c4 10             	add    $0x10,%esp
  2001e8:	c9                   	leave
  2001e9:	c3                   	ret
  2001ea:	8d b6 00 00 00 00    	lea    0x0(%esi),%esi

002001f0 <analyse_code>:
  2001f0:	55                   	push   %ebp
  2001f1:	89 e5                	mov    %esp,%ebp
  2001f3:	56                   	push   %esi
  2001f4:	53                   	push   %ebx
  2001f5:	83 ec 0c             	sub    $0xc,%esp
  2001f8:	68 22 54 20 00       	push   $0x205422
  2001fd:	e8 4e 16 00 00       	call   201850 <terminal_writestring>
  200202:	c7 04 24 a4 57 20 00 	movl   $0x2057a4,(%esp)
  200209:	e8 42 16 00 00       	call   201850 <terminal_writestring>
  20020e:	8b 5d 08             	mov    0x8(%ebp),%ebx
  200211:	83 c4 10             	add    $0x10,%esp
  200214:	8d b3 c8 00 00 00    	lea    0xc8(%ebx),%esi
  20021a:	8d b6 00 00 00 00    	lea    0x0(%esi),%esi
  200220:	83 ec 0c             	sub    $0xc,%esp
  200223:	ff 33                	push   (%ebx)
  200225:	83 c3 04             	add    $0x4,%ebx
  200228:	e8 d3 1b 00 00       	call   201e00 <print_hex_var>
  20022d:	83 c4 10             	add    $0x10,%esp
  200230:	39 f3                	cmp    %esi,%ebx
  200232:	75 ec                	jne    200220 <analyse_code+0x30>
  200234:	83 ec 0c             	sub    $0xc,%esp
  200237:	68 22 54 20 00       	push   $0x205422
  20023c:	e8 0f 16 00 00       	call   201850 <terminal_writestring>
  200241:	c7 04 24 a4 57 20 00 	movl   $0x2057a4,(%esp)
  200248:	e8 03 16 00 00       	call   201850 <terminal_writestring>
  20024d:	8b 5d 0c             	mov    0xc(%ebp),%ebx
  200250:	83 c4 10             	add    $0x10,%esp
  200253:	8d b3 c8 00 00 00    	lea    0xc8(%ebx),%esi
  200259:	8d b4 26 00 00 00 00 	lea    0x0(%esi,%eiz,1),%esi
  200260:	83 ec 0c             	sub    $0xc,%esp
  200263:	ff 33                	push   (%ebx)
  200265:	83 c3 04             	add    $0x4,%ebx
  200268:	e8 93 1b 00 00       	call   201e00 <print_hex_var>
  20026d:	83 c4 10             	add    $0x10,%esp
  200270:	39 f3                	cmp    %esi,%ebx
  200272:	75 ec                	jne    200260 <analyse_code+0x70>
  200274:	83 ec 0c             	sub    $0xc,%esp
  200277:	68 22 54 20 00       	push   $0x205422
  20027c:	e8 cf 15 00 00       	call   201850 <terminal_writestring>
  200281:	c7 04 24 d8 57 20 00 	movl   $0x2057d8,(%esp)
  200288:	e8 c3 15 00 00       	call   201850 <terminal_writestring>
  20028d:	8b 5d 10             	mov    0x10(%ebp),%ebx
  200290:	83 c4 10             	add    $0x10,%esp
  200293:	8d b3 c8 00 00 00    	lea    0xc8(%ebx),%esi
  200299:	8d b4 26 00 00 00 00 	lea    0x0(%esi,%eiz,1),%esi
  2002a0:	83 ec 0c             	sub    $0xc,%esp
  2002a3:	ff 33                	push   (%ebx)
  2002a5:	83 c3 04             	add    $0x4,%ebx
  2002a8:	e8 53 1b 00 00       	call   201e00 <print_hex_var>
  2002ad:	83 c4 10             	add    $0x10,%esp
  2002b0:	39 de                	cmp    %ebx,%esi
  2002b2:	75 ec                	jne    2002a0 <analyse_code+0xb0>
  2002b4:	83 ec 0c             	sub    $0xc,%esp
  2002b7:	68 22 54 20 00       	push   $0x205422
  2002bc:	e8 8f 15 00 00       	call   201850 <terminal_writestring>
  2002c1:	c7 04 24 14 58 20 00 	movl   $0x205814,(%esp)
  2002c8:	e8 83 15 00 00       	call   201850 <terminal_writestring>
  2002cd:	8b 5d 18             	mov    0x18(%ebp),%ebx
  2002d0:	83 c4 10             	add    $0x10,%esp
  2002d3:	8d b3 c8 00 00 00    	lea    0xc8(%ebx),%esi
  2002d9:	8d b4 26 00 00 00 00 	lea    0x0(%esi,%eiz,1),%esi
  2002e0:	83 ec 0c             	sub    $0xc,%esp
  2002e3:	ff 33                	push   (%ebx)
  2002e5:	83 c3 04             	add    $0x4,%ebx
  2002e8:	e8 13 1b 00 00       	call   201e00 <print_hex_var>
  2002ed:	83 c4 10             	add    $0x10,%esp
  2002f0:	39 de                	cmp    %ebx,%esi
  2002f2:	75 ec                	jne    2002e0 <analyse_code+0xf0>
  2002f4:	8d 65 f8             	lea    -0x8(%ebp),%esp
  2002f7:	5b                   	pop    %ebx
  2002f8:	5e                   	pop    %esi
  2002f9:	5d                   	pop    %ebp
  2002fa:	c3                   	ret
  2002fb:	2e 8d 74 26 00       	lea    %cs:0x0(%esi,%eiz,1),%esi

00200300 <before>:
  200300:	55                   	push   %ebp
  200301:	89 e5                	mov    %esp,%ebp
  200303:	83 ec 14             	sub    $0x14,%esp
  200306:	68 0c 52 20 00       	push   $0x20520c
  20030b:	e8 40 15 00 00       	call   201850 <terminal_writestring>
  200310:	83 c4 10             	add    $0x10,%esp
  200313:	c9                   	leave
  200314:	c3                   	ret
  200315:	2e 8d b4 26 00 00 00 	lea    %cs:0x0(%esi,%eiz,1),%esi
  20031c:	00 
  20031d:	8d 76 00             	lea    0x0(%esi),%esi

00200320 <kernel_test>:
  200320:	55                   	push   %ebp
  200321:	89 e5                	mov    %esp,%ebp
  200323:	56                   	push   %esi
  200324:	53                   	push   %ebx
  200325:	83 ec 1c             	sub    $0x1c,%esp
  200328:	68 38 58 20 00       	push   $0x205838
  20032d:	e8 1e 15 00 00       	call   201850 <terminal_writestring>
  200332:	68 cd 3b 12 00       	push   $0x123bcd
  200337:	6a 1b                	push   $0x1b
  200339:	68 00 00 08 40       	push   $0x40080000
  20033e:	6a 00                	push   $0x0
  200340:	6a 02                	push   $0x2
  200342:	6a 01                	push   $0x1
  200344:	68 5c 58 20 00       	push   $0x20585c
  200349:	6a 06                	push   $0x6
  20034b:	e8 80 24 00 00       	call   2027d0 <kprintf_argc>
  200350:	83 c4 28             	add    $0x28,%esp
  200353:	68 20 06 20 00       	push   $0x200620
  200358:	68 a4 58 20 00       	push   $0x2058a4
  20035d:	e8 8e 1d 00 00       	call   2020f0 <print_extern_address>
  200362:	58                   	pop    %eax
  200363:	5a                   	pop    %edx
  200364:	68 30 06 20 00       	push   $0x200630
  200369:	68 27 52 20 00       	push   $0x205227
  20036e:	e8 7d 1d 00 00       	call   2020f0 <print_extern_address>
  200373:	59                   	pop    %ecx
  200374:	5b                   	pop    %ebx
  200375:	68 40 06 20 00       	push   $0x200640
  20037a:	68 44 52 20 00       	push   $0x205244
  20037f:	e8 6c 1d 00 00       	call   2020f0 <print_extern_address>
  200384:	5e                   	pop    %esi
  200385:	58                   	pop    %eax
  200386:	68 50 06 20 00       	push   $0x200650
  20038b:	68 62 52 20 00       	push   $0x205262
  200390:	e8 5b 1d 00 00       	call   2020f0 <print_extern_address>
  200395:	58                   	pop    %eax
  200396:	5a                   	pop    %edx
  200397:	68 c0 06 20 00       	push   $0x2006c0
  20039c:	68 c4 58 20 00       	push   $0x2058c4
  2003a1:	e8 4a 1d 00 00       	call   2020f0 <print_extern_address>
  2003a6:	59                   	pop    %ecx
  2003a7:	5b                   	pop    %ebx
  2003a8:	68 d0 06 20 00       	push   $0x2006d0
  2003ad:	68 7e 52 20 00       	push   $0x20527e
  2003b2:	e8 39 1d 00 00       	call   2020f0 <print_extern_address>
  2003b7:	5e                   	pop    %esi
  2003b8:	58                   	pop    %eax
  2003b9:	68 90 06 20 00       	push   $0x200690
  2003be:	68 f0 58 20 00       	push   $0x2058f0
  2003c3:	e8 28 1d 00 00       	call   2020f0 <print_extern_address>
  2003c8:	58                   	pop    %eax
  2003c9:	5a                   	pop    %edx
  2003ca:	68 a0 06 20 00       	push   $0x2006a0
  2003cf:	68 10 59 20 00       	push   $0x205910
  2003d4:	e8 17 1d 00 00       	call   2020f0 <print_extern_address>
  2003d9:	59                   	pop    %ecx
  2003da:	5b                   	pop    %ebx
  2003db:	68 e0 06 20 00       	push   $0x2006e0
  2003e0:	68 9c 52 20 00       	push   $0x20529c
  2003e5:	e8 06 1d 00 00       	call   2020f0 <print_extern_address>
  2003ea:	5e                   	pop    %esi
  2003eb:	58                   	pop    %eax
  2003ec:	68 b0 06 20 00       	push   $0x2006b0
  2003f1:	68 b3 52 20 00       	push   $0x2052b3
  2003f6:	e8 f5 1c 00 00       	call   2020f0 <print_extern_address>
  2003fb:	58                   	pop    %eax
  2003fc:	5a                   	pop    %edx
  2003fd:	68 80 06 20 00       	push   $0x200680
  200402:	68 cd 52 20 00       	push   $0x2052cd
  200407:	e8 e4 1c 00 00       	call   2020f0 <print_extern_address>
  20040c:	59                   	pop    %ecx
  20040d:	5b                   	pop    %ebx
  20040e:	68 60 06 20 00       	push   $0x200660
  200413:	68 eb 52 20 00       	push   $0x2052eb
  200418:	e8 d3 1c 00 00       	call   2020f0 <print_extern_address>
  20041d:	5e                   	pop    %esi
  20041e:	58                   	pop    %eax
  20041f:	68 70 06 20 00       	push   $0x200670
  200424:	68 06 53 20 00       	push   $0x205306
  200429:	e8 c2 1c 00 00       	call   2020f0 <print_extern_address>
  20042e:	58                   	pop    %eax
  20042f:	5a                   	pop    %edx
  200430:	68 30 00 20 00       	push   $0x200030
  200435:	68 21 53 20 00       	push   $0x205321
  20043a:	e8 b1 1f 00 00       	call   2023f0 <print_extern_address16>
  20043f:	59                   	pop    %ecx
  200440:	5b                   	pop    %ebx
  200441:	68 20 00 20 00       	push   $0x200020
  200446:	68 34 53 20 00       	push   $0x205334
  20044b:	e8 a0 1f 00 00       	call   2023f0 <print_extern_address16>
  200450:	5e                   	pop    %esi
  200451:	58                   	pop    %eax
  200452:	68 60 00 20 00       	push   $0x200060
  200457:	68 47 53 20 00       	push   $0x205347
  20045c:	e8 8f 1f 00 00       	call   2023f0 <print_extern_address16>
  200461:	58                   	pop    %eax
  200462:	5a                   	pop    %edx
  200463:	68 40 00 20 00       	push   $0x200040
  200468:	68 5a 53 20 00       	push   $0x20535a
  20046d:	e8 7e 1f 00 00       	call   2023f0 <print_extern_address16>
  200472:	59                   	pop    %ecx
  200473:	5b                   	pop    %ebx
  200474:	68 40 00 20 00       	push   $0x200040
  200479:	68 6d 53 20 00       	push   $0x20536d
  20047e:	e8 6d 1f 00 00       	call   2023f0 <print_extern_address16>
  200483:	5e                   	pop    %esi
  200484:	58                   	pop    %eax
  200485:	68 50 00 20 00       	push   $0x200050
  20048a:	68 80 53 20 00       	push   $0x205380
  20048f:	e8 5c 1f 00 00       	call   2023f0 <print_extern_address16>
  200494:	8d 45 f0             	lea    -0x10(%ebp),%eax
  200497:	89 04 24             	mov    %eax,(%esp)
  20049a:	e8 81 42 00 00       	call   204720 <get_gdt_root>
  20049f:	8b 75 f0             	mov    -0x10(%ebp),%esi
  2004a2:	0f b7 5d f4          	movzwl -0xc(%ebp),%ebx
  2004a6:	83 ec 0c             	sub    $0xc,%esp
  2004a9:	0f a4 f3 10          	shld   $0x10,%esi,%ebx
  2004ad:	0f b7 f6             	movzwl %si,%esi
  2004b0:	53                   	push   %ebx
  2004b1:	68 93 53 20 00       	push   $0x205393
  2004b6:	e8 a5 1e 00 00       	call   202360 <terminal_write_ptr>
  2004bb:	83 c4 18             	add    $0x18,%esp
  2004be:	56                   	push   %esi
  2004bf:	68 a7 53 20 00       	push   $0x2053a7
  2004c4:	e8 f7 1c 00 00       	call   2021c0 <terminal_write_uint>
  2004c9:	58                   	pop    %eax
  2004ca:	8b 35 b2 b1 00 00    	mov    0xb1b2,%esi
  2004d0:	5a                   	pop    %edx
  2004d1:	ff 35 00 60 20 00    	push   0x206000
  2004d7:	68 b9 53 20 00       	push   $0x2053b9
  2004dc:	e8 7f 1e 00 00       	call   202360 <terminal_write_ptr>
  2004e1:	59                   	pop    %ecx
  2004e2:	58                   	pop    %eax
  2004e3:	ff 35 b2 b1 00 00    	push   0xb1b2
  2004e9:	68 cd 53 20 00       	push   $0x2053cd
  2004ee:	e8 6d 1e 00 00       	call   202360 <terminal_write_ptr>
  2004f3:	c7 04 24 40 59 20 00 	movl   $0x205940,(%esp)
  2004fa:	e8 51 13 00 00       	call   201850 <terminal_writestring>
  2004ff:	c7 04 24 d6 53 20 00 	movl   $0x2053d6,(%esp)
  200506:	e8 45 13 00 00       	call   201850 <terminal_writestring>
  20050b:	58                   	pop    %eax
  20050c:	5a                   	pop    %edx
  20050d:	6a 02                	push   $0x2
  20050f:	53                   	push   %ebx
  200510:	e8 6b fb ff ff       	call   200080 <gdt_analize>
  200515:	c7 04 24 ee 53 20 00 	movl   $0x2053ee,(%esp)
  20051c:	e8 2f 13 00 00       	call   201850 <terminal_writestring>
  200521:	59                   	pop    %ecx
  200522:	58                   	pop    %eax
  200523:	6a 03                	push   $0x3
  200525:	53                   	push   %ebx
  200526:	e8 55 fb ff ff       	call   200080 <gdt_analize>
  20052b:	c7 04 24 06 54 20 00 	movl   $0x205406,(%esp)
  200532:	e8 19 13 00 00       	call   201850 <terminal_writestring>
  200537:	c7 04 24 60 59 20 00 	movl   $0x205960,(%esp)
  20053e:	e8 0d 13 00 00       	call   201850 <terminal_writestring>
  200543:	c7 04 24 d6 53 20 00 	movl   $0x2053d6,(%esp)
  20054a:	e8 01 13 00 00       	call   201850 <terminal_writestring>
  20054f:	58                   	pop    %eax
  200550:	5a                   	pop    %edx
  200551:	6a 02                	push   $0x2
  200553:	56                   	push   %esi
  200554:	e8 27 fb ff ff       	call   200080 <gdt_analize>
  200559:	c7 04 24 ee 53 20 00 	movl   $0x2053ee,(%esp)
  200560:	e8 eb 12 00 00       	call   201850 <terminal_writestring>
  200565:	59                   	pop    %ecx
  200566:	5b                   	pop    %ebx
  200567:	6a 03                	push   $0x3
  200569:	56                   	push   %esi
  20056a:	e8 11 fb ff ff       	call   200080 <gdt_analize>
  20056f:	c7 04 24 24 54 20 00 	movl   $0x205424,(%esp)
  200576:	e8 d5 12 00 00       	call   201850 <terminal_writestring>
  20057b:	c7 04 24 0c 52 20 00 	movl   $0x20520c,(%esp)
  200582:	e8 c9 12 00 00       	call   201850 <terminal_writestring>
  200587:	c7 04 24 20 b0 00 00 	movl   $0xb020,(%esp)
  20058e:	e8 bd 41 00 00       	call   204750 <print_args16>
  200593:	c7 04 24 42 54 20 00 	movl   $0x205442,(%esp)
  20059a:	e8 b1 12 00 00       	call   201850 <terminal_writestring>
  20059f:	83 c4 10             	add    $0x10,%esp
  2005a2:	8d 65 f8             	lea    -0x8(%ebp),%esp
  2005a5:	5b                   	pop    %ebx
  2005a6:	5e                   	pop    %esi
  2005a7:	5d                   	pop    %ebp
  2005a8:	c3                   	ret
  2005a9:	8d b4 26 00 00 00 00 	lea    0x0(%esi,%eiz,1),%esi

002005b0 <kernel_main>:
  2005b0:	55                   	push   %ebp
  2005b1:	89 e5                	mov    %esp,%ebp
  2005b3:	83 ec 08             	sub    $0x8,%esp
  2005b6:	e8 b5 0c 00 00       	call   201270 <initialize_terminal>
  2005bb:	83 ec 0c             	sub    $0xc,%esp
  2005be:	6a 00                	push   $0x0
  2005c0:	e8 cb 0d 00 00       	call   201390 <terminal_set_scroll>
  2005c5:	e8 56 28 00 00       	call   202e20 <idt_init>
  2005ca:	e8 51 fd ff ff       	call   200320 <kernel_test>
  2005cf:	c7 04 24 80 59 20 00 	movl   $0x205980,(%esp)
  2005d6:	e8 75 12 00 00       	call   201850 <terminal_writestring>
  2005db:	83 c4 10             	add    $0x10,%esp
  2005de:	eb fe                	jmp    2005de <kernel_main+0x2e>

002005e0 <memcpy>:
  2005e0:	55                   	push   %ebp
  2005e1:	89 e5                	mov    %esp,%ebp
  2005e3:	56                   	push   %esi
  2005e4:	53                   	push   %ebx
  2005e5:	8b 5d 10             	mov    0x10(%ebp),%ebx
  2005e8:	8b 75 08             	mov    0x8(%ebp),%esi
  2005eb:	85 db                	test   %ebx,%ebx
  2005ed:	74 21                	je     200610 <memcpy+0x30>
  2005ef:	8b 45 0c             	mov    0xc(%ebp),%eax
  2005f2:	89 f2                	mov    %esi,%edx
  2005f4:	01 c3                	add    %eax,%ebx
  2005f6:	2e 8d b4 26 00 00 00 	lea    %cs:0x0(%esi,%eiz,1),%esi
  2005fd:	00 
  2005fe:	66 90                	xchg   %ax,%ax
  200600:	0f b6 08             	movzbl (%eax),%ecx
  200603:	83 c0 01             	add    $0x1,%eax
  200606:	83 c2 01             	add    $0x1,%edx
  200609:	88 4a ff             	mov    %cl,-0x1(%edx)
  20060c:	39 d8                	cmp    %ebx,%eax
  20060e:	75 f0                	jne    200600 <memcpy+0x20>
  200610:	89 f0                	mov    %esi,%eax
  200612:	5b                   	pop    %ebx
  200613:	5e                   	pop    %esi
  200614:	5d                   	pop    %ebp
  200615:	c3                   	ret
  200616:	66 90                	xchg   %ax,%ax
  200618:	66 90                	xchg   %ax,%ax
  20061a:	66 90                	xchg   %ax,%ax
  20061c:	66 90                	xchg   %ax,%ax
  20061e:	66 90                	xchg   %ax,%ax

00200620 <get_stack16_start_address>:
  200620:	b8 10 70 00 00       	mov    $0x7010,%eax
  200625:	c3                   	ret
  200626:	2e 8d b4 26 00 00 00 	lea    %cs:0x0(%esi,%eiz,1),%esi
  20062d:	00 
  20062e:	66 90                	xchg   %ax,%ax

00200630 <get_stack16_end_address>:
  200630:	b8 10 b0 00 00       	mov    $0xb010,%eax
  200635:	c3                   	ret
  200636:	2e 8d b4 26 00 00 00 	lea    %cs:0x0(%esi,%eiz,1),%esi
  20063d:	00 
  20063e:	66 90                	xchg   %ax,%ax

00200640 <get_args16_start_address>:
  200640:	b8 20 b0 00 00       	mov    $0xb020,%eax
  200645:	c3                   	ret
  200646:	2e 8d b4 26 00 00 00 	lea    %cs:0x0(%esi,%eiz,1),%esi
  20064d:	00 
  20064e:	66 90                	xchg   %ax,%ax

00200650 <get_args16_end_address>:
  200650:	b8 50 b0 00 00       	mov    $0xb050,%eax
  200655:	c3                   	ret
  200656:	2e 8d b4 26 00 00 00 	lea    %cs:0x0(%esi,%eiz,1),%esi
  20065d:	00 
  20065e:	66 90                	xchg   %ax,%ax

00200660 <get_misc32_s1_address>:
  200660:	b8 a3 b1 00 00       	mov    $0xb1a3,%eax
  200665:	c3                   	ret
  200666:	2e 8d b4 26 00 00 00 	lea    %cs:0x0(%esi,%eiz,1),%esi
  20066d:	00 
  20066e:	66 90                	xchg   %ax,%ax

00200670 <get_misc32_s2_address>:
  200670:	b8 b0 b1 00 00       	mov    $0xb1b0,%eax
  200675:	c3                   	ret
  200676:	2e 8d b4 26 00 00 00 	lea    %cs:0x0(%esi,%eiz,1),%esi
  20067d:	00 
  20067e:	66 90                	xchg   %ax,%ax

00200680 <get_resume32_end_address>:
  200680:	b8 a3 b1 00 00       	mov    $0xb1a3,%eax
  200685:	c3                   	ret
  200686:	2e 8d b4 26 00 00 00 	lea    %cs:0x0(%esi,%eiz,1),%esi
  20068d:	00 
  20068e:	66 90                	xchg   %ax,%ax

00200690 <get_pm16_to_real16_address>:
  200690:	b8 b0 b0 00 00       	mov    $0xb0b0,%eax
  200695:	c3                   	ret
  200696:	2e 8d b4 26 00 00 00 	lea    %cs:0x0(%esi,%eiz,1),%esi
  20069d:	00 
  20069e:	66 90                	xchg   %ax,%ax

002006a0 <get_call_real16_function_address>:
  2006a0:	b8 cc b0 00 00       	mov    $0xb0cc,%eax
  2006a5:	c3                   	ret
  2006a6:	2e 8d b4 26 00 00 00 	lea    %cs:0x0(%esi,%eiz,1),%esi
  2006ad:	00 
  2006ae:	66 90                	xchg   %ax,%ax

002006b0 <get_resume32_start_address>:
  2006b0:	b8 80 b1 00 00       	mov    $0xb180,%eax
  2006b5:	c3                   	ret
  2006b6:	2e 8d b4 26 00 00 00 	lea    %cs:0x0(%esi,%eiz,1),%esi
  2006bd:	00 
  2006be:	66 90                	xchg   %ax,%ax

002006c0 <get_call_realmode_func_with_args_address>:
  2006c0:	b8 90 49 20 00       	mov    $0x204990,%eax
  2006c5:	c3                   	ret
  2006c6:	2e 8d b4 26 00 00 00 	lea    %cs:0x0(%esi,%eiz,1),%esi
  2006cd:	00 
  2006ce:	66 90                	xchg   %ax,%ax

002006d0 <get_pm32_to_pm16_address>:
  2006d0:	b8 60 b0 00 00       	mov    $0xb060,%eax
  2006d5:	c3                   	ret
  2006d6:	2e 8d b4 26 00 00 00 	lea    %cs:0x0(%esi,%eiz,1),%esi
  2006dd:	00 
  2006de:	66 90                	xchg   %ax,%ax

002006e0 <get_add16_address>:
  2006e0:	b8 40 b1 00 00       	mov    $0xb140,%eax
  2006e5:	c3                   	ret
  2006e6:	66 90                	xchg   %ax,%ax
  2006e8:	66 90                	xchg   %ax,%ax
  2006ea:	66 90                	xchg   %ax,%ax
  2006ec:	66 90                	xchg   %ax,%ax
  2006ee:	66 90                	xchg   %ax,%ax
  2006f0:	66 90                	xchg   %ax,%ax
  2006f2:	66 90                	xchg   %ax,%ax
  2006f4:	66 90                	xchg   %ax,%ax
  2006f6:	66 90                	xchg   %ax,%ax
  2006f8:	66 90                	xchg   %ax,%ax
  2006fa:	66 90                	xchg   %ax,%ax
  2006fc:	66 90                	xchg   %ax,%ax
  2006fe:	66 90                	xchg   %ax,%ax

00200700 <uitoa.part.0>:
  200700:	55                   	push   %ebp
  200701:	89 e5                	mov    %esp,%ebp
  200703:	57                   	push   %edi
  200704:	56                   	push   %esi
  200705:	53                   	push   %ebx
  200706:	89 d3                	mov    %edx,%ebx
  200708:	83 ec 04             	sub    $0x4,%esp
  20070b:	85 c0                	test   %eax,%eax
  20070d:	0f 84 95 00 00 00    	je     2007a8 <uitoa.part.0+0xa8>
  200713:	89 c6                	mov    %eax,%esi
  200715:	31 ff                	xor    %edi,%edi
  200717:	eb 27                	jmp    200740 <uitoa.part.0+0x40>
  200719:	2e 8d b4 26 00 00 00 	lea    %cs:0x0(%esi,%eiz,1),%esi
  200720:	00 
  200721:	2e 8d b4 26 00 00 00 	lea    %cs:0x0(%esi,%eiz,1),%esi
  200728:	00 
  200729:	2e 8d b4 26 00 00 00 	lea    %cs:0x0(%esi,%eiz,1),%esi
  200730:	00 
  200731:	2e 8d b4 26 00 00 00 	lea    %cs:0x0(%esi,%eiz,1),%esi
  200738:	00 
  200739:	8d b4 26 00 00 00 00 	lea    0x0(%esi,%eiz,1),%esi
  200740:	b8 cd cc cc cc       	mov    $0xcccccccd,%eax
  200745:	89 7d f0             	mov    %edi,-0x10(%ebp)
  200748:	83 c7 01             	add    $0x1,%edi
  20074b:	f7 e6                	mul    %esi
  20074d:	89 f0                	mov    %esi,%eax
  20074f:	c1 ea 03             	shr    $0x3,%edx
  200752:	8d 0c 92             	lea    (%edx,%edx,4),%ecx
  200755:	01 c9                	add    %ecx,%ecx
  200757:	29 c8                	sub    %ecx,%eax
  200759:	83 c0 30             	add    $0x30,%eax
  20075c:	83 fe 09             	cmp    $0x9,%esi
  20075f:	89 d6                	mov    %edx,%esi
  200761:	88 44 3b ff          	mov    %al,-0x1(%ebx,%edi,1)
  200765:	77 d9                	ja     200740 <uitoa.part.0+0x40>
  200767:	8b 4d f0             	mov    -0x10(%ebp),%ecx
  20076a:	c6 04 3b 00          	movb   $0x0,(%ebx,%edi,1)
  20076e:	85 c9                	test   %ecx,%ecx
  200770:	74 28                	je     20079a <uitoa.part.0+0x9a>
  200772:	31 d2                	xor    %edx,%edx
  200774:	2e 8d b4 26 00 00 00 	lea    %cs:0x0(%esi,%eiz,1),%esi
  20077b:	00 
  20077c:	8d 74 26 00          	lea    0x0(%esi,%eiz,1),%esi
  200780:	0f b6 34 13          	movzbl (%ebx,%edx,1),%esi
  200784:	0f b6 04 0b          	movzbl (%ebx,%ecx,1),%eax
  200788:	88 04 13             	mov    %al,(%ebx,%edx,1)
  20078b:	89 f0                	mov    %esi,%eax
  20078d:	83 c2 01             	add    $0x1,%edx
  200790:	88 04 0b             	mov    %al,(%ebx,%ecx,1)
  200793:	83 e9 01             	sub    $0x1,%ecx
  200796:	39 ca                	cmp    %ecx,%edx
  200798:	72 e6                	jb     200780 <uitoa.part.0+0x80>
  20079a:	83 c4 04             	add    $0x4,%esp
  20079d:	89 f8                	mov    %edi,%eax
  20079f:	5b                   	pop    %ebx
  2007a0:	5e                   	pop    %esi
  2007a1:	5f                   	pop    %edi
  2007a2:	5d                   	pop    %ebp
  2007a3:	c3                   	ret
  2007a4:	8d 74 26 00          	lea    0x0(%esi,%eiz,1),%esi
  2007a8:	c6 02 00             	movb   $0x0,(%edx)
  2007ab:	31 ff                	xor    %edi,%edi
  2007ad:	b9 ff ff ff ff       	mov    $0xffffffff,%ecx
  2007b2:	eb be                	jmp    200772 <uitoa.part.0+0x72>
  2007b4:	2e 8d b4 26 00 00 00 	lea    %cs:0x0(%esi,%eiz,1),%esi
  2007bb:	00 
  2007bc:	8d 74 26 00          	lea    0x0(%esi,%eiz,1),%esi

002007c0 <strlen>:
  2007c0:	55                   	push   %ebp
  2007c1:	31 c0                	xor    %eax,%eax
  2007c3:	89 e5                	mov    %esp,%ebp
  2007c5:	8b 55 08             	mov    0x8(%ebp),%edx
  2007c8:	80 3a 00             	cmpb   $0x0,(%edx)
  2007cb:	74 0c                	je     2007d9 <strlen+0x19>
  2007cd:	8d 76 00             	lea    0x0(%esi),%esi
  2007d0:	83 c0 01             	add    $0x1,%eax
  2007d3:	80 3c 02 00          	cmpb   $0x0,(%edx,%eax,1)
  2007d7:	75 f7                	jne    2007d0 <strlen+0x10>
  2007d9:	5d                   	pop    %ebp
  2007da:	c3                   	ret
  2007db:	2e 8d 74 26 00       	lea    %cs:0x0(%esi,%eiz,1),%esi

002007e0 <itoa>:
  2007e0:	55                   	push   %ebp
  2007e1:	89 e5                	mov    %esp,%ebp
  2007e3:	57                   	push   %edi
  2007e4:	56                   	push   %esi
  2007e5:	53                   	push   %ebx
  2007e6:	83 ec 04             	sub    $0x4,%esp
  2007e9:	8b 4d 08             	mov    0x8(%ebp),%ecx
  2007ec:	8b 75 0c             	mov    0xc(%ebp),%esi
  2007ef:	85 c9                	test   %ecx,%ecx
  2007f1:	0f 84 d1 00 00 00    	je     2008c8 <itoa+0xe8>
  2007f7:	b8 00 00 00 00       	mov    $0x0,%eax
  2007fc:	0f 88 b6 00 00 00    	js     2008b8 <itoa+0xd8>
  200802:	89 45 f0             	mov    %eax,-0x10(%ebp)
  200805:	31 ff                	xor    %edi,%edi
  200807:	eb 37                	jmp    200840 <itoa+0x60>
  200809:	2e 8d b4 26 00 00 00 	lea    %cs:0x0(%esi,%eiz,1),%esi
  200810:	00 
  200811:	2e 8d b4 26 00 00 00 	lea    %cs:0x0(%esi,%eiz,1),%esi
  200818:	00 
  200819:	2e 8d b4 26 00 00 00 	lea    %cs:0x0(%esi,%eiz,1),%esi
  200820:	00 
  200821:	2e 8d b4 26 00 00 00 	lea    %cs:0x0(%esi,%eiz,1),%esi
  200828:	00 
  200829:	2e 8d b4 26 00 00 00 	lea    %cs:0x0(%esi,%eiz,1),%esi
  200830:	00 
  200831:	2e 8d b4 26 00 00 00 	lea    %cs:0x0(%esi,%eiz,1),%esi
  200838:	00 
  200839:	8d b4 26 00 00 00 00 	lea    0x0(%esi,%eiz,1),%esi
  200840:	b8 cd cc cc cc       	mov    $0xcccccccd,%eax
  200845:	89 fb                	mov    %edi,%ebx
  200847:	83 c7 01             	add    $0x1,%edi
  20084a:	f7 e1                	mul    %ecx
  20084c:	c1 ea 03             	shr    $0x3,%edx
  20084f:	8d 04 92             	lea    (%edx,%edx,4),%eax
  200852:	01 c0                	add    %eax,%eax
  200854:	29 c1                	sub    %eax,%ecx
  200856:	83 c1 30             	add    $0x30,%ecx
  200859:	88 4c 3e ff          	mov    %cl,-0x1(%esi,%edi,1)
  20085d:	89 d1                	mov    %edx,%ecx
  20085f:	85 d2                	test   %edx,%edx
  200861:	75 dd                	jne    200840 <itoa+0x60>
  200863:	8b 45 f0             	mov    -0x10(%ebp),%eax
  200866:	85 c0                	test   %eax,%eax
  200868:	75 3e                	jne    2008a8 <itoa+0xc8>
  20086a:	c6 04 3e 00          	movb   $0x0,(%esi,%edi,1)
  20086e:	85 db                	test   %ebx,%ebx
  200870:	74 5e                	je     2008d0 <itoa+0xf0>
  200872:	31 d2                	xor    %edx,%edx
  200874:	2e 8d b4 26 00 00 00 	lea    %cs:0x0(%esi,%eiz,1),%esi
  20087b:	00 
  20087c:	8d 74 26 00          	lea    0x0(%esi,%eiz,1),%esi
  200880:	0f b6 0c 16          	movzbl (%esi,%edx,1),%ecx
  200884:	0f b6 04 1e          	movzbl (%esi,%ebx,1),%eax
  200888:	88 04 16             	mov    %al,(%esi,%edx,1)
  20088b:	83 c2 01             	add    $0x1,%edx
  20088e:	88 0c 1e             	mov    %cl,(%esi,%ebx,1)
  200891:	83 eb 01             	sub    $0x1,%ebx
  200894:	39 da                	cmp    %ebx,%edx
  200896:	72 e8                	jb     200880 <itoa+0xa0>
  200898:	83 c4 04             	add    $0x4,%esp
  20089b:	89 f8                	mov    %edi,%eax
  20089d:	5b                   	pop    %ebx
  20089e:	5e                   	pop    %esi
  20089f:	5f                   	pop    %edi
  2008a0:	5d                   	pop    %ebp
  2008a1:	c3                   	ret
  2008a2:	8d b6 00 00 00 00    	lea    0x0(%esi),%esi
  2008a8:	8d 43 02             	lea    0x2(%ebx),%eax
  2008ab:	c6 04 3e 2d          	movb   $0x2d,(%esi,%edi,1)
  2008af:	89 fb                	mov    %edi,%ebx
  2008b1:	89 c7                	mov    %eax,%edi
  2008b3:	eb b5                	jmp    20086a <itoa+0x8a>
  2008b5:	8d 76 00             	lea    0x0(%esi),%esi
  2008b8:	f7 d9                	neg    %ecx
  2008ba:	b8 01 00 00 00       	mov    $0x1,%eax
  2008bf:	e9 3e ff ff ff       	jmp    200802 <itoa+0x22>
  2008c4:	8d 74 26 00          	lea    0x0(%esi,%eiz,1),%esi
  2008c8:	ba 30 00 00 00       	mov    $0x30,%edx
  2008cd:	66 89 16             	mov    %dx,(%esi)
  2008d0:	bf 01 00 00 00       	mov    $0x1,%edi
  2008d5:	eb c1                	jmp    200898 <itoa+0xb8>
  2008d7:	2e 8d b4 26 00 00 00 	lea    %cs:0x0(%esi,%eiz,1),%esi
  2008de:	00 
  2008df:	90                   	nop

002008e0 <uitoa>:
  2008e0:	55                   	push   %ebp
  2008e1:	89 e5                	mov    %esp,%ebp
  2008e3:	8b 45 08             	mov    0x8(%ebp),%eax
  2008e6:	8b 55 0c             	mov    0xc(%ebp),%edx
  2008e9:	85 c0                	test   %eax,%eax
  2008eb:	74 0b                	je     2008f8 <uitoa+0x18>
  2008ed:	5d                   	pop    %ebp
  2008ee:	e9 0d fe ff ff       	jmp    200700 <uitoa.part.0>
  2008f3:	2e 8d 74 26 00       	lea    %cs:0x0(%esi,%eiz,1),%esi
  2008f8:	b8 30 00 00 00       	mov    $0x30,%eax
  2008fd:	66 89 02             	mov    %ax,(%edx)
  200900:	b8 01 00 00 00       	mov    $0x1,%eax
  200905:	5d                   	pop    %ebp
  200906:	c3                   	ret
  200907:	2e 8d b4 26 00 00 00 	lea    %cs:0x0(%esi,%eiz,1),%esi
  20090e:	00 
  20090f:	90                   	nop

00200910 <ftoa>:
  200910:	55                   	push   %ebp
  200911:	31 c9                	xor    %ecx,%ecx
  200913:	89 e5                	mov    %esp,%ebp
  200915:	57                   	push   %edi
  200916:	56                   	push   %esi
  200917:	53                   	push   %ebx
  200918:	83 ec 14             	sub    $0x14,%esp
  20091b:	d9 45 08             	flds   0x8(%ebp)
  20091e:	8b 5d 0c             	mov    0xc(%ebp),%ebx
  200921:	8b 7d 10             	mov    0x10(%ebp),%edi
  200924:	89 da                	mov    %ebx,%edx
  200926:	d9 ee                	fldz
  200928:	df f1                	fcomip %st(1),%st
  20092a:	76 0d                	jbe    200939 <ftoa+0x29>
  20092c:	c6 03 2d             	movb   $0x2d,(%ebx)
  20092f:	d9 e0                	fchs
  200931:	8d 53 01             	lea    0x1(%ebx),%edx
  200934:	b9 01 00 00 00       	mov    $0x1,%ecx
  200939:	d9 7d ee             	fnstcw -0x12(%ebp)
  20093c:	0f b7 45 ee          	movzwl -0x12(%ebp),%eax
  200940:	80 cc 0c             	or     $0xc,%ah
  200943:	66 89 45 ec          	mov    %ax,-0x14(%ebp)
  200947:	d9 c0                	fld    %st(0)
  200949:	d9 6d ec             	fldcw  -0x14(%ebp)
  20094c:	df 7d e0             	fistpll -0x20(%ebp)
  20094f:	d9 6d ee             	fldcw  -0x12(%ebp)
  200952:	8b 75 e0             	mov    -0x20(%ebp),%esi
  200955:	85 f6                	test   %esi,%esi
  200957:	0f 84 b3 00 00 00    	je     200a10 <ftoa+0x100>
  20095d:	89 f0                	mov    %esi,%eax
  20095f:	89 4d e0             	mov    %ecx,-0x20(%ebp)
  200962:	d9 5d 08             	fstps  0x8(%ebp)
  200965:	e8 96 fd ff ff       	call   200700 <uitoa.part.0>
  20096a:	8b 4d e0             	mov    -0x20(%ebp),%ecx
  20096d:	d9 45 08             	flds   0x8(%ebp)
  200970:	01 c1                	add    %eax,%ecx
  200972:	8d 14 0b             	lea    (%ebx,%ecx,1),%edx
  200975:	85 ff                	test   %edi,%edi
  200977:	0f 84 b3 00 00 00    	je     200a30 <ftoa+0x120>
  20097d:	c6 02 2e             	movb   $0x2e,(%edx)
  200980:	d9 7d ee             	fnstcw -0x12(%ebp)
  200983:	89 75 e0             	mov    %esi,-0x20(%ebp)
  200986:	8d 34 1f             	lea    (%edi,%ebx,1),%esi
  200989:	c7 45 e4 00 00 00 00 	movl   $0x0,-0x1c(%ebp)
  200990:	df 6d e0             	fildll -0x20(%ebp)
  200993:	01 ce                	add    %ecx,%esi
  200995:	0f b7 45 ee          	movzwl -0x12(%ebp),%eax
  200999:	89 4d e8             	mov    %ecx,-0x18(%ebp)
  20099c:	80 cc 0c             	or     $0xc,%ah
  20099f:	de e9                	fsubrp %st,%st(1)
  2009a1:	66 89 45 ec          	mov    %ax,-0x14(%ebp)
  2009a5:	eb 19                	jmp    2009c0 <ftoa+0xb0>
  2009a7:	2e 8d b4 26 00 00 00 	lea    %cs:0x0(%esi,%eiz,1),%esi
  2009ae:	00 
  2009af:	2e 8d b4 26 00 00 00 	lea    %cs:0x0(%esi,%eiz,1),%esi
  2009b6:	00 
  2009b7:	2e 8d b4 26 00 00 00 	lea    %cs:0x0(%esi,%eiz,1),%esi
  2009be:	00 
  2009bf:	90                   	nop
  2009c0:	d8 0d e0 5a 20 00    	fmuls  0x205ae0
  2009c6:	83 c2 01             	add    $0x1,%edx
  2009c9:	d9 c0                	fld    %st(0)
  2009cb:	d9 6d ec             	fldcw  -0x14(%ebp)
  2009ce:	df 7d e0             	fistpll -0x20(%ebp)
  2009d1:	d9 6d ee             	fldcw  -0x12(%ebp)
  2009d4:	c7 45 e4 00 00 00 00 	movl   $0x0,-0x1c(%ebp)
  2009db:	8b 45 e0             	mov    -0x20(%ebp),%eax
  2009de:	89 45 e0             	mov    %eax,-0x20(%ebp)
  2009e1:	df 6d e0             	fildll -0x20(%ebp)
  2009e4:	8d 48 30             	lea    0x30(%eax),%ecx
  2009e7:	88 0a                	mov    %cl,(%edx)
  2009e9:	de e9                	fsubrp %st,%st(1)
  2009eb:	39 f2                	cmp    %esi,%edx
  2009ed:	75 d1                	jne    2009c0 <ftoa+0xb0>
  2009ef:	dd d8                	fstp   %st(0)
  2009f1:	8b 4d e8             	mov    -0x18(%ebp),%ecx
  2009f4:	8d 4c 39 01          	lea    0x1(%ecx,%edi,1),%ecx
  2009f8:	c6 04 0b 00          	movb   $0x0,(%ebx,%ecx,1)
  2009fc:	83 c4 14             	add    $0x14,%esp
  2009ff:	89 c8                	mov    %ecx,%eax
  200a01:	5b                   	pop    %ebx
  200a02:	5e                   	pop    %esi
  200a03:	5f                   	pop    %edi
  200a04:	5d                   	pop    %ebp
  200a05:	c3                   	ret
  200a06:	2e 8d b4 26 00 00 00 	lea    %cs:0x0(%esi,%eiz,1),%esi
  200a0d:	00 
  200a0e:	66 90                	xchg   %ax,%ax
  200a10:	b8 30 00 00 00       	mov    $0x30,%eax
  200a15:	66 89 02             	mov    %ax,(%edx)
  200a18:	b8 01 00 00 00       	mov    $0x1,%eax
  200a1d:	01 c1                	add    %eax,%ecx
  200a1f:	8d 14 0b             	lea    (%ebx,%ecx,1),%edx
  200a22:	85 ff                	test   %edi,%edi
  200a24:	0f 85 53 ff ff ff    	jne    20097d <ftoa+0x6d>
  200a2a:	dd d8                	fstp   %st(0)
  200a2c:	eb 04                	jmp    200a32 <ftoa+0x122>
  200a2e:	66 90                	xchg   %ax,%ax
  200a30:	dd d8                	fstp   %st(0)
  200a32:	c6 02 00             	movb   $0x0,(%edx)
  200a35:	83 c4 14             	add    $0x14,%esp
  200a38:	89 c8                	mov    %ecx,%eax
  200a3a:	5b                   	pop    %ebx
  200a3b:	5e                   	pop    %esi
  200a3c:	5f                   	pop    %edi
  200a3d:	5d                   	pop    %ebp
  200a3e:	c3                   	ret
  200a3f:	90                   	nop

00200a40 <char_to_uint>:
  200a40:	55                   	push   %ebp
  200a41:	ba 0b 00 00 00       	mov    $0xb,%edx
  200a46:	89 e5                	mov    %esp,%ebp
  200a48:	0f b6 45 08          	movzbl 0x8(%ebp),%eax
  200a4c:	5d                   	pop    %ebp
  200a4d:	83 e8 30             	sub    $0x30,%eax
  200a50:	3c 0a                	cmp    $0xa,%al
  200a52:	0f 43 c2             	cmovae %edx,%eax
  200a55:	c3                   	ret
  200a56:	2e 8d b4 26 00 00 00 	lea    %cs:0x0(%esi,%eiz,1),%esi
  200a5d:	00 
  200a5e:	66 90                	xchg   %ax,%ax

00200a60 <string_to_uint>:
  200a60:	55                   	push   %ebp
  200a61:	89 e5                	mov    %esp,%ebp
  200a63:	53                   	push   %ebx
  200a64:	8b 55 08             	mov    0x8(%ebp),%edx
  200a67:	80 3a 00             	cmpb   $0x0,(%edx)
  200a6a:	74 5c                	je     200ac8 <string_to_uint+0x68>
  200a6c:	31 c0                	xor    %eax,%eax
  200a6e:	66 90                	xchg   %ax,%ax
  200a70:	83 c0 01             	add    $0x1,%eax
  200a73:	80 3c 02 00          	cmpb   $0x0,(%edx,%eax,1)
  200a77:	75 f7                	jne    200a70 <string_to_uint+0x10>
  200a79:	0f b6 c0             	movzbl %al,%eax
  200a7c:	83 e8 01             	sub    $0x1,%eax
  200a7f:	01 c2                	add    %eax,%edx
  200a81:	31 db                	xor    %ebx,%ebx
  200a83:	0f b6 02             	movzbl (%edx),%eax
  200a86:	84 c0                	test   %al,%al
  200a88:	74 23                	je     200aad <string_to_uint+0x4d>
  200a8a:	b9 01 00 00 00       	mov    $0x1,%ecx
  200a8f:	83 e8 30             	sub    $0x30,%eax
  200a92:	3c 09                	cmp    $0x9,%al
  200a94:	77 22                	ja     200ab8 <string_to_uint+0x58>
  200a96:	0f b6 c0             	movzbl %al,%eax
  200a99:	83 ea 01             	sub    $0x1,%edx
  200a9c:	0f af c1             	imul   %ecx,%eax
  200a9f:	8d 0c 89             	lea    (%ecx,%ecx,4),%ecx
  200aa2:	01 c9                	add    %ecx,%ecx
  200aa4:	01 c3                	add    %eax,%ebx
  200aa6:	0f b6 02             	movzbl (%edx),%eax
  200aa9:	84 c0                	test   %al,%al
  200aab:	75 e2                	jne    200a8f <string_to_uint+0x2f>
  200aad:	89 d8                	mov    %ebx,%eax
  200aaf:	8b 5d fc             	mov    -0x4(%ebp),%ebx
  200ab2:	c9                   	leave
  200ab3:	c3                   	ret
  200ab4:	8d 74 26 00          	lea    0x0(%esi,%eiz,1),%esi
  200ab8:	bb ff ff ff ff       	mov    $0xffffffff,%ebx
  200abd:	89 d8                	mov    %ebx,%eax
  200abf:	8b 5d fc             	mov    -0x4(%ebp),%ebx
  200ac2:	c9                   	leave
  200ac3:	c3                   	ret
  200ac4:	8d 74 26 00          	lea    0x0(%esi,%eiz,1),%esi
  200ac8:	b8 ff ff ff ff       	mov    $0xffffffff,%eax
  200acd:	eb b0                	jmp    200a7f <string_to_uint+0x1f>
  200acf:	90                   	nop

00200ad0 <uint_to_hex>:
  200ad0:	55                   	push   %ebp
  200ad1:	b8 4f 54 20 00       	mov    $0x20544f,%eax
  200ad6:	89 e5                	mov    %esp,%ebp
  200ad8:	57                   	push   %edi
  200ad9:	56                   	push   %esi
  200ada:	be 60 54 20 00       	mov    $0x205460,%esi
  200adf:	53                   	push   %ebx
  200ae0:	83 ec 10             	sub    $0x10,%esp
  200ae3:	8b 4d 10             	mov    0x10(%ebp),%ecx
  200ae6:	8b 55 08             	mov    0x8(%ebp),%edx
  200ae9:	8b 5d 0c             	mov    0xc(%ebp),%ebx
  200aec:	85 c9                	test   %ecx,%ecx
  200aee:	0f 45 f0             	cmovne %eax,%esi
  200af1:	85 d2                	test   %edx,%edx
  200af3:	0f 84 a7 00 00 00    	je     200ba0 <uint_to_hex+0xd0>
  200af9:	c6 45 f3 00          	movb   $0x0,-0xd(%ebp)
  200afd:	8d 4d eb             	lea    -0x15(%ebp),%ecx
  200b00:	8d 45 f2             	lea    -0xe(%ebp),%eax
  200b03:	89 5d 0c             	mov    %ebx,0xc(%ebp)
  200b06:	8d 7d ea             	lea    -0x16(%ebp),%edi
  200b09:	2e 8d b4 26 00 00 00 	lea    %cs:0x0(%esi,%eiz,1),%esi
  200b10:	00 
  200b11:	2e 8d b4 26 00 00 00 	lea    %cs:0x0(%esi,%eiz,1),%esi
  200b18:	00 
  200b19:	8d b4 26 00 00 00 00 	lea    0x0(%esi,%eiz,1),%esi
  200b20:	89 d3                	mov    %edx,%ebx
  200b22:	83 e8 01             	sub    $0x1,%eax
  200b25:	c1 ea 04             	shr    $0x4,%edx
  200b28:	83 e3 0f             	and    $0xf,%ebx
  200b2b:	0f b6 1c 1e          	movzbl (%esi,%ebx,1),%ebx
  200b2f:	88 58 01             	mov    %bl,0x1(%eax)
  200b32:	39 f8                	cmp    %edi,%eax
  200b34:	75 ea                	jne    200b20 <uint_to_hex+0x50>
  200b36:	0f b6 45 eb          	movzbl -0x15(%ebp),%eax
  200b3a:	8b 5d 0c             	mov    0xc(%ebp),%ebx
  200b3d:	31 f6                	xor    %esi,%esi
  200b3f:	3c 30                	cmp    $0x30,%al
  200b41:	75 18                	jne    200b5b <uint_to_hex+0x8b>
  200b43:	2e 8d b4 26 00 00 00 	lea    %cs:0x0(%esi,%eiz,1),%esi
  200b4a:	00 
  200b4b:	2e 8d 74 26 00       	lea    %cs:0x0(%esi,%eiz,1),%esi
  200b50:	83 c6 01             	add    $0x1,%esi
  200b53:	0f b6 04 31          	movzbl (%ecx,%esi,1),%eax
  200b57:	3c 30                	cmp    $0x30,%al
  200b59:	74 f5                	je     200b50 <uint_to_hex+0x80>
  200b5b:	84 c0                	test   %al,%al
  200b5d:	74 61                	je     200bc0 <uint_to_hex+0xf0>
  200b5f:	31 d2                	xor    %edx,%edx
  200b61:	01 f1                	add    %esi,%ecx
  200b63:	eb 1b                	jmp    200b80 <uint_to_hex+0xb0>
  200b65:	2e 8d b4 26 00 00 00 	lea    %cs:0x0(%esi,%eiz,1),%esi
  200b6c:	00 
  200b6d:	2e 8d b4 26 00 00 00 	lea    %cs:0x0(%esi,%eiz,1),%esi
  200b74:	00 
  200b75:	2e 8d b4 26 00 00 00 	lea    %cs:0x0(%esi,%eiz,1),%esi
  200b7c:	00 
  200b7d:	8d 76 00             	lea    0x0(%esi),%esi
  200b80:	83 c2 01             	add    $0x1,%edx
  200b83:	88 44 13 ff          	mov    %al,-0x1(%ebx,%edx,1)
  200b87:	0f b6 04 11          	movzbl (%ecx,%edx,1),%eax
  200b8b:	89 d6                	mov    %edx,%esi
  200b8d:	84 c0                	test   %al,%al
  200b8f:	75 ef                	jne    200b80 <uint_to_hex+0xb0>
  200b91:	01 d3                	add    %edx,%ebx
  200b93:	c6 03 00             	movb   $0x0,(%ebx)
  200b96:	83 c4 10             	add    $0x10,%esp
  200b99:	89 f0                	mov    %esi,%eax
  200b9b:	5b                   	pop    %ebx
  200b9c:	5e                   	pop    %esi
  200b9d:	5f                   	pop    %edi
  200b9e:	5d                   	pop    %ebp
  200b9f:	c3                   	ret
  200ba0:	b8 30 00 00 00       	mov    $0x30,%eax
  200ba5:	be 01 00 00 00       	mov    $0x1,%esi
  200baa:	66 89 03             	mov    %ax,(%ebx)
  200bad:	83 c4 10             	add    $0x10,%esp
  200bb0:	89 f0                	mov    %esi,%eax
  200bb2:	5b                   	pop    %ebx
  200bb3:	5e                   	pop    %esi
  200bb4:	5f                   	pop    %edi
  200bb5:	5d                   	pop    %ebp
  200bb6:	c3                   	ret
  200bb7:	2e 8d b4 26 00 00 00 	lea    %cs:0x0(%esi,%eiz,1),%esi
  200bbe:	00 
  200bbf:	90                   	nop
  200bc0:	31 f6                	xor    %esi,%esi
  200bc2:	eb cf                	jmp    200b93 <uint_to_hex+0xc3>
  200bc4:	2e 8d b4 26 00 00 00 	lea    %cs:0x0(%esi,%eiz,1),%esi
  200bcb:	00 
  200bcc:	8d 74 26 00          	lea    0x0(%esi,%eiz,1),%esi

00200bd0 <ptr_to_hex>:
  200bd0:	55                   	push   %ebp
  200bd1:	b8 4f 54 20 00       	mov    $0x20544f,%eax
  200bd6:	89 e5                	mov    %esp,%ebp
  200bd8:	57                   	push   %edi
  200bd9:	56                   	push   %esi
  200bda:	be 60 54 20 00       	mov    $0x205460,%esi
  200bdf:	53                   	push   %ebx
  200be0:	83 ec 10             	sub    $0x10,%esp
  200be3:	8b 4d 10             	mov    0x10(%ebp),%ecx
  200be6:	8b 55 08             	mov    0x8(%ebp),%edx
  200be9:	8b 5d 0c             	mov    0xc(%ebp),%ebx
  200bec:	85 c9                	test   %ecx,%ecx
  200bee:	0f 45 f0             	cmovne %eax,%esi
  200bf1:	85 d2                	test   %edx,%edx
  200bf3:	0f 84 a7 00 00 00    	je     200ca0 <ptr_to_hex+0xd0>
  200bf9:	c6 45 f3 00          	movb   $0x0,-0xd(%ebp)
  200bfd:	8d 4d eb             	lea    -0x15(%ebp),%ecx
  200c00:	8d 45 f2             	lea    -0xe(%ebp),%eax
  200c03:	89 5d 0c             	mov    %ebx,0xc(%ebp)
  200c06:	8d 7d ea             	lea    -0x16(%ebp),%edi
  200c09:	2e 8d b4 26 00 00 00 	lea    %cs:0x0(%esi,%eiz,1),%esi
  200c10:	00 
  200c11:	2e 8d b4 26 00 00 00 	lea    %cs:0x0(%esi,%eiz,1),%esi
  200c18:	00 
  200c19:	8d b4 26 00 00 00 00 	lea    0x0(%esi,%eiz,1),%esi
  200c20:	89 d3                	mov    %edx,%ebx
  200c22:	83 e8 01             	sub    $0x1,%eax
  200c25:	c1 ea 04             	shr    $0x4,%edx
  200c28:	83 e3 0f             	and    $0xf,%ebx
  200c2b:	0f b6 1c 1e          	movzbl (%esi,%ebx,1),%ebx
  200c2f:	88 58 01             	mov    %bl,0x1(%eax)
  200c32:	39 f8                	cmp    %edi,%eax
  200c34:	75 ea                	jne    200c20 <ptr_to_hex+0x50>
  200c36:	0f b6 45 eb          	movzbl -0x15(%ebp),%eax
  200c3a:	8b 5d 0c             	mov    0xc(%ebp),%ebx
  200c3d:	31 f6                	xor    %esi,%esi
  200c3f:	3c 30                	cmp    $0x30,%al
  200c41:	75 18                	jne    200c5b <ptr_to_hex+0x8b>
  200c43:	2e 8d b4 26 00 00 00 	lea    %cs:0x0(%esi,%eiz,1),%esi
  200c4a:	00 
  200c4b:	2e 8d 74 26 00       	lea    %cs:0x0(%esi,%eiz,1),%esi
  200c50:	83 c6 01             	add    $0x1,%esi
  200c53:	0f b6 04 31          	movzbl (%ecx,%esi,1),%eax
  200c57:	3c 30                	cmp    $0x30,%al
  200c59:	74 f5                	je     200c50 <ptr_to_hex+0x80>
  200c5b:	84 c0                	test   %al,%al
  200c5d:	74 61                	je     200cc0 <ptr_to_hex+0xf0>
  200c5f:	31 d2                	xor    %edx,%edx
  200c61:	01 f1                	add    %esi,%ecx
  200c63:	eb 1b                	jmp    200c80 <ptr_to_hex+0xb0>
  200c65:	2e 8d b4 26 00 00 00 	lea    %cs:0x0(%esi,%eiz,1),%esi
  200c6c:	00 
  200c6d:	2e 8d b4 26 00 00 00 	lea    %cs:0x0(%esi,%eiz,1),%esi
  200c74:	00 
  200c75:	2e 8d b4 26 00 00 00 	lea    %cs:0x0(%esi,%eiz,1),%esi
  200c7c:	00 
  200c7d:	8d 76 00             	lea    0x0(%esi),%esi
  200c80:	83 c2 01             	add    $0x1,%edx
  200c83:	88 44 13 ff          	mov    %al,-0x1(%ebx,%edx,1)
  200c87:	0f b6 04 11          	movzbl (%ecx,%edx,1),%eax
  200c8b:	89 d6                	mov    %edx,%esi
  200c8d:	84 c0                	test   %al,%al
  200c8f:	75 ef                	jne    200c80 <ptr_to_hex+0xb0>
  200c91:	01 d3                	add    %edx,%ebx
  200c93:	c6 03 00             	movb   $0x0,(%ebx)
  200c96:	83 c4 10             	add    $0x10,%esp
  200c99:	89 f0                	mov    %esi,%eax
  200c9b:	5b                   	pop    %ebx
  200c9c:	5e                   	pop    %esi
  200c9d:	5f                   	pop    %edi
  200c9e:	5d                   	pop    %ebp
  200c9f:	c3                   	ret
  200ca0:	b8 30 00 00 00       	mov    $0x30,%eax
  200ca5:	be 01 00 00 00       	mov    $0x1,%esi
  200caa:	66 89 03             	mov    %ax,(%ebx)
  200cad:	83 c4 10             	add    $0x10,%esp
  200cb0:	89 f0                	mov    %esi,%eax
  200cb2:	5b                   	pop    %ebx
  200cb3:	5e                   	pop    %esi
  200cb4:	5f                   	pop    %edi
  200cb5:	5d                   	pop    %ebp
  200cb6:	c3                   	ret
  200cb7:	2e 8d b4 26 00 00 00 	lea    %cs:0x0(%esi,%eiz,1),%esi
  200cbe:	00 
  200cbf:	90                   	nop
  200cc0:	31 f6                	xor    %esi,%esi
  200cc2:	eb cf                	jmp    200c93 <ptr_to_hex+0xc3>
  200cc4:	66 90                	xchg   %ax,%ax
  200cc6:	66 90                	xchg   %ax,%ax
  200cc8:	66 90                	xchg   %ax,%ax
  200cca:	66 90                	xchg   %ax,%ax
  200ccc:	66 90                	xchg   %ax,%ax
  200cce:	66 90                	xchg   %ax,%ax
  200cd0:	66 90                	xchg   %ax,%ax
  200cd2:	66 90                	xchg   %ax,%ax
  200cd4:	66 90                	xchg   %ax,%ax
  200cd6:	66 90                	xchg   %ax,%ax
  200cd8:	66 90                	xchg   %ax,%ax
  200cda:	66 90                	xchg   %ax,%ax
  200cdc:	66 90                	xchg   %ax,%ax
  200cde:	66 90                	xchg   %ax,%ax
  200ce0:	66 90                	xchg   %ax,%ax
  200ce2:	66 90                	xchg   %ax,%ax
  200ce4:	66 90                	xchg   %ax,%ax
  200ce6:	66 90                	xchg   %ax,%ax
  200ce8:	66 90                	xchg   %ax,%ax
  200cea:	66 90                	xchg   %ax,%ax
  200cec:	66 90                	xchg   %ax,%ax
  200cee:	66 90                	xchg   %ax,%ax
  200cf0:	66 90                	xchg   %ax,%ax
  200cf2:	66 90                	xchg   %ax,%ax
  200cf4:	66 90                	xchg   %ax,%ax
  200cf6:	66 90                	xchg   %ax,%ax
  200cf8:	66 90                	xchg   %ax,%ax
  200cfa:	66 90                	xchg   %ax,%ax
  200cfc:	66 90                	xchg   %ax,%ax
  200cfe:	66 90                	xchg   %ax,%ax

00200d00 <assert_handler.part.0.constprop.0>:
  200d00:	55                   	push   %ebp
  200d01:	89 e5                	mov    %esp,%ebp
  200d03:	56                   	push   %esi
  200d04:	89 d6                	mov    %edx,%esi
  200d06:	53                   	push   %ebx
  200d07:	89 c3                	mov    %eax,%ebx
  200d09:	83 ec 08             	sub    $0x8,%esp
  200d0c:	68 71 54 20 00       	push   $0x205471
  200d11:	6a 01                	push   $0x1
  200d13:	e8 b8 1a 00 00       	call   2027d0 <kprintf_argc>
  200d18:	89 34 24             	mov    %esi,(%esp)
  200d1b:	68 83 54 20 00       	push   $0x205483
  200d20:	53                   	push   %ebx
  200d21:	68 9a 54 20 00       	push   $0x20549a
  200d26:	6a 04                	push   $0x4
  200d28:	e8 a3 1a 00 00       	call   2027d0 <kprintf_argc>
  200d2d:	83 c4 14             	add    $0x14,%esp
  200d30:	68 b1 54 20 00       	push   $0x2054b1
  200d35:	e8 16 0b 00 00       	call   201850 <terminal_writestring>
  200d3a:	83 c4 10             	add    $0x10,%esp
  200d3d:	8d 76 00             	lea    0x0(%esi),%esi
  200d40:	fa                   	cli
  200d41:	f4                   	hlt
  200d42:	eb fc                	jmp    200d40 <assert_handler.part.0.constprop.0+0x40>
  200d44:	2e 8d b4 26 00 00 00 	lea    %cs:0x0(%esi,%eiz,1),%esi
  200d4b:	00 
  200d4c:	8d 74 26 00          	lea    0x0(%esi,%eiz,1),%esi

00200d50 <getSpacelessBitString>:
  200d50:	55                   	push   %ebp
  200d51:	89 e5                	mov    %esp,%ebp
  200d53:	56                   	push   %esi
  200d54:	8b 4d 0c             	mov    0xc(%ebp),%ecx
  200d57:	8b 75 08             	mov    0x8(%ebp),%esi
  200d5a:	53                   	push   %ebx
  200d5b:	c6 41 20 00          	movb   $0x0,0x20(%ecx)
  200d5f:	8d 59 e0             	lea    -0x20(%ecx),%ebx
  200d62:	89 c8                	mov    %ecx,%eax
  200d64:	eb 1a                	jmp    200d80 <getSpacelessBitString+0x30>
  200d66:	2e 8d b4 26 00 00 00 	lea    %cs:0x0(%esi,%eiz,1),%esi
  200d6d:	00 
  200d6e:	2e 8d b4 26 00 00 00 	lea    %cs:0x0(%esi,%eiz,1),%esi
  200d75:	00 
  200d76:	2e 8d b4 26 00 00 00 	lea    %cs:0x0(%esi,%eiz,1),%esi
  200d7d:	00 
  200d7e:	66 90                	xchg   %ax,%ax
  200d80:	89 ca                	mov    %ecx,%edx
  200d82:	29 c2                	sub    %eax,%edx
  200d84:	0f a3 d6             	bt     %edx,%esi
  200d87:	0f 92 c2             	setb   %dl
  200d8a:	83 e8 01             	sub    $0x1,%eax
  200d8d:	83 c2 30             	add    $0x30,%edx
  200d90:	88 50 20             	mov    %dl,0x20(%eax)
  200d93:	39 d8                	cmp    %ebx,%eax
  200d95:	75 e9                	jne    200d80 <getSpacelessBitString+0x30>
  200d97:	5b                   	pop    %ebx
  200d98:	89 c8                	mov    %ecx,%eax
  200d9a:	5e                   	pop    %esi
  200d9b:	5d                   	pop    %ebp
  200d9c:	c3                   	ret
  200d9d:	8d 76 00             	lea    0x0(%esi),%esi

00200da0 <addSpacesEvery4bits>:
  200da0:	55                   	push   %ebp
  200da1:	b8 01 00 00 00       	mov    $0x1,%eax
  200da6:	89 e5                	mov    %esp,%ebp
  200da8:	57                   	push   %edi
  200da9:	8b 7d 08             	mov    0x8(%ebp),%edi
  200dac:	56                   	push   %esi
  200dad:	8b 75 0c             	mov    0xc(%ebp),%esi
  200db0:	53                   	push   %ebx
  200db1:	31 db                	xor    %ebx,%ebx
  200db3:	2e 8d b4 26 00 00 00 	lea    %cs:0x0(%esi,%eiz,1),%esi
  200dba:	00 
  200dbb:	2e 8d 74 26 00       	lea    %cs:0x0(%esi,%eiz,1),%esi
  200dc0:	69 c8 cd cc cc cc    	imul   $0xcccccccd,%eax,%ecx
  200dc6:	ba 20 00 00 00       	mov    $0x20,%edx
  200dcb:	81 f9 33 33 33 33    	cmp    $0x33333333,%ecx
  200dd1:	76 0a                	jbe    200ddd <addSpacesEvery4bits+0x3d>
  200dd3:	0f b6 d3             	movzbl %bl,%edx
  200dd6:	83 c3 01             	add    $0x1,%ebx
  200dd9:	0f b6 14 17          	movzbl (%edi,%edx,1),%edx
  200ddd:	88 54 06 ff          	mov    %dl,-0x1(%esi,%eax,1)
  200de1:	83 c0 01             	add    $0x1,%eax
  200de4:	83 f8 28             	cmp    $0x28,%eax
  200de7:	75 d7                	jne    200dc0 <addSpacesEvery4bits+0x20>
  200de9:	c6 46 27 00          	movb   $0x0,0x27(%esi)
  200ded:	89 f0                	mov    %esi,%eax
  200def:	5b                   	pop    %ebx
  200df0:	5e                   	pop    %esi
  200df1:	5f                   	pop    %edi
  200df2:	5d                   	pop    %ebp
  200df3:	c3                   	ret
  200df4:	2e 8d b4 26 00 00 00 	lea    %cs:0x0(%esi,%eiz,1),%esi
  200dfb:	00 
  200dfc:	8d 74 26 00          	lea    0x0(%esi,%eiz,1),%esi

00200e00 <printBinary>:
  200e00:	55                   	push   %ebp
  200e01:	89 e5                	mov    %esp,%ebp
  200e03:	56                   	push   %esi
  200e04:	53                   	push   %ebx
  200e05:	8d 45 ce             	lea    -0x32(%ebp),%eax
  200e08:	8d 75 ae             	lea    -0x52(%ebp),%esi
  200e0b:	83 ec 50             	sub    $0x50,%esp
  200e0e:	c6 45 cf 00          	movb   $0x0,-0x31(%ebp)
  200e12:	8b 5d 08             	mov    0x8(%ebp),%ebx
  200e15:	2e 8d b4 26 00 00 00 	lea    %cs:0x0(%esi,%eiz,1),%esi
  200e1c:	00 
  200e1d:	8d 76 00             	lea    0x0(%esi),%esi
  200e20:	8d 55 ce             	lea    -0x32(%ebp),%edx
  200e23:	29 c2                	sub    %eax,%edx
  200e25:	0f a3 d3             	bt     %edx,%ebx
  200e28:	0f 92 c2             	setb   %dl
  200e2b:	83 e8 01             	sub    $0x1,%eax
  200e2e:	83 c2 30             	add    $0x30,%edx
  200e31:	88 50 01             	mov    %dl,0x1(%eax)
  200e34:	39 c6                	cmp    %eax,%esi
  200e36:	75 e8                	jne    200e20 <printBinary+0x20>
  200e38:	b8 01 00 00 00       	mov    $0x1,%eax
  200e3d:	31 f6                	xor    %esi,%esi
  200e3f:	90                   	nop
  200e40:	69 c8 cd cc cc cc    	imul   $0xcccccccd,%eax,%ecx
  200e46:	ba 20 00 00 00       	mov    $0x20,%edx
  200e4b:	81 f9 33 33 33 33    	cmp    $0x33333333,%ecx
  200e51:	76 0d                	jbe    200e60 <printBinary+0x60>
  200e53:	89 f1                	mov    %esi,%ecx
  200e55:	83 c6 01             	add    $0x1,%esi
  200e58:	0f b6 d1             	movzbl %cl,%edx
  200e5b:	0f b6 54 15 af       	movzbl -0x51(%ebp,%edx,1),%edx
  200e60:	88 54 05 cf          	mov    %dl,-0x31(%ebp,%eax,1)
  200e64:	83 c0 01             	add    $0x1,%eax
  200e67:	83 f8 28             	cmp    $0x28,%eax
  200e6a:	75 d4                	jne    200e40 <printBinary+0x40>
  200e6c:	83 ec 0c             	sub    $0xc,%esp
  200e6f:	c6 45 f7 00          	movb   $0x0,-0x9(%ebp)
  200e73:	ff 75 0c             	push   0xc(%ebp)
  200e76:	e8 d5 09 00 00       	call   201850 <terminal_writestring>
  200e7b:	c7 04 24 d2 53 20 00 	movl   $0x2053d2,(%esp)
  200e82:	e8 c9 09 00 00       	call   201850 <terminal_writestring>
  200e87:	8d 45 d0             	lea    -0x30(%ebp),%eax
  200e8a:	89 04 24             	mov    %eax,(%esp)
  200e8d:	e8 be 09 00 00       	call   201850 <terminal_writestring>
  200e92:	c7 04 24 ba 54 20 00 	movl   $0x2054ba,(%esp)
  200e99:	e8 b2 09 00 00       	call   201850 <terminal_writestring>
  200e9e:	89 1c 24             	mov    %ebx,(%esp)
  200ea1:	e8 5a 0f 00 00       	call   201e00 <print_hex_var>
  200ea6:	c7 04 24 22 54 20 00 	movl   $0x205422,(%esp)
  200ead:	e8 9e 09 00 00       	call   201850 <terminal_writestring>
  200eb2:	83 c4 10             	add    $0x10,%esp
  200eb5:	8d 65 f8             	lea    -0x8(%ebp),%esp
  200eb8:	5b                   	pop    %ebx
  200eb9:	5e                   	pop    %esi
  200eba:	5d                   	pop    %ebp
  200ebb:	c3                   	ret
  200ebc:	8d 74 26 00          	lea    0x0(%esi,%eiz,1),%esi

00200ec0 <printBinarySize>:
  200ec0:	55                   	push   %ebp
  200ec1:	89 e5                	mov    %esp,%ebp
  200ec3:	56                   	push   %esi
  200ec4:	53                   	push   %ebx
  200ec5:	8d 45 ce             	lea    -0x32(%ebp),%eax
  200ec8:	8d 75 ae             	lea    -0x52(%ebp),%esi
  200ecb:	83 ec 50             	sub    $0x50,%esp
  200ece:	c6 45 cf 00          	movb   $0x0,-0x31(%ebp)
  200ed2:	8b 5d 08             	mov    0x8(%ebp),%ebx
  200ed5:	2e 8d b4 26 00 00 00 	lea    %cs:0x0(%esi,%eiz,1),%esi
  200edc:	00 
  200edd:	8d 76 00             	lea    0x0(%esi),%esi
  200ee0:	8d 55 ce             	lea    -0x32(%ebp),%edx
  200ee3:	29 c2                	sub    %eax,%edx
  200ee5:	0f a3 d3             	bt     %edx,%ebx
  200ee8:	0f 92 c2             	setb   %dl
  200eeb:	83 e8 01             	sub    $0x1,%eax
  200eee:	83 c2 30             	add    $0x30,%edx
  200ef1:	88 50 01             	mov    %dl,0x1(%eax)
  200ef4:	39 c6                	cmp    %eax,%esi
  200ef6:	75 e8                	jne    200ee0 <printBinarySize+0x20>
  200ef8:	b8 01 00 00 00       	mov    $0x1,%eax
  200efd:	31 f6                	xor    %esi,%esi
  200eff:	90                   	nop
  200f00:	69 c8 cd cc cc cc    	imul   $0xcccccccd,%eax,%ecx
  200f06:	ba 20 00 00 00       	mov    $0x20,%edx
  200f0b:	81 f9 33 33 33 33    	cmp    $0x33333333,%ecx
  200f11:	76 0d                	jbe    200f20 <printBinarySize+0x60>
  200f13:	89 f1                	mov    %esi,%ecx
  200f15:	83 c6 01             	add    $0x1,%esi
  200f18:	0f b6 d1             	movzbl %cl,%edx
  200f1b:	0f b6 54 15 af       	movzbl -0x51(%ebp,%edx,1),%edx
  200f20:	88 54 05 cf          	mov    %dl,-0x31(%ebp,%eax,1)
  200f24:	83 c0 01             	add    $0x1,%eax
  200f27:	83 f8 28             	cmp    $0x28,%eax
  200f2a:	75 d4                	jne    200f00 <printBinarySize+0x40>
  200f2c:	c6 45 f7 00          	movb   $0x0,-0x9(%ebp)
  200f30:	8d 75 d0             	lea    -0x30(%ebp),%esi
  200f33:	83 7d 10 1f          	cmpl   $0x1f,0x10(%ebp)
  200f37:	77 17                	ja     200f50 <printBinarySize+0x90>
  200f39:	b8 27 00 00 00       	mov    $0x27,%eax
  200f3e:	2a 45 10             	sub    0x10(%ebp),%al
  200f41:	89 c2                	mov    %eax,%edx
  200f43:	8b 45 10             	mov    0x10(%ebp),%eax
  200f46:	c1 e8 02             	shr    $0x2,%eax
  200f49:	29 c2                	sub    %eax,%edx
  200f4b:	0f b6 c2             	movzbl %dl,%eax
  200f4e:	01 c6                	add    %eax,%esi
  200f50:	83 ec 0c             	sub    $0xc,%esp
  200f53:	ff 75 0c             	push   0xc(%ebp)
  200f56:	e8 f5 08 00 00       	call   201850 <terminal_writestring>
  200f5b:	c7 04 24 d2 53 20 00 	movl   $0x2053d2,(%esp)
  200f62:	e8 e9 08 00 00       	call   201850 <terminal_writestring>
  200f67:	89 34 24             	mov    %esi,(%esp)
  200f6a:	e8 e1 08 00 00       	call   201850 <terminal_writestring>
  200f6f:	c7 04 24 ba 54 20 00 	movl   $0x2054ba,(%esp)
  200f76:	e8 d5 08 00 00       	call   201850 <terminal_writestring>
  200f7b:	89 1c 24             	mov    %ebx,(%esp)
  200f7e:	e8 7d 0e 00 00       	call   201e00 <print_hex_var>
  200f83:	83 c4 10             	add    $0x10,%esp
  200f86:	8d 65 f8             	lea    -0x8(%ebp),%esp
  200f89:	5b                   	pop    %ebx
  200f8a:	5e                   	pop    %esi
  200f8b:	5d                   	pop    %ebp
  200f8c:	c3                   	ret
  200f8d:	8d 76 00             	lea    0x0(%esi),%esi

00200f90 <binary_size>:
  200f90:	55                   	push   %ebp
  200f91:	89 e5                	mov    %esp,%ebp
  200f93:	8b 55 08             	mov    0x8(%ebp),%edx
  200f96:	5d                   	pop    %ebp
  200f97:	0f bd c2             	bsr    %edx,%eax
  200f9a:	83 c0 01             	add    $0x1,%eax
  200f9d:	85 d2                	test   %edx,%edx
  200f9f:	ba 01 00 00 00       	mov    $0x1,%edx
  200fa4:	0f 44 c2             	cmove  %edx,%eax
  200fa7:	c3                   	ret
  200fa8:	2e 8d b4 26 00 00 00 	lea    %cs:0x0(%esi,%eiz,1),%esi
  200faf:	00 

00200fb0 <hexSize>:
  200fb0:	55                   	push   %ebp
  200fb1:	b8 01 00 00 00       	mov    $0x1,%eax
  200fb6:	89 e5                	mov    %esp,%ebp
  200fb8:	8b 55 08             	mov    0x8(%ebp),%edx
  200fbb:	85 d2                	test   %edx,%edx
  200fbd:	74 14                	je     200fd3 <hexSize+0x23>
  200fbf:	0f bd d2             	bsr    %edx,%edx
  200fc2:	83 c2 01             	add    $0x1,%edx
  200fc5:	89 d0                	mov    %edx,%eax
  200fc7:	c0 e8 02             	shr    $0x2,%al
  200fca:	83 e2 03             	and    $0x3,%edx
  200fcd:	8d 48 01             	lea    0x1(%eax),%ecx
  200fd0:	0f 45 c1             	cmovne %ecx,%eax
  200fd3:	5d                   	pop    %ebp
  200fd4:	c3                   	ret
  200fd5:	2e 8d b4 26 00 00 00 	lea    %cs:0x0(%esi,%eiz,1),%esi
  200fdc:	00 
  200fdd:	8d 76 00             	lea    0x0(%esi),%esi

00200fe0 <max>:
  200fe0:	55                   	push   %ebp
  200fe1:	89 e5                	mov    %esp,%ebp
  200fe3:	0f b6 45 0c          	movzbl 0xc(%ebp),%eax
  200fe7:	0f b6 55 08          	movzbl 0x8(%ebp),%edx
  200feb:	5d                   	pop    %ebp
  200fec:	38 d0                	cmp    %dl,%al
  200fee:	0f 42 c2             	cmovb  %edx,%eax
  200ff1:	c3                   	ret
  200ff2:	2e 8d b4 26 00 00 00 	lea    %cs:0x0(%esi,%eiz,1),%esi
  200ff9:	00 
  200ffa:	8d b6 00 00 00 00    	lea    0x0(%esi),%esi

00201000 <print_binary_var_no_newline>:
  201000:	55                   	push   %ebp
  201001:	89 e5                	mov    %esp,%ebp
  201003:	56                   	push   %esi
  201004:	53                   	push   %ebx
  201005:	8d 45 ce             	lea    -0x32(%ebp),%eax
  201008:	8d 75 ae             	lea    -0x52(%ebp),%esi
  20100b:	83 ec 50             	sub    $0x50,%esp
  20100e:	c6 45 cf 00          	movb   $0x0,-0x31(%ebp)
  201012:	8b 4d 08             	mov    0x8(%ebp),%ecx
  201015:	2e 8d b4 26 00 00 00 	lea    %cs:0x0(%esi,%eiz,1),%esi
  20101c:	00 
  20101d:	8d 76 00             	lea    0x0(%esi),%esi
  201020:	8d 55 ce             	lea    -0x32(%ebp),%edx
  201023:	29 c2                	sub    %eax,%edx
  201025:	0f a3 d1             	bt     %edx,%ecx
  201028:	0f 92 c2             	setb   %dl
  20102b:	83 e8 01             	sub    $0x1,%eax
  20102e:	83 c2 30             	add    $0x30,%edx
  201031:	88 50 01             	mov    %dl,0x1(%eax)
  201034:	39 f0                	cmp    %esi,%eax
  201036:	75 e8                	jne    201020 <print_binary_var_no_newline+0x20>
  201038:	b8 01 00 00 00       	mov    $0x1,%eax
  20103d:	31 f6                	xor    %esi,%esi
  20103f:	90                   	nop
  201040:	69 d8 cd cc cc cc    	imul   $0xcccccccd,%eax,%ebx
  201046:	ba 20 00 00 00       	mov    $0x20,%edx
  20104b:	81 fb 33 33 33 33    	cmp    $0x33333333,%ebx
  201051:	76 0d                	jbe    201060 <print_binary_var_no_newline+0x60>
  201053:	89 f3                	mov    %esi,%ebx
  201055:	83 c6 01             	add    $0x1,%esi
  201058:	0f b6 d3             	movzbl %bl,%edx
  20105b:	0f b6 54 15 af       	movzbl -0x51(%ebp,%edx,1),%edx
  201060:	88 54 05 cf          	mov    %dl,-0x31(%ebp,%eax,1)
  201064:	83 c0 01             	add    $0x1,%eax
  201067:	83 f8 28             	cmp    $0x28,%eax
  20106a:	75 d4                	jne    201040 <print_binary_var_no_newline+0x40>
  20106c:	0f bd c1             	bsr    %ecx,%eax
  20106f:	ba 01 00 00 00       	mov    $0x1,%edx
  201074:	c6 45 f7 00          	movb   $0x0,-0x9(%ebp)
  201078:	83 c0 01             	add    $0x1,%eax
  20107b:	85 c9                	test   %ecx,%ecx
  20107d:	0f 44 c2             	cmove  %edx,%eax
  201080:	0f b6 55 0c          	movzbl 0xc(%ebp),%edx
  201084:	38 d0                	cmp    %dl,%al
  201086:	0f 42 c2             	cmovb  %edx,%eax
  201089:	8d 55 d0             	lea    -0x30(%ebp),%edx
  20108c:	3c 1f                	cmp    $0x1f,%al
  20108e:	77 17                	ja     2010a7 <print_binary_var_no_newline+0xa7>
  201090:	89 c1                	mov    %eax,%ecx
  201092:	c0 e9 02             	shr    $0x2,%cl
  201095:	01 c1                	add    %eax,%ecx
  201097:	a8 03                	test   $0x3,%al
  201099:	75 1f                	jne    2010ba <print_binary_var_no_newline+0xba>
  20109b:	b8 28 00 00 00       	mov    $0x28,%eax
  2010a0:	29 c8                	sub    %ecx,%eax
  2010a2:	0f b6 c0             	movzbl %al,%eax
  2010a5:	01 c2                	add    %eax,%edx
  2010a7:	83 ec 0c             	sub    $0xc,%esp
  2010aa:	52                   	push   %edx
  2010ab:	e8 a0 07 00 00       	call   201850 <terminal_writestring>
  2010b0:	83 c4 10             	add    $0x10,%esp
  2010b3:	8d 65 f8             	lea    -0x8(%ebp),%esp
  2010b6:	5b                   	pop    %ebx
  2010b7:	5e                   	pop    %esi
  2010b8:	5d                   	pop    %ebp
  2010b9:	c3                   	ret
  2010ba:	b8 27 00 00 00       	mov    $0x27,%eax
  2010bf:	29 c8                	sub    %ecx,%eax
  2010c1:	0f b6 c0             	movzbl %al,%eax
  2010c4:	01 c2                	add    %eax,%edx
  2010c6:	eb df                	jmp    2010a7 <print_binary_var_no_newline+0xa7>
  2010c8:	2e 8d b4 26 00 00 00 	lea    %cs:0x0(%esi,%eiz,1),%esi
  2010cf:	00 

002010d0 <print_hex_f>:
  2010d0:	55                   	push   %ebp
  2010d1:	89 e5                	mov    %esp,%ebp
  2010d3:	57                   	push   %edi
  2010d4:	56                   	push   %esi
  2010d5:	53                   	push   %ebx
  2010d6:	83 ec 1c             	sub    $0x1c,%esp
  2010d9:	8b 5d 0c             	mov    0xc(%ebp),%ebx
  2010dc:	8b 75 08             	mov    0x8(%ebp),%esi
  2010df:	80 fb 10             	cmp    $0x10,%bl
  2010e2:	0f 87 0f 01 00 00    	ja     2011f7 <print_hex_f+0x127>
  2010e8:	83 ec 0c             	sub    $0xc,%esp
  2010eb:	56                   	push   %esi
  2010ec:	e8 bf fe ff ff       	call   200fb0 <hexSize>
  2010f1:	83 c4 10             	add    $0x10,%esp
  2010f4:	89 c2                	mov    %eax,%edx
  2010f6:	38 d8                	cmp    %bl,%al
  2010f8:	89 d8                	mov    %ebx,%eax
  2010fa:	0f 43 c2             	cmovae %edx,%eax
  2010fd:	88 55 e0             	mov    %dl,-0x20(%ebp)
  201100:	88 45 e7             	mov    %al,-0x19(%ebp)
  201103:	83 c0 01             	add    $0x1,%eax
  201106:	0f b6 c0             	movzbl %al,%eax
  201109:	83 c0 0f             	add    $0xf,%eax
  20110c:	25 f0 01 00 00       	and    $0x1f0,%eax
  201111:	29 c4                	sub    %eax,%esp
  201113:	89 e7                	mov    %esp,%edi
  201115:	83 ec 04             	sub    $0x4,%esp
  201118:	6a 00                	push   $0x0
  20111a:	57                   	push   %edi
  20111b:	56                   	push   %esi
  20111c:	e8 af f9 ff ff       	call   200ad0 <uint_to_hex>
  201121:	0f b6 55 e0          	movzbl -0x20(%ebp),%edx
  201125:	83 c4 10             	add    $0x10,%esp
  201128:	89 c6                	mov    %eax,%esi
  20112a:	39 c2                	cmp    %eax,%edx
  20112c:	0f 85 b6 00 00 00    	jne    2011e8 <print_hex_f+0x118>
  201132:	83 ec 0c             	sub    $0xc,%esp
  201135:	68 be 54 20 00       	push   $0x2054be
  20113a:	e8 11 07 00 00       	call   201850 <terminal_writestring>
  20113f:	0f b6 45 e7          	movzbl -0x19(%ebp),%eax
  201143:	83 c4 10             	add    $0x10,%esp
  201146:	89 c1                	mov    %eax,%ecx
  201148:	39 f0                	cmp    %esi,%eax
  20114a:	73 54                	jae    2011a0 <print_hex_f+0xd0>
  20114c:	8d 46 ff             	lea    -0x1(%esi),%eax
  20114f:	31 db                	xor    %ebx,%ebx
  201151:	89 45 e0             	mov    %eax,-0x20(%ebp)
  201154:	2e 8d b4 26 00 00 00 	lea    %cs:0x0(%esi,%eiz,1),%esi
  20115b:	00 
  20115c:	8d 74 26 00          	lea    0x0(%esi,%eiz,1),%esi
  201160:	0f be 14 1f          	movsbl (%edi,%ebx,1),%edx
  201164:	83 ec 0c             	sub    $0xc,%esp
  201167:	52                   	push   %edx
  201168:	e8 83 05 00 00       	call   2016f0 <terminal_putchar>
  20116d:	0f b6 55 e7          	movzbl -0x19(%ebp),%edx
  201171:	83 c4 10             	add    $0x10,%esp
  201174:	29 da                	sub    %ebx,%edx
  201176:	83 c2 03             	add    $0x3,%edx
  201179:	83 e2 03             	and    $0x3,%edx
  20117c:	75 12                	jne    201190 <print_hex_f+0xc0>
  20117e:	39 5d e0             	cmp    %ebx,-0x20(%ebp)
  201181:	74 0d                	je     201190 <print_hex_f+0xc0>
  201183:	83 ec 0c             	sub    $0xc,%esp
  201186:	6a 20                	push   $0x20
  201188:	e8 63 05 00 00       	call   2016f0 <terminal_putchar>
  20118d:	83 c4 10             	add    $0x10,%esp
  201190:	83 c3 01             	add    $0x1,%ebx
  201193:	39 de                	cmp    %ebx,%esi
  201195:	75 c9                	jne    201160 <print_hex_f+0x90>
  201197:	8d 65 f4             	lea    -0xc(%ebp),%esp
  20119a:	5b                   	pop    %ebx
  20119b:	5e                   	pop    %esi
  20119c:	5f                   	pop    %edi
  20119d:	5d                   	pop    %ebp
  20119e:	c3                   	ret
  20119f:	90                   	nop
  2011a0:	89 f0                	mov    %esi,%eax
  2011a2:	38 c8                	cmp    %cl,%al
  2011a4:	74 38                	je     2011de <print_hex_f+0x10e>
  2011a6:	8d 59 ff             	lea    -0x1(%ecx),%ebx
  2011a9:	eb 0e                	jmp    2011b9 <print_hex_f+0xe9>
  2011ab:	2e 8d 74 26 00       	lea    %cs:0x0(%esi,%eiz,1),%esi
  2011b0:	89 f0                	mov    %esi,%eax
  2011b2:	38 d8                	cmp    %bl,%al
  2011b4:	74 28                	je     2011de <print_hex_f+0x10e>
  2011b6:	83 eb 01             	sub    $0x1,%ebx
  2011b9:	83 ec 0c             	sub    $0xc,%esp
  2011bc:	6a 30                	push   $0x30
  2011be:	e8 2d 05 00 00       	call   2016f0 <terminal_putchar>
  2011c3:	83 c4 10             	add    $0x10,%esp
  2011c6:	f6 c3 03             	test   $0x3,%bl
  2011c9:	75 e5                	jne    2011b0 <print_hex_f+0xe0>
  2011cb:	83 ec 0c             	sub    $0xc,%esp
  2011ce:	6a 20                	push   $0x20
  2011d0:	e8 1b 05 00 00       	call   2016f0 <terminal_putchar>
  2011d5:	89 f0                	mov    %esi,%eax
  2011d7:	83 c4 10             	add    $0x10,%esp
  2011da:	38 d8                	cmp    %bl,%al
  2011dc:	75 d8                	jne    2011b6 <print_hex_f+0xe6>
  2011de:	89 f0                	mov    %esi,%eax
  2011e0:	88 45 e7             	mov    %al,-0x19(%ebp)
  2011e3:	e9 64 ff ff ff       	jmp    20114c <print_hex_f+0x7c>
  2011e8:	ba 94 00 00 00       	mov    $0x94,%edx
  2011ed:	b8 cc 59 20 00       	mov    $0x2059cc,%eax
  2011f2:	e8 09 fb ff ff       	call   200d00 <assert_handler.part.0.constprop.0>
  2011f7:	ba 8d 00 00 00       	mov    $0x8d,%edx
  2011fc:	b8 a4 59 20 00       	mov    $0x2059a4,%eax
  201201:	e8 fa fa ff ff       	call   200d00 <assert_handler.part.0.constprop.0>
  201206:	66 90                	xchg   %ax,%ax
  201208:	66 90                	xchg   %ax,%ax
  20120a:	66 90                	xchg   %ax,%ax
  20120c:	66 90                	xchg   %ax,%ax
  20120e:	66 90                	xchg   %ax,%ax
  201210:	66 90                	xchg   %ax,%ax
  201212:	66 90                	xchg   %ax,%ax
  201214:	66 90                	xchg   %ax,%ax
  201216:	66 90                	xchg   %ax,%ax
  201218:	66 90                	xchg   %ax,%ax
  20121a:	66 90                	xchg   %ax,%ax
  20121c:	66 90                	xchg   %ax,%ax
  20121e:	66 90                	xchg   %ax,%ax

00201220 <clear_visible_terminal>:
  201220:	55                   	push   %ebp
  201221:	89 e5                	mov    %esp,%ebp
  201223:	57                   	push   %edi
  201224:	31 ff                	xor    %edi,%edi
  201226:	56                   	push   %esi
  201227:	8b 35 10 b0 20 00    	mov    0x20b010,%esi
  20122d:	53                   	push   %ebx
  20122e:	0f b6 1d 0c b0 20 00 	movzbl 0x20b00c,%ebx
  201235:	c1 e3 04             	shl    $0x4,%ebx
  201238:	83 cb 20             	or     $0x20,%ebx
  20123b:	0f b6 db             	movzbl %bl,%ebx
  20123e:	66 90                	xchg   %ax,%ax
  201240:	8d 0c bf             	lea    (%edi,%edi,4),%ecx
  201243:	31 c0                	xor    %eax,%eax
  201245:	c1 e1 04             	shl    $0x4,%ecx
  201248:	2e 8d b4 26 00 00 00 	lea    %cs:0x0(%esi,%eiz,1),%esi
  20124f:	00 
  201250:	8d 14 01             	lea    (%ecx,%eax,1),%edx
  201253:	83 c0 01             	add    $0x1,%eax
  201256:	66 89 1c 56          	mov    %bx,(%esi,%edx,2)
  20125a:	83 f8 50             	cmp    $0x50,%eax
  20125d:	75 f1                	jne    201250 <clear_visible_terminal+0x30>
  20125f:	83 c7 01             	add    $0x1,%edi
  201262:	83 ff 19             	cmp    $0x19,%edi
  201265:	75 d9                	jne    201240 <clear_visible_terminal+0x20>
  201267:	5b                   	pop    %ebx
  201268:	5e                   	pop    %esi
  201269:	5f                   	pop    %edi
  20126a:	5d                   	pop    %ebp
  20126b:	c3                   	ret
  20126c:	8d 74 26 00          	lea    0x0(%esi,%eiz,1),%esi

00201270 <initialize_terminal>:
  201270:	55                   	push   %ebp
  201271:	89 e5                	mov    %esp,%ebp
  201273:	53                   	push   %ebx
  201274:	31 db                	xor    %ebx,%ebx
  201276:	c7 05 00 b0 20 00 00 	movl   $0x0,0x20b000
  20127d:	00 00 00 
  201280:	c7 05 04 b0 20 00 00 	movl   $0x0,0x20b004
  201287:	00 00 00 
  20128a:	c6 05 0c b0 20 00 07 	movb   $0x7,0x20b00c
  201291:	c7 05 10 b0 20 00 00 	movl   $0xb8000,0x20b010
  201298:	80 0b 00 
  20129b:	8d 0c 9b             	lea    (%ebx,%ebx,4),%ecx
  20129e:	31 c0                	xor    %eax,%eax
  2012a0:	c1 e1 04             	shl    $0x4,%ecx
  2012a3:	eb 1b                	jmp    2012c0 <initialize_terminal+0x50>
  2012a5:	2e 8d b4 26 00 00 00 	lea    %cs:0x0(%esi,%eiz,1),%esi
  2012ac:	00 
  2012ad:	2e 8d b4 26 00 00 00 	lea    %cs:0x0(%esi,%eiz,1),%esi
  2012b4:	00 
  2012b5:	2e 8d b4 26 00 00 00 	lea    %cs:0x0(%esi,%eiz,1),%esi
  2012bc:	00 
  2012bd:	8d 76 00             	lea    0x0(%esi),%esi
  2012c0:	8d 14 01             	lea    (%ecx,%eax,1),%edx
  2012c3:	83 c0 01             	add    $0x1,%eax
  2012c6:	66 c7 84 12 00 80 0b 	movw   $0x70,0xb8000(%edx,%edx,1)
  2012cd:	00 70 00 
  2012d0:	83 f8 50             	cmp    $0x50,%eax
  2012d3:	75 eb                	jne    2012c0 <initialize_terminal+0x50>
  2012d5:	83 c3 01             	add    $0x1,%ebx
  2012d8:	83 fb 19             	cmp    $0x19,%ebx
  2012db:	75 be                	jne    20129b <initialize_terminal+0x2b>
  2012dd:	c7 05 08 b0 20 00 00 	movl   $0x0,0x20b008
  2012e4:	00 00 00 
  2012e7:	ba b4 b0 20 00       	mov    $0x20b0b4,%edx
  2012ec:	8d 74 26 00          	lea    0x0(%esi,%eiz,1),%esi
  2012f0:	8d 82 60 ff ff ff    	lea    -0xa0(%edx),%eax
  2012f6:	2e 8d b4 26 00 00 00 	lea    %cs:0x0(%esi,%eiz,1),%esi
  2012fd:	00 
  2012fe:	66 90                	xchg   %ax,%ax
  201300:	b9 20 07 00 00       	mov    $0x720,%ecx
  201305:	bb 20 07 00 00       	mov    $0x720,%ebx
  20130a:	83 c0 04             	add    $0x4,%eax
  20130d:	66 89 48 fc          	mov    %cx,-0x4(%eax)
  201311:	66 89 58 fe          	mov    %bx,-0x2(%eax)
  201315:	39 d0                	cmp    %edx,%eax
  201317:	75 e7                	jne    201300 <initialize_terminal+0x90>
  201319:	8d 90 a0 00 00 00    	lea    0xa0(%eax),%edx
  20131f:	3d 14 21 23 00       	cmp    $0x232114,%eax
  201324:	75 ca                	jne    2012f0 <initialize_terminal+0x80>
  201326:	8b 5d fc             	mov    -0x4(%ebp),%ebx
  201329:	c9                   	leave
  20132a:	c3                   	ret
  20132b:	2e 8d 74 26 00       	lea    %cs:0x0(%esi,%eiz,1),%esi

00201330 <terminal_update_vga_mem>:
  201330:	55                   	push   %ebp
  201331:	89 e5                	mov    %esp,%ebp
  201333:	57                   	push   %edi
  201334:	31 ff                	xor    %edi,%edi
  201336:	56                   	push   %esi
  201337:	53                   	push   %ebx
  201338:	83 ec 04             	sub    $0x4,%esp
  20133b:	a1 08 b0 20 00       	mov    0x20b008,%eax
  201340:	8b 35 10 b0 20 00    	mov    0x20b010,%esi
  201346:	8d 1c 80             	lea    (%eax,%eax,4),%ebx
  201349:	c1 e3 05             	shl    $0x5,%ebx
  20134c:	8d 74 26 00          	lea    0x0(%esi,%eiz,1),%esi
  201350:	89 7d f0             	mov    %edi,-0x10(%ebp)
  201353:	8d 0c bf             	lea    (%edi,%edi,4),%ecx
  201356:	31 c0                	xor    %eax,%eax
  201358:	c1 e1 04             	shl    $0x4,%ecx
  20135b:	2e 8d 74 26 00       	lea    %cs:0x0(%esi,%eiz,1),%esi
  201360:	0f b7 bc 43 14 b0 20 	movzwl 0x20b014(%ebx,%eax,2),%edi
  201367:	00 
  201368:	8d 14 01             	lea    (%ecx,%eax,1),%edx
  20136b:	83 c0 01             	add    $0x1,%eax
  20136e:	66 89 3c 56          	mov    %di,(%esi,%edx,2)
  201372:	83 f8 50             	cmp    $0x50,%eax
  201375:	75 e9                	jne    201360 <terminal_update_vga_mem+0x30>
  201377:	8b 7d f0             	mov    -0x10(%ebp),%edi
  20137a:	81 c3 a0 00 00 00    	add    $0xa0,%ebx
  201380:	83 c7 01             	add    $0x1,%edi
  201383:	83 ff 19             	cmp    $0x19,%edi
  201386:	75 c8                	jne    201350 <terminal_update_vga_mem+0x20>
  201388:	83 c4 04             	add    $0x4,%esp
  20138b:	5b                   	pop    %ebx
  20138c:	5e                   	pop    %esi
  20138d:	5f                   	pop    %edi
  20138e:	5d                   	pop    %ebp
  20138f:	c3                   	ret

00201390 <terminal_set_scroll>:
  201390:	55                   	push   %ebp
  201391:	ba cf 03 00 00       	mov    $0x3cf,%edx
  201396:	89 e5                	mov    %esp,%ebp
  201398:	57                   	push   %edi
  201399:	56                   	push   %esi
  20139a:	53                   	push   %ebx
  20139b:	83 ec 04             	sub    $0x4,%esp
  20139e:	8b 45 08             	mov    0x8(%ebp),%eax
  2013a1:	8b 3d 10 b0 20 00    	mov    0x20b010,%edi
  2013a7:	39 d0                	cmp    %edx,%eax
  2013a9:	0f 47 c2             	cmova  %edx,%eax
  2013ac:	31 f6                	xor    %esi,%esi
  2013ae:	a3 08 b0 20 00       	mov    %eax,0x20b008
  2013b3:	8d 1c 80             	lea    (%eax,%eax,4),%ebx
  2013b6:	c1 e3 05             	shl    $0x5,%ebx
  2013b9:	8d b4 26 00 00 00 00 	lea    0x0(%esi,%eiz,1),%esi
  2013c0:	89 75 f0             	mov    %esi,-0x10(%ebp)
  2013c3:	8d 0c b6             	lea    (%esi,%esi,4),%ecx
  2013c6:	31 c0                	xor    %eax,%eax
  2013c8:	c1 e1 04             	shl    $0x4,%ecx
  2013cb:	2e 8d b4 26 00 00 00 	lea    %cs:0x0(%esi,%eiz,1),%esi
  2013d2:	00 
  2013d3:	2e 8d b4 26 00 00 00 	lea    %cs:0x0(%esi,%eiz,1),%esi
  2013da:	00 
  2013db:	2e 8d 74 26 00       	lea    %cs:0x0(%esi,%eiz,1),%esi
  2013e0:	0f b7 b4 43 14 b0 20 	movzwl 0x20b014(%ebx,%eax,2),%esi
  2013e7:	00 
  2013e8:	8d 14 01             	lea    (%ecx,%eax,1),%edx
  2013eb:	83 c0 01             	add    $0x1,%eax
  2013ee:	66 89 34 57          	mov    %si,(%edi,%edx,2)
  2013f2:	83 f8 50             	cmp    $0x50,%eax
  2013f5:	75 e9                	jne    2013e0 <terminal_set_scroll+0x50>
  2013f7:	8b 75 f0             	mov    -0x10(%ebp),%esi
  2013fa:	81 c3 a0 00 00 00    	add    $0xa0,%ebx
  201400:	83 c6 01             	add    $0x1,%esi
  201403:	83 fe 19             	cmp    $0x19,%esi
  201406:	75 b8                	jne    2013c0 <terminal_set_scroll+0x30>
  201408:	83 c4 04             	add    $0x4,%esp
  20140b:	5b                   	pop    %ebx
  20140c:	5e                   	pop    %esi
  20140d:	5f                   	pop    %edi
  20140e:	5d                   	pop    %ebp
  20140f:	c3                   	ret

00201410 <terminal_scroll_down>:
  201410:	55                   	push   %ebp
  201411:	ba cf 03 00 00       	mov    $0x3cf,%edx
  201416:	89 e5                	mov    %esp,%ebp
  201418:	57                   	push   %edi
  201419:	56                   	push   %esi
  20141a:	53                   	push   %ebx
  20141b:	83 ec 04             	sub    $0x4,%esp
  20141e:	a1 08 b0 20 00       	mov    0x20b008,%eax
  201423:	03 45 08             	add    0x8(%ebp),%eax
  201426:	39 d0                	cmp    %edx,%eax
  201428:	8b 3d 10 b0 20 00    	mov    0x20b010,%edi
  20142e:	0f 47 c2             	cmova  %edx,%eax
  201431:	31 f6                	xor    %esi,%esi
  201433:	a3 08 b0 20 00       	mov    %eax,0x20b008
  201438:	8d 1c 80             	lea    (%eax,%eax,4),%ebx
  20143b:	c1 e3 05             	shl    $0x5,%ebx
  20143e:	66 90                	xchg   %ax,%ax
  201440:	89 75 f0             	mov    %esi,-0x10(%ebp)
  201443:	8d 0c b6             	lea    (%esi,%esi,4),%ecx
  201446:	31 c0                	xor    %eax,%eax
  201448:	c1 e1 04             	shl    $0x4,%ecx
  20144b:	2e 8d b4 26 00 00 00 	lea    %cs:0x0(%esi,%eiz,1),%esi
  201452:	00 
  201453:	2e 8d b4 26 00 00 00 	lea    %cs:0x0(%esi,%eiz,1),%esi
  20145a:	00 
  20145b:	2e 8d 74 26 00       	lea    %cs:0x0(%esi,%eiz,1),%esi
  201460:	0f b7 b4 43 14 b0 20 	movzwl 0x20b014(%ebx,%eax,2),%esi
  201467:	00 
  201468:	8d 14 01             	lea    (%ecx,%eax,1),%edx
  20146b:	83 c0 01             	add    $0x1,%eax
  20146e:	66 89 34 57          	mov    %si,(%edi,%edx,2)
  201472:	83 f8 50             	cmp    $0x50,%eax
  201475:	75 e9                	jne    201460 <terminal_scroll_down+0x50>
  201477:	8b 75 f0             	mov    -0x10(%ebp),%esi
  20147a:	81 c3 a0 00 00 00    	add    $0xa0,%ebx
  201480:	83 c6 01             	add    $0x1,%esi
  201483:	83 fe 19             	cmp    $0x19,%esi
  201486:	75 b8                	jne    201440 <terminal_scroll_down+0x30>
  201488:	83 c4 04             	add    $0x4,%esp
  20148b:	5b                   	pop    %ebx
  20148c:	5e                   	pop    %esi
  20148d:	5f                   	pop    %edi
  20148e:	5d                   	pop    %ebp
  20148f:	c3                   	ret

00201490 <terminal_setcolor>:
  201490:	55                   	push   %ebp
  201491:	89 e5                	mov    %esp,%ebp
  201493:	8b 45 08             	mov    0x8(%ebp),%eax
  201496:	5d                   	pop    %ebp
  201497:	a2 0c b0 20 00       	mov    %al,0x20b00c
  20149c:	c3                   	ret
  20149d:	8d 76 00             	lea    0x0(%esi),%esi

002014a0 <terminal_putentryat>:
  2014a0:	55                   	push   %ebp
  2014a1:	89 e5                	mov    %esp,%ebp
  2014a3:	56                   	push   %esi
  2014a4:	8b 45 14             	mov    0x14(%ebp),%eax
  2014a7:	8b 4d 10             	mov    0x10(%ebp),%ecx
  2014aa:	53                   	push   %ebx
  2014ab:	0f b6 75 08          	movzbl 0x8(%ebp),%esi
  2014af:	8d 14 80             	lea    (%eax,%eax,4),%edx
  2014b2:	c1 e2 04             	shl    $0x4,%edx
  2014b5:	8d 5c 11 08          	lea    0x8(%ecx,%edx,1),%ebx
  2014b9:	0f b6 55 0c          	movzbl 0xc(%ebp),%edx
  2014bd:	c1 e2 08             	shl    $0x8,%edx
  2014c0:	09 f2                	or     %esi,%edx
  2014c2:	66 89 94 1b 04 b0 20 	mov    %dx,0x20b004(%ebx,%ebx,1)
  2014c9:	00 
  2014ca:	8b 1d 08 b0 20 00    	mov    0x20b008,%ebx
  2014d0:	89 c2                	mov    %eax,%edx
  2014d2:	29 da                	sub    %ebx,%edx
  2014d4:	83 fa 18             	cmp    $0x18,%edx
  2014d7:	77 2c                	ja     201505 <terminal_putentryat+0x65>
  2014d9:	29 d8                	sub    %ebx,%eax
  2014db:	8d 14 92             	lea    (%edx,%edx,4),%edx
  2014de:	0f b6 c0             	movzbl %al,%eax
  2014e1:	c1 e2 04             	shl    $0x4,%edx
  2014e4:	8d 04 80             	lea    (%eax,%eax,4),%eax
  2014e7:	8d 54 11 08          	lea    0x8(%ecx,%edx,1),%edx
  2014eb:	0f b6 c9             	movzbl %cl,%ecx
  2014ee:	c1 e0 04             	shl    $0x4,%eax
  2014f1:	0f b7 94 12 04 b0 20 	movzwl 0x20b004(%edx,%edx,1),%edx
  2014f8:	00 
  2014f9:	01 c8                	add    %ecx,%eax
  2014fb:	8b 0d 10 b0 20 00    	mov    0x20b010,%ecx
  201501:	66 89 14 41          	mov    %dx,(%ecx,%eax,2)
  201505:	5b                   	pop    %ebx
  201506:	5e                   	pop    %esi
  201507:	5d                   	pop    %ebp
  201508:	c3                   	ret
  201509:	8d b4 26 00 00 00 00 	lea    0x0(%esi,%eiz,1),%esi

00201510 <terminal_increase_row>:
  201510:	55                   	push   %ebp
  201511:	89 e5                	mov    %esp,%ebp
  201513:	57                   	push   %edi
  201514:	56                   	push   %esi
  201515:	53                   	push   %ebx
  201516:	83 ec 08             	sub    $0x8,%esp
  201519:	a1 00 b0 20 00       	mov    0x20b000,%eax
  20151e:	8b 15 08 b0 20 00    	mov    0x20b008,%edx
  201524:	c7 05 04 b0 20 00 00 	movl   $0x0,0x20b004
  20152b:	00 00 00 
  20152e:	83 c0 01             	add    $0x1,%eax
  201531:	89 c1                	mov    %eax,%ecx
  201533:	a3 00 b0 20 00       	mov    %eax,0x20b000
  201538:	29 d1                	sub    %edx,%ecx
  20153a:	83 f9 19             	cmp    $0x19,%ecx
  20153d:	77 13                	ja     201552 <terminal_increase_row+0x42>
  20153f:	3d e7 03 00 00       	cmp    $0x3e7,%eax
  201544:	0f 87 8c 00 00 00    	ja     2015d6 <terminal_increase_row+0xc6>
  20154a:	83 c4 08             	add    $0x8,%esp
  20154d:	5b                   	pop    %ebx
  20154e:	5e                   	pop    %esi
  20154f:	5f                   	pop    %edi
  201550:	5d                   	pop    %ebp
  201551:	c3                   	ret
  201552:	83 c2 01             	add    $0x1,%edx
  201555:	b9 cf 03 00 00       	mov    $0x3cf,%ecx
  20155a:	89 45 ec             	mov    %eax,-0x14(%ebp)
  20155d:	8b 3d 10 b0 20 00    	mov    0x20b010,%edi
  201563:	39 ca                	cmp    %ecx,%edx
  201565:	0f 47 d1             	cmova  %ecx,%edx
  201568:	31 db                	xor    %ebx,%ebx
  20156a:	89 15 08 b0 20 00    	mov    %edx,0x20b008
  201570:	8d 34 92             	lea    (%edx,%edx,4),%esi
  201573:	c1 e6 05             	shl    $0x5,%esi
  201576:	2e 8d b4 26 00 00 00 	lea    %cs:0x0(%esi,%eiz,1),%esi
  20157d:	00 
  20157e:	66 90                	xchg   %ax,%ax
  201580:	89 5d f0             	mov    %ebx,-0x10(%ebp)
  201583:	8d 14 9b             	lea    (%ebx,%ebx,4),%edx
  201586:	31 c0                	xor    %eax,%eax
  201588:	c1 e2 04             	shl    $0x4,%edx
  20158b:	2e 8d b4 26 00 00 00 	lea    %cs:0x0(%esi,%eiz,1),%esi
  201592:	00 
  201593:	2e 8d b4 26 00 00 00 	lea    %cs:0x0(%esi,%eiz,1),%esi
  20159a:	00 
  20159b:	2e 8d 74 26 00       	lea    %cs:0x0(%esi,%eiz,1),%esi
  2015a0:	0f b7 9c 46 14 b0 20 	movzwl 0x20b014(%esi,%eax,2),%ebx
  2015a7:	00 
  2015a8:	8d 0c 02             	lea    (%edx,%eax,1),%ecx
  2015ab:	83 c0 01             	add    $0x1,%eax
  2015ae:	66 89 1c 4f          	mov    %bx,(%edi,%ecx,2)
  2015b2:	83 f8 50             	cmp    $0x50,%eax
  2015b5:	75 e9                	jne    2015a0 <terminal_increase_row+0x90>
  2015b7:	8b 5d f0             	mov    -0x10(%ebp),%ebx
  2015ba:	81 c6 a0 00 00 00    	add    $0xa0,%esi
  2015c0:	83 c3 01             	add    $0x1,%ebx
  2015c3:	83 fb 19             	cmp    $0x19,%ebx
  2015c6:	75 b8                	jne    201580 <terminal_increase_row+0x70>
  2015c8:	8b 45 ec             	mov    -0x14(%ebp),%eax
  2015cb:	3d e7 03 00 00       	cmp    $0x3e7,%eax
  2015d0:	0f 86 74 ff ff ff    	jbe    20154a <terminal_increase_row+0x3a>
  2015d6:	c7 05 00 b0 20 00 00 	movl   $0x0,0x20b000
  2015dd:	00 00 00 
  2015e0:	8b 0d 10 b0 20 00    	mov    0x20b010,%ecx
  2015e6:	31 ff                	xor    %edi,%edi
  2015e8:	31 f6                	xor    %esi,%esi
  2015ea:	c7 05 04 b0 20 00 00 	movl   $0x0,0x20b004
  2015f1:	00 00 00 
  2015f4:	c7 05 08 b0 20 00 00 	movl   $0x0,0x20b008
  2015fb:	00 00 00 
  2015fe:	66 90                	xchg   %ax,%ax
  201600:	89 75 f0             	mov    %esi,-0x10(%ebp)
  201603:	8d 14 b6             	lea    (%esi,%esi,4),%edx
  201606:	31 c0                	xor    %eax,%eax
  201608:	c1 e2 04             	shl    $0x4,%edx
  20160b:	2e 8d b4 26 00 00 00 	lea    %cs:0x0(%esi,%eiz,1),%esi
  201612:	00 
  201613:	2e 8d b4 26 00 00 00 	lea    %cs:0x0(%esi,%eiz,1),%esi
  20161a:	00 
  20161b:	2e 8d 74 26 00       	lea    %cs:0x0(%esi,%eiz,1),%esi
  201620:	0f b7 b4 47 14 b0 20 	movzwl 0x20b014(%edi,%eax,2),%esi
  201627:	00 
  201628:	8d 1c 02             	lea    (%edx,%eax,1),%ebx
  20162b:	83 c0 01             	add    $0x1,%eax
  20162e:	66 89 34 59          	mov    %si,(%ecx,%ebx,2)
  201632:	83 f8 50             	cmp    $0x50,%eax
  201635:	75 e9                	jne    201620 <terminal_increase_row+0x110>
  201637:	8b 75 f0             	mov    -0x10(%ebp),%esi
  20163a:	81 c7 a0 00 00 00    	add    $0xa0,%edi
  201640:	83 c6 01             	add    $0x1,%esi
  201643:	83 fe 19             	cmp    $0x19,%esi
  201646:	75 b8                	jne    201600 <terminal_increase_row+0xf0>
  201648:	0f b6 05 0c b0 20 00 	movzbl 0x20b00c,%eax
  20164f:	31 db                	xor    %ebx,%ebx
  201651:	c1 e0 04             	shl    $0x4,%eax
  201654:	83 c8 20             	or     $0x20,%eax
  201657:	0f b6 f0             	movzbl %al,%esi
  20165a:	8d b6 00 00 00 00    	lea    0x0(%esi),%esi
  201660:	8d 14 9b             	lea    (%ebx,%ebx,4),%edx
  201663:	31 c0                	xor    %eax,%eax
  201665:	c1 e2 04             	shl    $0x4,%edx
  201668:	2e 8d b4 26 00 00 00 	lea    %cs:0x0(%esi,%eiz,1),%esi
  20166f:	00 
  201670:	8d 3c 02             	lea    (%edx,%eax,1),%edi
  201673:	83 c0 01             	add    $0x1,%eax
  201676:	66 89 34 79          	mov    %si,(%ecx,%edi,2)
  20167a:	83 f8 50             	cmp    $0x50,%eax
  20167d:	75 f1                	jne    201670 <terminal_increase_row+0x160>
  20167f:	83 c3 01             	add    $0x1,%ebx
  201682:	83 fb 19             	cmp    $0x19,%ebx
  201685:	75 d9                	jne    201660 <terminal_increase_row+0x150>
  201687:	83 c4 08             	add    $0x8,%esp
  20168a:	5b                   	pop    %ebx
  20168b:	5e                   	pop    %esi
  20168c:	5f                   	pop    %edi
  20168d:	5d                   	pop    %ebp
  20168e:	c3                   	ret
  20168f:	90                   	nop

00201690 <serial_write_char>:
  201690:	55                   	push   %ebp
  201691:	ba fd 03 00 00       	mov    $0x3fd,%edx
  201696:	89 e5                	mov    %esp,%ebp
  201698:	0f b6 4d 08          	movzbl 0x8(%ebp),%ecx
  20169c:	8d 74 26 00          	lea    0x0(%esi,%eiz,1),%esi
  2016a0:	ec                   	in     (%dx),%al
  2016a1:	a8 20                	test   $0x20,%al
  2016a3:	74 fb                	je     2016a0 <serial_write_char+0x10>
  2016a5:	ba f8 03 00 00       	mov    $0x3f8,%edx
  2016aa:	89 c8                	mov    %ecx,%eax
  2016ac:	ee                   	out    %al,(%dx)
  2016ad:	5d                   	pop    %ebp
  2016ae:	c3                   	ret
  2016af:	90                   	nop

002016b0 <serial_write_string>:
  2016b0:	55                   	push   %ebp
  2016b1:	89 e5                	mov    %esp,%ebp
  2016b3:	57                   	push   %edi
  2016b4:	56                   	push   %esi
  2016b5:	8b 75 08             	mov    0x8(%ebp),%esi
  2016b8:	53                   	push   %ebx
  2016b9:	0f b6 1e             	movzbl (%esi),%ebx
  2016bc:	84 db                	test   %bl,%bl
  2016be:	74 29                	je     2016e9 <serial_write_string+0x39>
  2016c0:	83 c6 01             	add    $0x1,%esi
  2016c3:	2e 8d b4 26 00 00 00 	lea    %cs:0x0(%esi,%eiz,1),%esi
  2016ca:	00 
  2016cb:	2e 8d 74 26 00       	lea    %cs:0x0(%esi,%eiz,1),%esi
  2016d0:	ba fd 03 00 00       	mov    $0x3fd,%edx
  2016d5:	ec                   	in     (%dx),%al
  2016d6:	a8 20                	test   $0x20,%al
  2016d8:	74 f6                	je     2016d0 <serial_write_string+0x20>
  2016da:	89 d8                	mov    %ebx,%eax
  2016dc:	ba f8 03 00 00       	mov    $0x3f8,%edx
  2016e1:	ee                   	out    %al,(%dx)
  2016e2:	0f b6 1e             	movzbl (%esi),%ebx
  2016e5:	84 db                	test   %bl,%bl
  2016e7:	75 d7                	jne    2016c0 <serial_write_string+0x10>
  2016e9:	5b                   	pop    %ebx
  2016ea:	5e                   	pop    %esi
  2016eb:	5f                   	pop    %edi
  2016ec:	5d                   	pop    %ebp
  2016ed:	c3                   	ret
  2016ee:	66 90                	xchg   %ax,%ax

002016f0 <terminal_putchar>:
  2016f0:	55                   	push   %ebp
  2016f1:	89 e5                	mov    %esp,%ebp
  2016f3:	56                   	push   %esi
  2016f4:	53                   	push   %ebx
  2016f5:	8b 4d 08             	mov    0x8(%ebp),%ecx
  2016f8:	84 c9                	test   %cl,%cl
  2016fa:	0f 84 a3 00 00 00    	je     2017a3 <terminal_putchar+0xb3>
  201700:	89 cb                	mov    %ecx,%ebx
  201702:	ba fd 03 00 00       	mov    $0x3fd,%edx
  201707:	2e 8d b4 26 00 00 00 	lea    %cs:0x0(%esi,%eiz,1),%esi
  20170e:	00 
  20170f:	90                   	nop
  201710:	ec                   	in     (%dx),%al
  201711:	a8 20                	test   $0x20,%al
  201713:	74 fb                	je     201710 <terminal_putchar+0x20>
  201715:	ba f8 03 00 00       	mov    $0x3f8,%edx
  20171a:	89 d8                	mov    %ebx,%eax
  20171c:	ee                   	out    %al,(%dx)
  20171d:	80 f9 0a             	cmp    $0xa,%cl
  201720:	0f 84 ca 00 00 00    	je     2017f0 <terminal_putchar+0x100>
  201726:	a1 04 b0 20 00       	mov    0x20b004,%eax
  20172b:	80 f9 09             	cmp    $0x9,%cl
  20172e:	0f 84 7c 00 00 00    	je     2017b0 <terminal_putchar+0xc0>
  201734:	8b 15 00 b0 20 00    	mov    0x20b000,%edx
  20173a:	0f b6 35 0c b0 20 00 	movzbl 0x20b00c,%esi
  201741:	0f b6 c9             	movzbl %cl,%ecx
  201744:	8d 1c 92             	lea    (%edx,%edx,4),%ebx
  201747:	c1 e6 08             	shl    $0x8,%esi
  20174a:	c1 e3 04             	shl    $0x4,%ebx
  20174d:	09 f1                	or     %esi,%ecx
  20174f:	8d 5c 18 08          	lea    0x8(%eax,%ebx,1),%ebx
  201753:	66 89 8c 1b 04 b0 20 	mov    %cx,0x20b004(%ebx,%ebx,1)
  20175a:	00 
  20175b:	8b 1d 08 b0 20 00    	mov    0x20b008,%ebx
  201761:	89 d1                	mov    %edx,%ecx
  201763:	29 d9                	sub    %ebx,%ecx
  201765:	83 f9 18             	cmp    $0x18,%ecx
  201768:	77 2c                	ja     201796 <terminal_putchar+0xa6>
  20176a:	29 da                	sub    %ebx,%edx
  20176c:	8d 0c 89             	lea    (%ecx,%ecx,4),%ecx
  20176f:	0f b6 d8             	movzbl %al,%ebx
  201772:	0f b6 d2             	movzbl %dl,%edx
  201775:	c1 e1 04             	shl    $0x4,%ecx
  201778:	8d 14 92             	lea    (%edx,%edx,4),%edx
  20177b:	8d 4c 08 08          	lea    0x8(%eax,%ecx,1),%ecx
  20177f:	c1 e2 04             	shl    $0x4,%edx
  201782:	0f b7 8c 09 04 b0 20 	movzwl 0x20b004(%ecx,%ecx,1),%ecx
  201789:	00 
  20178a:	01 da                	add    %ebx,%edx
  20178c:	8b 1d 10 b0 20 00    	mov    0x20b010,%ebx
  201792:	66 89 0c 53          	mov    %cx,(%ebx,%edx,2)
  201796:	83 c0 01             	add    $0x1,%eax
  201799:	a3 04 b0 20 00       	mov    %eax,0x20b004
  20179e:	83 f8 50             	cmp    $0x50,%eax
  2017a1:	74 4d                	je     2017f0 <terminal_putchar+0x100>
  2017a3:	8d 65 f8             	lea    -0x8(%ebp),%esp
  2017a6:	5b                   	pop    %ebx
  2017a7:	5e                   	pop    %esi
  2017a8:	5d                   	pop    %ebp
  2017a9:	c3                   	ret
  2017aa:	8d b6 00 00 00 00    	lea    0x0(%esi),%esi
  2017b0:	8d 50 b3             	lea    -0x4d(%eax),%edx
  2017b3:	80 fa 03             	cmp    $0x3,%dl
  2017b6:	77 30                	ja     2017e8 <terminal_putchar+0xf8>
  2017b8:	3c 50                	cmp    $0x50,%al
  2017ba:	74 e7                	je     2017a3 <terminal_putchar+0xb3>
  2017bc:	ba 50 00 00 00       	mov    $0x50,%edx
  2017c1:	29 c2                	sub    %eax,%edx
  2017c3:	89 d6                	mov    %edx,%esi
  2017c5:	31 db                	xor    %ebx,%ebx
  2017c7:	83 ec 0c             	sub    $0xc,%esp
  2017ca:	83 c3 01             	add    $0x1,%ebx
  2017cd:	6a 20                	push   $0x20
  2017cf:	e8 1c ff ff ff       	call   2016f0 <terminal_putchar>
  2017d4:	89 f0                	mov    %esi,%eax
  2017d6:	83 c4 10             	add    $0x10,%esp
  2017d9:	38 c3                	cmp    %al,%bl
  2017db:	72 ea                	jb     2017c7 <terminal_putchar+0xd7>
  2017dd:	8d 65 f8             	lea    -0x8(%ebp),%esp
  2017e0:	5b                   	pop    %ebx
  2017e1:	5e                   	pop    %esi
  2017e2:	5d                   	pop    %ebp
  2017e3:	c3                   	ret
  2017e4:	8d 74 26 00          	lea    0x0(%esi,%eiz,1),%esi
  2017e8:	be 04 00 00 00       	mov    $0x4,%esi
  2017ed:	eb d6                	jmp    2017c5 <terminal_putchar+0xd5>
  2017ef:	90                   	nop
  2017f0:	c7 05 04 b0 20 00 00 	movl   $0x0,0x20b004
  2017f7:	00 00 00 
  2017fa:	8d 65 f8             	lea    -0x8(%ebp),%esp
  2017fd:	5b                   	pop    %ebx
  2017fe:	5e                   	pop    %esi
  2017ff:	5d                   	pop    %ebp
  201800:	e9 0b fd ff ff       	jmp    201510 <terminal_increase_row>
  201805:	2e 8d b4 26 00 00 00 	lea    %cs:0x0(%esi,%eiz,1),%esi
  20180c:	00 
  20180d:	8d 76 00             	lea    0x0(%esi),%esi

00201810 <terminal_write>:
  201810:	55                   	push   %ebp
  201811:	89 e5                	mov    %esp,%ebp
  201813:	56                   	push   %esi
  201814:	53                   	push   %ebx
  201815:	8b 75 0c             	mov    0xc(%ebp),%esi
  201818:	85 f6                	test   %esi,%esi
  20181a:	74 2a                	je     201846 <terminal_write+0x36>
  20181c:	8b 5d 08             	mov    0x8(%ebp),%ebx
  20181f:	01 de                	add    %ebx,%esi
  201821:	2e 8d b4 26 00 00 00 	lea    %cs:0x0(%esi,%eiz,1),%esi
  201828:	00 
  201829:	8d b4 26 00 00 00 00 	lea    0x0(%esi,%eiz,1),%esi
  201830:	0f be 03             	movsbl (%ebx),%eax
  201833:	83 ec 0c             	sub    $0xc,%esp
  201836:	83 c3 01             	add    $0x1,%ebx
  201839:	50                   	push   %eax
  20183a:	e8 b1 fe ff ff       	call   2016f0 <terminal_putchar>
  20183f:	83 c4 10             	add    $0x10,%esp
  201842:	39 f3                	cmp    %esi,%ebx
  201844:	75 ea                	jne    201830 <terminal_write+0x20>
  201846:	8d 65 f8             	lea    -0x8(%ebp),%esp
  201849:	5b                   	pop    %ebx
  20184a:	5e                   	pop    %esi
  20184b:	5d                   	pop    %ebp
  20184c:	c3                   	ret
  20184d:	8d 76 00             	lea    0x0(%esi),%esi

00201850 <terminal_writestring>:
  201850:	55                   	push   %ebp
  201851:	89 e5                	mov    %esp,%ebp
  201853:	56                   	push   %esi
  201854:	53                   	push   %ebx
  201855:	8b 5d 08             	mov    0x8(%ebp),%ebx
  201858:	83 ec 0c             	sub    $0xc,%esp
  20185b:	53                   	push   %ebx
  20185c:	e8 5f ef ff ff       	call   2007c0 <strlen>
  201861:	83 c4 10             	add    $0x10,%esp
  201864:	85 c0                	test   %eax,%eax
  201866:	74 1e                	je     201886 <terminal_writestring+0x36>
  201868:	8d 34 03             	lea    (%ebx,%eax,1),%esi
  20186b:	2e 8d 74 26 00       	lea    %cs:0x0(%esi,%eiz,1),%esi
  201870:	0f be 03             	movsbl (%ebx),%eax
  201873:	83 ec 0c             	sub    $0xc,%esp
  201876:	83 c3 01             	add    $0x1,%ebx
  201879:	50                   	push   %eax
  20187a:	e8 71 fe ff ff       	call   2016f0 <terminal_putchar>
  20187f:	83 c4 10             	add    $0x10,%esp
  201882:	39 f3                	cmp    %esi,%ebx
  201884:	75 ea                	jne    201870 <terminal_writestring+0x20>
  201886:	8d 65 f8             	lea    -0x8(%ebp),%esp
  201889:	5b                   	pop    %ebx
  20188a:	5e                   	pop    %esi
  20188b:	5d                   	pop    %ebp
  20188c:	c3                   	ret
  20188d:	8d 76 00             	lea    0x0(%esi),%esi

00201890 <print_array_terminal>:
  201890:	55                   	push   %ebp
  201891:	89 e5                	mov    %esp,%ebp
  201893:	57                   	push   %edi
  201894:	56                   	push   %esi
  201895:	53                   	push   %ebx
  201896:	83 ec 38             	sub    $0x38,%esp
  201899:	68 ca 54 20 00       	push   $0x2054ca
  20189e:	e8 1d ef ff ff       	call   2007c0 <strlen>
  2018a3:	83 c4 10             	add    $0x10,%esp
  2018a6:	85 c0                	test   %eax,%eax
  2018a8:	74 2c                	je     2018d6 <print_array_terminal+0x46>
  2018aa:	be ca 54 20 00       	mov    $0x2054ca,%esi
  2018af:	8d 1c 30             	lea    (%eax,%esi,1),%ebx
  2018b2:	2e 8d b4 26 00 00 00 	lea    %cs:0x0(%esi,%eiz,1),%esi
  2018b9:	00 
  2018ba:	8d b6 00 00 00 00    	lea    0x0(%esi),%esi
  2018c0:	0f be 06             	movsbl (%esi),%eax
  2018c3:	83 ec 0c             	sub    $0xc,%esp
  2018c6:	83 c6 01             	add    $0x1,%esi
  2018c9:	50                   	push   %eax
  2018ca:	e8 21 fe ff ff       	call   2016f0 <terminal_putchar>
  2018cf:	83 c4 10             	add    $0x10,%esp
  2018d2:	39 de                	cmp    %ebx,%esi
  2018d4:	75 ea                	jne    2018c0 <print_array_terminal+0x30>
  2018d6:	8b 45 0c             	mov    0xc(%ebp),%eax
  2018d9:	31 db                	xor    %ebx,%ebx
  2018db:	8d 48 ff             	lea    -0x1(%eax),%ecx
  2018de:	85 c0                	test   %eax,%eax
  2018e0:	0f 84 ab 00 00 00    	je     201991 <print_array_terminal+0x101>
  2018e6:	89 4d d4             	mov    %ecx,-0x2c(%ebp)
  2018e9:	8d b4 26 00 00 00 00 	lea    0x0(%esi,%eiz,1),%esi
  2018f0:	83 ec 08             	sub    $0x8,%esp
  2018f3:	8d 45 dc             	lea    -0x24(%ebp),%eax
  2018f6:	8d 75 dc             	lea    -0x24(%ebp),%esi
  2018f9:	50                   	push   %eax
  2018fa:	8b 45 08             	mov    0x8(%ebp),%eax
  2018fd:	ff 34 98             	push   (%eax,%ebx,4)
  201900:	e8 db ee ff ff       	call   2007e0 <itoa>
  201905:	8d 45 dc             	lea    -0x24(%ebp),%eax
  201908:	89 04 24             	mov    %eax,(%esp)
  20190b:	e8 b0 ee ff ff       	call   2007c0 <strlen>
  201910:	83 c4 10             	add    $0x10,%esp
  201913:	8d 3c 06             	lea    (%esi,%eax,1),%edi
  201916:	85 c0                	test   %eax,%eax
  201918:	74 1c                	je     201936 <print_array_terminal+0xa6>
  20191a:	8d b6 00 00 00 00    	lea    0x0(%esi),%esi
  201920:	0f be 06             	movsbl (%esi),%eax
  201923:	83 ec 0c             	sub    $0xc,%esp
  201926:	83 c6 01             	add    $0x1,%esi
  201929:	50                   	push   %eax
  20192a:	e8 c1 fd ff ff       	call   2016f0 <terminal_putchar>
  20192f:	83 c4 10             	add    $0x10,%esp
  201932:	39 f7                	cmp    %esi,%edi
  201934:	75 ea                	jne    201920 <print_array_terminal+0x90>
  201936:	39 5d d4             	cmp    %ebx,-0x2c(%ebp)
  201939:	74 3b                	je     201976 <print_array_terminal+0xe6>
  20193b:	83 ec 0c             	sub    $0xc,%esp
  20193e:	68 c4 54 20 00       	push   $0x2054c4
  201943:	e8 78 ee ff ff       	call   2007c0 <strlen>
  201948:	83 c4 10             	add    $0x10,%esp
  20194b:	85 c0                	test   %eax,%eax
  20194d:	74 27                	je     201976 <print_array_terminal+0xe6>
  20194f:	bf c4 54 20 00       	mov    $0x2054c4,%edi
  201954:	8d 34 38             	lea    (%eax,%edi,1),%esi
  201957:	2e 8d b4 26 00 00 00 	lea    %cs:0x0(%esi,%eiz,1),%esi
  20195e:	00 
  20195f:	90                   	nop
  201960:	0f be 07             	movsbl (%edi),%eax
  201963:	83 ec 0c             	sub    $0xc,%esp
  201966:	83 c7 01             	add    $0x1,%edi
  201969:	50                   	push   %eax
  20196a:	e8 81 fd ff ff       	call   2016f0 <terminal_putchar>
  20196f:	83 c4 10             	add    $0x10,%esp
  201972:	39 f7                	cmp    %esi,%edi
  201974:	75 ea                	jne    201960 <print_array_terminal+0xd0>
  201976:	83 c3 01             	add    $0x1,%ebx
  201979:	69 c3 cd cc cc cc    	imul   $0xcccccccd,%ebx,%eax
  20197f:	d1 c8                	ror    $1,%eax
  201981:	3d 99 99 99 19       	cmp    $0x19999999,%eax
  201986:	76 48                	jbe    2019d0 <print_array_terminal+0x140>
  201988:	3b 5d 0c             	cmp    0xc(%ebp),%ebx
  20198b:	0f 85 5f ff ff ff    	jne    2018f0 <print_array_terminal+0x60>
  201991:	83 ec 0c             	sub    $0xc,%esp
  201994:	bb c1 54 20 00       	mov    $0x2054c1,%ebx
  201999:	68 c1 54 20 00       	push   $0x2054c1
  20199e:	e8 1d ee ff ff       	call   2007c0 <strlen>
  2019a3:	83 c4 10             	add    $0x10,%esp
  2019a6:	8d 34 18             	lea    (%eax,%ebx,1),%esi
  2019a9:	85 c0                	test   %eax,%eax
  2019ab:	74 19                	je     2019c6 <print_array_terminal+0x136>
  2019ad:	8d 76 00             	lea    0x0(%esi),%esi
  2019b0:	0f be 03             	movsbl (%ebx),%eax
  2019b3:	83 ec 0c             	sub    $0xc,%esp
  2019b6:	83 c3 01             	add    $0x1,%ebx
  2019b9:	50                   	push   %eax
  2019ba:	e8 31 fd ff ff       	call   2016f0 <terminal_putchar>
  2019bf:	83 c4 10             	add    $0x10,%esp
  2019c2:	39 de                	cmp    %ebx,%esi
  2019c4:	75 ea                	jne    2019b0 <print_array_terminal+0x120>
  2019c6:	8d 65 f4             	lea    -0xc(%ebp),%esp
  2019c9:	5b                   	pop    %ebx
  2019ca:	5e                   	pop    %esi
  2019cb:	5f                   	pop    %edi
  2019cc:	5d                   	pop    %ebp
  2019cd:	c3                   	ret
  2019ce:	66 90                	xchg   %ax,%ax
  2019d0:	83 ec 0c             	sub    $0xc,%esp
  2019d3:	68 22 54 20 00       	push   $0x205422
  2019d8:	e8 e3 ed ff ff       	call   2007c0 <strlen>
  2019dd:	83 c4 10             	add    $0x10,%esp
  2019e0:	85 c0                	test   %eax,%eax
  2019e2:	74 22                	je     201a06 <print_array_terminal+0x176>
  2019e4:	bf 22 54 20 00       	mov    $0x205422,%edi
  2019e9:	8d 34 38             	lea    (%eax,%edi,1),%esi
  2019ec:	8d 74 26 00          	lea    0x0(%esi,%eiz,1),%esi
  2019f0:	0f be 07             	movsbl (%edi),%eax
  2019f3:	83 ec 0c             	sub    $0xc,%esp
  2019f6:	83 c7 01             	add    $0x1,%edi
  2019f9:	50                   	push   %eax
  2019fa:	e8 f1 fc ff ff       	call   2016f0 <terminal_putchar>
  2019ff:	83 c4 10             	add    $0x10,%esp
  201a02:	39 fe                	cmp    %edi,%esi
  201a04:	75 ea                	jne    2019f0 <print_array_terminal+0x160>
  201a06:	83 ec 0c             	sub    $0xc,%esp
  201a09:	68 cd cc cc 3d       	push   $0x3dcccccd
  201a0e:	e8 4d 1b 00 00       	call   203560 <wait>
  201a13:	83 c4 10             	add    $0x10,%esp
  201a16:	e9 6d ff ff ff       	jmp    201988 <print_array_terminal+0xf8>
  201a1b:	2e 8d 74 26 00       	lea    %cs:0x0(%esi,%eiz,1),%esi

00201a20 <terminal_write_uint16_array>:
  201a20:	55                   	push   %ebp
  201a21:	89 e5                	mov    %esp,%ebp
  201a23:	57                   	push   %edi
  201a24:	56                   	push   %esi
  201a25:	53                   	push   %ebx
  201a26:	83 ec 38             	sub    $0x38,%esp
  201a29:	8b 5d 0c             	mov    0xc(%ebp),%ebx
  201a2c:	53                   	push   %ebx
  201a2d:	e8 8e ed ff ff       	call   2007c0 <strlen>
  201a32:	83 c4 10             	add    $0x10,%esp
  201a35:	8d 34 03             	lea    (%ebx,%eax,1),%esi
  201a38:	85 c0                	test   %eax,%eax
  201a3a:	74 1a                	je     201a56 <terminal_write_uint16_array+0x36>
  201a3c:	8d 74 26 00          	lea    0x0(%esi,%eiz,1),%esi
  201a40:	0f be 03             	movsbl (%ebx),%eax
  201a43:	83 ec 0c             	sub    $0xc,%esp
  201a46:	83 c3 01             	add    $0x1,%ebx
  201a49:	50                   	push   %eax
  201a4a:	e8 a1 fc ff ff       	call   2016f0 <terminal_putchar>
  201a4f:	83 c4 10             	add    $0x10,%esp
  201a52:	39 f3                	cmp    %esi,%ebx
  201a54:	75 ea                	jne    201a40 <terminal_write_uint16_array+0x20>
  201a56:	83 ec 0c             	sub    $0xc,%esp
  201a59:	bb c7 54 20 00       	mov    $0x2054c7,%ebx
  201a5e:	68 c7 54 20 00       	push   $0x2054c7
  201a63:	e8 58 ed ff ff       	call   2007c0 <strlen>
  201a68:	83 c4 10             	add    $0x10,%esp
  201a6b:	8d 34 18             	lea    (%eax,%ebx,1),%esi
  201a6e:	85 c0                	test   %eax,%eax
  201a70:	74 24                	je     201a96 <terminal_write_uint16_array+0x76>
  201a72:	2e 8d b4 26 00 00 00 	lea    %cs:0x0(%esi,%eiz,1),%esi
  201a79:	00 
  201a7a:	8d b6 00 00 00 00    	lea    0x0(%esi),%esi
  201a80:	0f be 03             	movsbl (%ebx),%eax
  201a83:	83 ec 0c             	sub    $0xc,%esp
  201a86:	83 c3 01             	add    $0x1,%ebx
  201a89:	50                   	push   %eax
  201a8a:	e8 61 fc ff ff       	call   2016f0 <terminal_putchar>
  201a8f:	83 c4 10             	add    $0x10,%esp
  201a92:	39 de                	cmp    %ebx,%esi
  201a94:	75 ea                	jne    201a80 <terminal_write_uint16_array+0x60>
  201a96:	8b 45 10             	mov    0x10(%ebp),%eax
  201a99:	31 db                	xor    %ebx,%ebx
  201a9b:	8d 48 ff             	lea    -0x1(%eax),%ecx
  201a9e:	85 c0                	test   %eax,%eax
  201aa0:	0f 84 ab 00 00 00    	je     201b51 <terminal_write_uint16_array+0x131>
  201aa6:	89 4d d4             	mov    %ecx,-0x2c(%ebp)
  201aa9:	8d b4 26 00 00 00 00 	lea    0x0(%esi,%eiz,1),%esi
  201ab0:	83 ec 08             	sub    $0x8,%esp
  201ab3:	8d 45 dc             	lea    -0x24(%ebp),%eax
  201ab6:	8d 75 dc             	lea    -0x24(%ebp),%esi
  201ab9:	50                   	push   %eax
  201aba:	8b 45 08             	mov    0x8(%ebp),%eax
  201abd:	0f b7 04 58          	movzwl (%eax,%ebx,2),%eax
  201ac1:	50                   	push   %eax
  201ac2:	e8 19 ed ff ff       	call   2007e0 <itoa>
  201ac7:	8d 45 dc             	lea    -0x24(%ebp),%eax
  201aca:	89 04 24             	mov    %eax,(%esp)
  201acd:	e8 ee ec ff ff       	call   2007c0 <strlen>
  201ad2:	83 c4 10             	add    $0x10,%esp
  201ad5:	8d 3c 06             	lea    (%esi,%eax,1),%edi
  201ad8:	85 c0                	test   %eax,%eax
  201ada:	74 1a                	je     201af6 <terminal_write_uint16_array+0xd6>
  201adc:	8d 74 26 00          	lea    0x0(%esi,%eiz,1),%esi
  201ae0:	0f be 06             	movsbl (%esi),%eax
  201ae3:	83 ec 0c             	sub    $0xc,%esp
  201ae6:	83 c6 01             	add    $0x1,%esi
  201ae9:	50                   	push   %eax
  201aea:	e8 01 fc ff ff       	call   2016f0 <terminal_putchar>
  201aef:	83 c4 10             	add    $0x10,%esp
  201af2:	39 fe                	cmp    %edi,%esi
  201af4:	75 ea                	jne    201ae0 <terminal_write_uint16_array+0xc0>
  201af6:	39 5d d4             	cmp    %ebx,-0x2c(%ebp)
  201af9:	74 3b                	je     201b36 <terminal_write_uint16_array+0x116>
  201afb:	83 ec 0c             	sub    $0xc,%esp
  201afe:	68 c4 54 20 00       	push   $0x2054c4
  201b03:	e8 b8 ec ff ff       	call   2007c0 <strlen>
  201b08:	83 c4 10             	add    $0x10,%esp
  201b0b:	85 c0                	test   %eax,%eax
  201b0d:	74 27                	je     201b36 <terminal_write_uint16_array+0x116>
  201b0f:	bf c4 54 20 00       	mov    $0x2054c4,%edi
  201b14:	8d 34 38             	lea    (%eax,%edi,1),%esi
  201b17:	2e 8d b4 26 00 00 00 	lea    %cs:0x0(%esi,%eiz,1),%esi
  201b1e:	00 
  201b1f:	90                   	nop
  201b20:	0f be 07             	movsbl (%edi),%eax
  201b23:	83 ec 0c             	sub    $0xc,%esp
  201b26:	83 c7 01             	add    $0x1,%edi
  201b29:	50                   	push   %eax
  201b2a:	e8 c1 fb ff ff       	call   2016f0 <terminal_putchar>
  201b2f:	83 c4 10             	add    $0x10,%esp
  201b32:	39 fe                	cmp    %edi,%esi
  201b34:	75 ea                	jne    201b20 <terminal_write_uint16_array+0x100>
  201b36:	83 c3 01             	add    $0x1,%ebx
  201b39:	69 c3 cd cc cc cc    	imul   $0xcccccccd,%ebx,%eax
  201b3f:	d1 c8                	ror    $1,%eax
  201b41:	3d 99 99 99 19       	cmp    $0x19999999,%eax
  201b46:	76 48                	jbe    201b90 <terminal_write_uint16_array+0x170>
  201b48:	3b 5d 10             	cmp    0x10(%ebp),%ebx
  201b4b:	0f 85 5f ff ff ff    	jne    201ab0 <terminal_write_uint16_array+0x90>
  201b51:	83 ec 0c             	sub    $0xc,%esp
  201b54:	bb c1 54 20 00       	mov    $0x2054c1,%ebx
  201b59:	68 c1 54 20 00       	push   $0x2054c1
  201b5e:	e8 5d ec ff ff       	call   2007c0 <strlen>
  201b63:	83 c4 10             	add    $0x10,%esp
  201b66:	8d 34 18             	lea    (%eax,%ebx,1),%esi
  201b69:	85 c0                	test   %eax,%eax
  201b6b:	74 19                	je     201b86 <terminal_write_uint16_array+0x166>
  201b6d:	8d 76 00             	lea    0x0(%esi),%esi
  201b70:	0f be 03             	movsbl (%ebx),%eax
  201b73:	83 ec 0c             	sub    $0xc,%esp
  201b76:	83 c3 01             	add    $0x1,%ebx
  201b79:	50                   	push   %eax
  201b7a:	e8 71 fb ff ff       	call   2016f0 <terminal_putchar>
  201b7f:	83 c4 10             	add    $0x10,%esp
  201b82:	39 de                	cmp    %ebx,%esi
  201b84:	75 ea                	jne    201b70 <terminal_write_uint16_array+0x150>
  201b86:	8d 65 f4             	lea    -0xc(%ebp),%esp
  201b89:	5b                   	pop    %ebx
  201b8a:	5e                   	pop    %esi
  201b8b:	5f                   	pop    %edi
  201b8c:	5d                   	pop    %ebp
  201b8d:	c3                   	ret
  201b8e:	66 90                	xchg   %ax,%ax
  201b90:	83 ec 0c             	sub    $0xc,%esp
  201b93:	68 22 54 20 00       	push   $0x205422
  201b98:	e8 23 ec ff ff       	call   2007c0 <strlen>
  201b9d:	83 c4 10             	add    $0x10,%esp
  201ba0:	85 c0                	test   %eax,%eax
  201ba2:	74 22                	je     201bc6 <terminal_write_uint16_array+0x1a6>
  201ba4:	bf 22 54 20 00       	mov    $0x205422,%edi
  201ba9:	8d 34 38             	lea    (%eax,%edi,1),%esi
  201bac:	8d 74 26 00          	lea    0x0(%esi,%eiz,1),%esi
  201bb0:	0f be 07             	movsbl (%edi),%eax
  201bb3:	83 ec 0c             	sub    $0xc,%esp
  201bb6:	83 c7 01             	add    $0x1,%edi
  201bb9:	50                   	push   %eax
  201bba:	e8 31 fb ff ff       	call   2016f0 <terminal_putchar>
  201bbf:	83 c4 10             	add    $0x10,%esp
  201bc2:	39 fe                	cmp    %edi,%esi
  201bc4:	75 ea                	jne    201bb0 <terminal_write_uint16_array+0x190>
  201bc6:	83 ec 0c             	sub    $0xc,%esp
  201bc9:	68 cd cc cc 3d       	push   $0x3dcccccd
  201bce:	e8 8d 19 00 00       	call   203560 <wait>
  201bd3:	83 c4 10             	add    $0x10,%esp
  201bd6:	e9 6d ff ff ff       	jmp    201b48 <terminal_write_uint16_array+0x128>
  201bdb:	2e 8d 74 26 00       	lea    %cs:0x0(%esi,%eiz,1),%esi

00201be0 <terminal_write_uint16_array_newlines>:
  201be0:	55                   	push   %ebp
  201be1:	89 e5                	mov    %esp,%ebp
  201be3:	57                   	push   %edi
  201be4:	56                   	push   %esi
  201be5:	53                   	push   %ebx
  201be6:	83 ec 3c             	sub    $0x3c,%esp
  201be9:	8b 45 10             	mov    0x10(%ebp),%eax
  201bec:	85 c0                	test   %eax,%eax
  201bee:	0f 84 62 01 00 00    	je     201d56 <terminal_write_uint16_array_newlines+0x176>
  201bf4:	c7 45 c4 00 00 00 00 	movl   $0x0,-0x3c(%ebp)
  201bfb:	8d 75 d4             	lea    -0x2c(%ebp),%esi
  201bfe:	66 90                	xchg   %ax,%ax
  201c00:	83 ec 0c             	sub    $0xc,%esp
  201c03:	ff 75 0c             	push   0xc(%ebp)
  201c06:	e8 b5 eb ff ff       	call   2007c0 <strlen>
  201c0b:	83 c4 10             	add    $0x10,%esp
  201c0e:	85 c0                	test   %eax,%eax
  201c10:	74 24                	je     201c36 <terminal_write_uint16_array_newlines+0x56>
  201c12:	8b 7d 0c             	mov    0xc(%ebp),%edi
  201c15:	8d 1c 38             	lea    (%eax,%edi,1),%ebx
  201c18:	2e 8d b4 26 00 00 00 	lea    %cs:0x0(%esi,%eiz,1),%esi
  201c1f:	00 
  201c20:	0f be 07             	movsbl (%edi),%eax
  201c23:	83 ec 0c             	sub    $0xc,%esp
  201c26:	83 c7 01             	add    $0x1,%edi
  201c29:	50                   	push   %eax
  201c2a:	e8 c1 fa ff ff       	call   2016f0 <terminal_putchar>
  201c2f:	83 c4 10             	add    $0x10,%esp
  201c32:	39 df                	cmp    %ebx,%edi
  201c34:	75 ea                	jne    201c20 <terminal_write_uint16_array_newlines+0x40>
  201c36:	83 ec 0c             	sub    $0xc,%esp
  201c39:	68 ca 54 20 00       	push   $0x2054ca
  201c3e:	e8 7d eb ff ff       	call   2007c0 <strlen>
  201c43:	83 c4 10             	add    $0x10,%esp
  201c46:	85 c0                	test   %eax,%eax
  201c48:	74 2c                	je     201c76 <terminal_write_uint16_array_newlines+0x96>
  201c4a:	bf ca 54 20 00       	mov    $0x2054ca,%edi
  201c4f:	8d 1c 38             	lea    (%eax,%edi,1),%ebx
  201c52:	2e 8d b4 26 00 00 00 	lea    %cs:0x0(%esi,%eiz,1),%esi
  201c59:	00 
  201c5a:	8d b6 00 00 00 00    	lea    0x0(%esi),%esi
  201c60:	0f be 07             	movsbl (%edi),%eax
  201c63:	83 ec 0c             	sub    $0xc,%esp
  201c66:	83 c7 01             	add    $0x1,%edi
  201c69:	50                   	push   %eax
  201c6a:	e8 81 fa ff ff       	call   2016f0 <terminal_putchar>
  201c6f:	83 c4 10             	add    $0x10,%esp
  201c72:	39 df                	cmp    %ebx,%edi
  201c74:	75 ea                	jne    201c60 <terminal_write_uint16_array_newlines+0x80>
  201c76:	83 ec 08             	sub    $0x8,%esp
  201c79:	56                   	push   %esi
  201c7a:	ff 75 c4             	push   -0x3c(%ebp)
  201c7d:	e8 5e ec ff ff       	call   2008e0 <uitoa>
  201c82:	c6 44 05 d4 00       	movb   $0x0,-0x2c(%ebp,%eax,1)
  201c87:	89 34 24             	mov    %esi,(%esp)
  201c8a:	e8 31 eb ff ff       	call   2007c0 <strlen>
  201c8f:	83 c4 10             	add    $0x10,%esp
  201c92:	85 c0                	test   %eax,%eax
  201c94:	74 20                	je     201cb6 <terminal_write_uint16_array_newlines+0xd6>
  201c96:	89 f7                	mov    %esi,%edi
  201c98:	8d 1c 06             	lea    (%esi,%eax,1),%ebx
  201c9b:	2e 8d 74 26 00       	lea    %cs:0x0(%esi,%eiz,1),%esi
  201ca0:	0f be 07             	movsbl (%edi),%eax
  201ca3:	83 ec 0c             	sub    $0xc,%esp
  201ca6:	83 c7 01             	add    $0x1,%edi
  201ca9:	50                   	push   %eax
  201caa:	e8 41 fa ff ff       	call   2016f0 <terminal_putchar>
  201caf:	83 c4 10             	add    $0x10,%esp
  201cb2:	39 fb                	cmp    %edi,%ebx
  201cb4:	75 ea                	jne    201ca0 <terminal_write_uint16_array_newlines+0xc0>
  201cb6:	8b 45 08             	mov    0x8(%ebp),%eax
  201cb9:	8b 55 c4             	mov    -0x3c(%ebp),%edx
  201cbc:	83 ec 0c             	sub    $0xc,%esp
  201cbf:	0f b7 04 50          	movzwl (%eax,%edx,2),%eax
  201cc3:	89 45 c0             	mov    %eax,-0x40(%ebp)
  201cc6:	68 cc 54 20 00       	push   $0x2054cc
  201ccb:	e8 f0 ea ff ff       	call   2007c0 <strlen>
  201cd0:	83 c4 10             	add    $0x10,%esp
  201cd3:	85 c0                	test   %eax,%eax
  201cd5:	74 1f                	je     201cf6 <terminal_write_uint16_array_newlines+0x116>
  201cd7:	bf cc 54 20 00       	mov    $0x2054cc,%edi
  201cdc:	8d 1c 38             	lea    (%eax,%edi,1),%ebx
  201cdf:	90                   	nop
  201ce0:	0f be 07             	movsbl (%edi),%eax
  201ce3:	83 ec 0c             	sub    $0xc,%esp
  201ce6:	83 c7 01             	add    $0x1,%edi
  201ce9:	50                   	push   %eax
  201cea:	e8 01 fa ff ff       	call   2016f0 <terminal_putchar>
  201cef:	83 c4 10             	add    $0x10,%esp
  201cf2:	39 fb                	cmp    %edi,%ebx
  201cf4:	75 ea                	jne    201ce0 <terminal_write_uint16_array_newlines+0x100>
  201cf6:	83 ec 08             	sub    $0x8,%esp
  201cf9:	56                   	push   %esi
  201cfa:	ff 75 c0             	push   -0x40(%ebp)
  201cfd:	e8 de eb ff ff       	call   2008e0 <uitoa>
  201d02:	0f b7 0d e8 5a 20 00 	movzwl 0x205ae8,%ecx
  201d09:	66 89 0c 06          	mov    %cx,(%esi,%eax,1)
  201d0d:	89 34 24             	mov    %esi,(%esp)
  201d10:	e8 ab ea ff ff       	call   2007c0 <strlen>
  201d15:	83 c4 10             	add    $0x10,%esp
  201d18:	85 c0                	test   %eax,%eax
  201d1a:	74 2a                	je     201d46 <terminal_write_uint16_array_newlines+0x166>
  201d1c:	89 f7                	mov    %esi,%edi
  201d1e:	8d 1c 06             	lea    (%esi,%eax,1),%ebx
  201d21:	2e 8d b4 26 00 00 00 	lea    %cs:0x0(%esi,%eiz,1),%esi
  201d28:	00 
  201d29:	8d b4 26 00 00 00 00 	lea    0x0(%esi,%eiz,1),%esi
  201d30:	0f be 07             	movsbl (%edi),%eax
  201d33:	83 ec 0c             	sub    $0xc,%esp
  201d36:	83 c7 01             	add    $0x1,%edi
  201d39:	50                   	push   %eax
  201d3a:	e8 b1 f9 ff ff       	call   2016f0 <terminal_putchar>
  201d3f:	83 c4 10             	add    $0x10,%esp
  201d42:	39 fb                	cmp    %edi,%ebx
  201d44:	75 ea                	jne    201d30 <terminal_write_uint16_array_newlines+0x150>
  201d46:	83 45 c4 01          	addl   $0x1,-0x3c(%ebp)
  201d4a:	8b 45 c4             	mov    -0x3c(%ebp),%eax
  201d4d:	39 45 10             	cmp    %eax,0x10(%ebp)
  201d50:	0f 85 aa fe ff ff    	jne    201c00 <terminal_write_uint16_array_newlines+0x20>
  201d56:	8d 65 f4             	lea    -0xc(%ebp),%esp
  201d59:	5b                   	pop    %ebx
  201d5a:	5e                   	pop    %esi
  201d5b:	5f                   	pop    %edi
  201d5c:	5d                   	pop    %ebp
  201d5d:	c3                   	ret
  201d5e:	66 90                	xchg   %ax,%ax

00201d60 <print_int_var>:
  201d60:	55                   	push   %ebp
  201d61:	89 e5                	mov    %esp,%ebp
  201d63:	56                   	push   %esi
  201d64:	53                   	push   %ebx
  201d65:	8d 5d ec             	lea    -0x14(%ebp),%ebx
  201d68:	83 ec 18             	sub    $0x18,%esp
  201d6b:	53                   	push   %ebx
  201d6c:	ff 75 08             	push   0x8(%ebp)
  201d6f:	e8 6c ea ff ff       	call   2007e0 <itoa>
  201d74:	ba 0a 00 00 00       	mov    $0xa,%edx
  201d79:	66 89 54 05 ec       	mov    %dx,-0x14(%ebp,%eax,1)
  201d7e:	89 1c 24             	mov    %ebx,(%esp)
  201d81:	e8 3a ea ff ff       	call   2007c0 <strlen>
  201d86:	83 c4 10             	add    $0x10,%esp
  201d89:	85 c0                	test   %eax,%eax
  201d8b:	74 19                	je     201da6 <print_int_var+0x46>
  201d8d:	8d 34 03             	lea    (%ebx,%eax,1),%esi
  201d90:	0f be 03             	movsbl (%ebx),%eax
  201d93:	83 ec 0c             	sub    $0xc,%esp
  201d96:	83 c3 01             	add    $0x1,%ebx
  201d99:	50                   	push   %eax
  201d9a:	e8 51 f9 ff ff       	call   2016f0 <terminal_putchar>
  201d9f:	83 c4 10             	add    $0x10,%esp
  201da2:	39 f3                	cmp    %esi,%ebx
  201da4:	75 ea                	jne    201d90 <print_int_var+0x30>
  201da6:	8d 65 f8             	lea    -0x8(%ebp),%esp
  201da9:	5b                   	pop    %ebx
  201daa:	5e                   	pop    %esi
  201dab:	5d                   	pop    %ebp
  201dac:	c3                   	ret
  201dad:	8d 76 00             	lea    0x0(%esi),%esi

00201db0 <print_int_var_no_newline>:
  201db0:	55                   	push   %ebp
  201db1:	89 e5                	mov    %esp,%ebp
  201db3:	56                   	push   %esi
  201db4:	53                   	push   %ebx
  201db5:	8d 5d ec             	lea    -0x14(%ebp),%ebx
  201db8:	83 ec 18             	sub    $0x18,%esp
  201dbb:	53                   	push   %ebx
  201dbc:	ff 75 08             	push   0x8(%ebp)
  201dbf:	e8 1c ea ff ff       	call   2007e0 <itoa>
  201dc4:	c6 44 05 ec 00       	movb   $0x0,-0x14(%ebp,%eax,1)
  201dc9:	89 1c 24             	mov    %ebx,(%esp)
  201dcc:	e8 ef e9 ff ff       	call   2007c0 <strlen>
  201dd1:	83 c4 10             	add    $0x10,%esp
  201dd4:	85 c0                	test   %eax,%eax
  201dd6:	74 1e                	je     201df6 <print_int_var_no_newline+0x46>
  201dd8:	8d 34 03             	lea    (%ebx,%eax,1),%esi
  201ddb:	2e 8d 74 26 00       	lea    %cs:0x0(%esi,%eiz,1),%esi
  201de0:	0f be 03             	movsbl (%ebx),%eax
  201de3:	83 ec 0c             	sub    $0xc,%esp
  201de6:	83 c3 01             	add    $0x1,%ebx
  201de9:	50                   	push   %eax
  201dea:	e8 01 f9 ff ff       	call   2016f0 <terminal_putchar>
  201def:	83 c4 10             	add    $0x10,%esp
  201df2:	39 f3                	cmp    %esi,%ebx
  201df4:	75 ea                	jne    201de0 <print_int_var_no_newline+0x30>
  201df6:	8d 65 f8             	lea    -0x8(%ebp),%esp
  201df9:	5b                   	pop    %ebx
  201dfa:	5e                   	pop    %esi
  201dfb:	5d                   	pop    %ebp
  201dfc:	c3                   	ret
  201dfd:	8d 76 00             	lea    0x0(%esi),%esi

00201e00 <print_hex_var>:
  201e00:	55                   	push   %ebp
  201e01:	89 e5                	mov    %esp,%ebp
  201e03:	56                   	push   %esi
  201e04:	53                   	push   %ebx
  201e05:	8d 5d ec             	lea    -0x14(%ebp),%ebx
  201e08:	83 ec 14             	sub    $0x14,%esp
  201e0b:	6a 01                	push   $0x1
  201e0d:	53                   	push   %ebx
  201e0e:	ff 75 08             	push   0x8(%ebp)
  201e11:	e8 ba ec ff ff       	call   200ad0 <uint_to_hex>
  201e16:	ba 0a 00 00 00       	mov    $0xa,%edx
  201e1b:	66 89 54 05 ec       	mov    %dx,-0x14(%ebp,%eax,1)
  201e20:	89 1c 24             	mov    %ebx,(%esp)
  201e23:	e8 98 e9 ff ff       	call   2007c0 <strlen>
  201e28:	83 c4 10             	add    $0x10,%esp
  201e2b:	85 c0                	test   %eax,%eax
  201e2d:	74 27                	je     201e56 <print_hex_var+0x56>
  201e2f:	8d 34 03             	lea    (%ebx,%eax,1),%esi
  201e32:	2e 8d b4 26 00 00 00 	lea    %cs:0x0(%esi,%eiz,1),%esi
  201e39:	00 
  201e3a:	8d b6 00 00 00 00    	lea    0x0(%esi),%esi
  201e40:	0f be 03             	movsbl (%ebx),%eax
  201e43:	83 ec 0c             	sub    $0xc,%esp
  201e46:	83 c3 01             	add    $0x1,%ebx
  201e49:	50                   	push   %eax
  201e4a:	e8 a1 f8 ff ff       	call   2016f0 <terminal_putchar>
  201e4f:	83 c4 10             	add    $0x10,%esp
  201e52:	39 f3                	cmp    %esi,%ebx
  201e54:	75 ea                	jne    201e40 <print_hex_var+0x40>
  201e56:	8d 65 f8             	lea    -0x8(%ebp),%esp
  201e59:	5b                   	pop    %ebx
  201e5a:	5e                   	pop    %esi
  201e5b:	5d                   	pop    %ebp
  201e5c:	c3                   	ret
  201e5d:	8d 76 00             	lea    0x0(%esi),%esi

00201e60 <print_hex_var_no_newline>:
  201e60:	55                   	push   %ebp
  201e61:	89 e5                	mov    %esp,%ebp
  201e63:	56                   	push   %esi
  201e64:	53                   	push   %ebx
  201e65:	8d 5d ec             	lea    -0x14(%ebp),%ebx
  201e68:	83 ec 14             	sub    $0x14,%esp
  201e6b:	6a 01                	push   $0x1
  201e6d:	53                   	push   %ebx
  201e6e:	ff 75 08             	push   0x8(%ebp)
  201e71:	e8 5a ec ff ff       	call   200ad0 <uint_to_hex>
  201e76:	c6 44 05 ec 00       	movb   $0x0,-0x14(%ebp,%eax,1)
  201e7b:	89 1c 24             	mov    %ebx,(%esp)
  201e7e:	e8 3d e9 ff ff       	call   2007c0 <strlen>
  201e83:	83 c4 10             	add    $0x10,%esp
  201e86:	85 c0                	test   %eax,%eax
  201e88:	74 1c                	je     201ea6 <print_hex_var_no_newline+0x46>
  201e8a:	8d 34 03             	lea    (%ebx,%eax,1),%esi
  201e8d:	8d 76 00             	lea    0x0(%esi),%esi
  201e90:	0f be 03             	movsbl (%ebx),%eax
  201e93:	83 ec 0c             	sub    $0xc,%esp
  201e96:	83 c3 01             	add    $0x1,%ebx
  201e99:	50                   	push   %eax
  201e9a:	e8 51 f8 ff ff       	call   2016f0 <terminal_putchar>
  201e9f:	83 c4 10             	add    $0x10,%esp
  201ea2:	39 f3                	cmp    %esi,%ebx
  201ea4:	75 ea                	jne    201e90 <print_hex_var_no_newline+0x30>
  201ea6:	8d 65 f8             	lea    -0x8(%ebp),%esp
  201ea9:	5b                   	pop    %ebx
  201eaa:	5e                   	pop    %esi
  201eab:	5d                   	pop    %ebp
  201eac:	c3                   	ret
  201ead:	8d 76 00             	lea    0x0(%esi),%esi

00201eb0 <print_hex_ptr>:
  201eb0:	55                   	push   %ebp
  201eb1:	89 e5                	mov    %esp,%ebp
  201eb3:	56                   	push   %esi
  201eb4:	53                   	push   %ebx
  201eb5:	8d 5d ec             	lea    -0x14(%ebp),%ebx
  201eb8:	83 ec 14             	sub    $0x14,%esp
  201ebb:	6a 01                	push   $0x1
  201ebd:	53                   	push   %ebx
  201ebe:	ff 75 08             	push   0x8(%ebp)
  201ec1:	e8 0a ed ff ff       	call   200bd0 <ptr_to_hex>
  201ec6:	ba 0a 00 00 00       	mov    $0xa,%edx
  201ecb:	66 89 54 05 ec       	mov    %dx,-0x14(%ebp,%eax,1)
  201ed0:	89 1c 24             	mov    %ebx,(%esp)
  201ed3:	e8 e8 e8 ff ff       	call   2007c0 <strlen>
  201ed8:	83 c4 10             	add    $0x10,%esp
  201edb:	85 c0                	test   %eax,%eax
  201edd:	74 27                	je     201f06 <print_hex_ptr+0x56>
  201edf:	8d 34 03             	lea    (%ebx,%eax,1),%esi
  201ee2:	2e 8d b4 26 00 00 00 	lea    %cs:0x0(%esi,%eiz,1),%esi
  201ee9:	00 
  201eea:	8d b6 00 00 00 00    	lea    0x0(%esi),%esi
  201ef0:	0f be 03             	movsbl (%ebx),%eax
  201ef3:	83 ec 0c             	sub    $0xc,%esp
  201ef6:	83 c3 01             	add    $0x1,%ebx
  201ef9:	50                   	push   %eax
  201efa:	e8 f1 f7 ff ff       	call   2016f0 <terminal_putchar>
  201eff:	83 c4 10             	add    $0x10,%esp
  201f02:	39 f3                	cmp    %esi,%ebx
  201f04:	75 ea                	jne    201ef0 <print_hex_ptr+0x40>
  201f06:	8d 65 f8             	lea    -0x8(%ebp),%esp
  201f09:	5b                   	pop    %ebx
  201f0a:	5e                   	pop    %esi
  201f0b:	5d                   	pop    %ebp
  201f0c:	c3                   	ret
  201f0d:	8d 76 00             	lea    0x0(%esi),%esi

00201f10 <print_uint_var>:
  201f10:	55                   	push   %ebp
  201f11:	89 e5                	mov    %esp,%ebp
  201f13:	56                   	push   %esi
  201f14:	53                   	push   %ebx
  201f15:	8d 5d ec             	lea    -0x14(%ebp),%ebx
  201f18:	83 ec 18             	sub    $0x18,%esp
  201f1b:	53                   	push   %ebx
  201f1c:	ff 75 08             	push   0x8(%ebp)
  201f1f:	e8 bc e9 ff ff       	call   2008e0 <uitoa>
  201f24:	ba 0a 00 00 00       	mov    $0xa,%edx
  201f29:	66 89 54 05 ec       	mov    %dx,-0x14(%ebp,%eax,1)
  201f2e:	89 1c 24             	mov    %ebx,(%esp)
  201f31:	e8 8a e8 ff ff       	call   2007c0 <strlen>
  201f36:	83 c4 10             	add    $0x10,%esp
  201f39:	85 c0                	test   %eax,%eax
  201f3b:	74 19                	je     201f56 <print_uint_var+0x46>
  201f3d:	8d 34 03             	lea    (%ebx,%eax,1),%esi
  201f40:	0f be 03             	movsbl (%ebx),%eax
  201f43:	83 ec 0c             	sub    $0xc,%esp
  201f46:	83 c3 01             	add    $0x1,%ebx
  201f49:	50                   	push   %eax
  201f4a:	e8 a1 f7 ff ff       	call   2016f0 <terminal_putchar>
  201f4f:	83 c4 10             	add    $0x10,%esp
  201f52:	39 f3                	cmp    %esi,%ebx
  201f54:	75 ea                	jne    201f40 <print_uint_var+0x30>
  201f56:	8d 65 f8             	lea    -0x8(%ebp),%esp
  201f59:	5b                   	pop    %ebx
  201f5a:	5e                   	pop    %esi
  201f5b:	5d                   	pop    %ebp
  201f5c:	c3                   	ret
  201f5d:	8d 76 00             	lea    0x0(%esi),%esi

00201f60 <print_uint_var_no_newline>:
  201f60:	55                   	push   %ebp
  201f61:	89 e5                	mov    %esp,%ebp
  201f63:	56                   	push   %esi
  201f64:	53                   	push   %ebx
  201f65:	8d 5d e4             	lea    -0x1c(%ebp),%ebx
  201f68:	83 ec 28             	sub    $0x28,%esp
  201f6b:	53                   	push   %ebx
  201f6c:	ff 75 08             	push   0x8(%ebp)
  201f6f:	e8 6c e9 ff ff       	call   2008e0 <uitoa>
  201f74:	c6 44 05 e4 00       	movb   $0x0,-0x1c(%ebp,%eax,1)
  201f79:	89 1c 24             	mov    %ebx,(%esp)
  201f7c:	e8 3f e8 ff ff       	call   2007c0 <strlen>
  201f81:	83 c4 10             	add    $0x10,%esp
  201f84:	85 c0                	test   %eax,%eax
  201f86:	74 1e                	je     201fa6 <print_uint_var_no_newline+0x46>
  201f88:	8d 34 03             	lea    (%ebx,%eax,1),%esi
  201f8b:	2e 8d 74 26 00       	lea    %cs:0x0(%esi,%eiz,1),%esi
  201f90:	0f be 03             	movsbl (%ebx),%eax
  201f93:	83 ec 0c             	sub    $0xc,%esp
  201f96:	83 c3 01             	add    $0x1,%ebx
  201f99:	50                   	push   %eax
  201f9a:	e8 51 f7 ff ff       	call   2016f0 <terminal_putchar>
  201f9f:	83 c4 10             	add    $0x10,%esp
  201fa2:	39 f3                	cmp    %esi,%ebx
  201fa4:	75 ea                	jne    201f90 <print_uint_var_no_newline+0x30>
  201fa6:	8d 65 f8             	lea    -0x8(%ebp),%esp
  201fa9:	5b                   	pop    %ebx
  201faa:	5e                   	pop    %esi
  201fab:	5d                   	pop    %ebp
  201fac:	c3                   	ret
  201fad:	8d 76 00             	lea    0x0(%esi),%esi

00201fb0 <print_float_var_no_newline>:
  201fb0:	55                   	push   %ebp
  201fb1:	89 e5                	mov    %esp,%ebp
  201fb3:	56                   	push   %esi
  201fb4:	53                   	push   %ebx
  201fb5:	8d 5d e4             	lea    -0x1c(%ebp),%ebx
  201fb8:	83 ec 24             	sub    $0x24,%esp
  201fbb:	6a 06                	push   $0x6
  201fbd:	53                   	push   %ebx
  201fbe:	ff 75 08             	push   0x8(%ebp)
  201fc1:	e8 4a e9 ff ff       	call   200910 <ftoa>
  201fc6:	c6 44 05 e4 00       	movb   $0x0,-0x1c(%ebp,%eax,1)
  201fcb:	89 1c 24             	mov    %ebx,(%esp)
  201fce:	e8 ed e7 ff ff       	call   2007c0 <strlen>
  201fd3:	83 c4 10             	add    $0x10,%esp
  201fd6:	85 c0                	test   %eax,%eax
  201fd8:	74 1c                	je     201ff6 <print_float_var_no_newline+0x46>
  201fda:	8d 34 03             	lea    (%ebx,%eax,1),%esi
  201fdd:	8d 76 00             	lea    0x0(%esi),%esi
  201fe0:	0f be 03             	movsbl (%ebx),%eax
  201fe3:	83 ec 0c             	sub    $0xc,%esp
  201fe6:	83 c3 01             	add    $0x1,%ebx
  201fe9:	50                   	push   %eax
  201fea:	e8 01 f7 ff ff       	call   2016f0 <terminal_putchar>
  201fef:	83 c4 10             	add    $0x10,%esp
  201ff2:	39 f3                	cmp    %esi,%ebx
  201ff4:	75 ea                	jne    201fe0 <print_float_var_no_newline+0x30>
  201ff6:	8d 65 f8             	lea    -0x8(%ebp),%esp
  201ff9:	5b                   	pop    %ebx
  201ffa:	5e                   	pop    %esi
  201ffb:	5d                   	pop    %ebp
  201ffc:	c3                   	ret
  201ffd:	8d 76 00             	lea    0x0(%esi),%esi

00202000 <print_float_var_no_newline_precision>:
  202000:	55                   	push   %ebp
  202001:	ba 06 00 00 00       	mov    $0x6,%edx
  202006:	89 e5                	mov    %esp,%ebp
  202008:	56                   	push   %esi
  202009:	53                   	push   %ebx
  20200a:	8d 5d c8             	lea    -0x38(%ebp),%ebx
  20200d:	83 ec 34             	sub    $0x34,%esp
  202010:	8b 45 0c             	mov    0xc(%ebp),%eax
  202013:	38 d0                	cmp    %dl,%al
  202015:	0f 47 c2             	cmova  %edx,%eax
  202018:	0f b6 c0             	movzbl %al,%eax
  20201b:	50                   	push   %eax
  20201c:	53                   	push   %ebx
  20201d:	ff 75 08             	push   0x8(%ebp)
  202020:	e8 eb e8 ff ff       	call   200910 <ftoa>
  202025:	c6 44 05 c8 00       	movb   $0x0,-0x38(%ebp,%eax,1)
  20202a:	89 1c 24             	mov    %ebx,(%esp)
  20202d:	e8 8e e7 ff ff       	call   2007c0 <strlen>
  202032:	83 c4 10             	add    $0x10,%esp
  202035:	85 c0                	test   %eax,%eax
  202037:	74 1d                	je     202056 <print_float_var_no_newline_precision+0x56>
  202039:	8d 34 03             	lea    (%ebx,%eax,1),%esi
  20203c:	8d 74 26 00          	lea    0x0(%esi,%eiz,1),%esi
  202040:	0f be 03             	movsbl (%ebx),%eax
  202043:	83 ec 0c             	sub    $0xc,%esp
  202046:	83 c3 01             	add    $0x1,%ebx
  202049:	50                   	push   %eax
  20204a:	e8 a1 f6 ff ff       	call   2016f0 <terminal_putchar>
  20204f:	83 c4 10             	add    $0x10,%esp
  202052:	39 f3                	cmp    %esi,%ebx
  202054:	75 ea                	jne    202040 <print_float_var_no_newline_precision+0x40>
  202056:	8d 65 f8             	lea    -0x8(%ebp),%esp
  202059:	5b                   	pop    %ebx
  20205a:	5e                   	pop    %esi
  20205b:	5d                   	pop    %ebp
  20205c:	c3                   	ret
  20205d:	8d 76 00             	lea    0x0(%esi),%esi

00202060 <print_something>:
  202060:	55                   	push   %ebp
  202061:	89 e5                	mov    %esp,%ebp
  202063:	57                   	push   %edi
  202064:	56                   	push   %esi
  202065:	8d 75 dc             	lea    -0x24(%ebp),%esi
  202068:	53                   	push   %ebx
  202069:	83 ec 2c             	sub    $0x2c,%esp
  20206c:	c7 45 d4 00 00 00 00 	movl   $0x0,-0x2c(%ebp)
  202073:	2e 8d b4 26 00 00 00 	lea    %cs:0x0(%esi,%eiz,1),%esi
  20207a:	00 
  20207b:	2e 8d 74 26 00       	lea    %cs:0x0(%esi,%eiz,1),%esi
  202080:	83 ec 08             	sub    $0x8,%esp
  202083:	56                   	push   %esi
  202084:	ff 75 d4             	push   -0x2c(%ebp)
  202087:	e8 54 e7 ff ff       	call   2007e0 <itoa>
  20208c:	0f b7 0d e8 5a 20 00 	movzwl 0x205ae8,%ecx
  202093:	66 89 0c 06          	mov    %cx,(%esi,%eax,1)
  202097:	89 34 24             	mov    %esi,(%esp)
  20209a:	e8 21 e7 ff ff       	call   2007c0 <strlen>
  20209f:	83 c4 10             	add    $0x10,%esp
  2020a2:	85 c0                	test   %eax,%eax
  2020a4:	74 20                	je     2020c6 <print_something+0x66>
  2020a6:	89 f7                	mov    %esi,%edi
  2020a8:	8d 1c 06             	lea    (%esi,%eax,1),%ebx
  2020ab:	2e 8d 74 26 00       	lea    %cs:0x0(%esi,%eiz,1),%esi
  2020b0:	0f be 17             	movsbl (%edi),%edx
  2020b3:	83 ec 0c             	sub    $0xc,%esp
  2020b6:	83 c7 01             	add    $0x1,%edi
  2020b9:	52                   	push   %edx
  2020ba:	e8 31 f6 ff ff       	call   2016f0 <terminal_putchar>
  2020bf:	83 c4 10             	add    $0x10,%esp
  2020c2:	39 df                	cmp    %ebx,%edi
  2020c4:	75 ea                	jne    2020b0 <print_something+0x50>
  2020c6:	83 ec 0c             	sub    $0xc,%esp
  2020c9:	68 cd cc cc 3d       	push   $0x3dcccccd
  2020ce:	e8 8d 14 00 00       	call   203560 <wait>
  2020d3:	83 45 d4 01          	addl   $0x1,-0x2c(%ebp)
  2020d7:	8b 45 d4             	mov    -0x2c(%ebp),%eax
  2020da:	83 c4 10             	add    $0x10,%esp
  2020dd:	83 f8 0a             	cmp    $0xa,%eax
  2020e0:	75 9e                	jne    202080 <print_something+0x20>
  2020e2:	8d 65 f4             	lea    -0xc(%ebp),%esp
  2020e5:	5b                   	pop    %ebx
  2020e6:	5e                   	pop    %esi
  2020e7:	5f                   	pop    %edi
  2020e8:	5d                   	pop    %ebp
  2020e9:	c3                   	ret
  2020ea:	8d b6 00 00 00 00    	lea    0x0(%esi),%esi

002020f0 <print_extern_address>:
  2020f0:	55                   	push   %ebp
  2020f1:	89 e5                	mov    %esp,%ebp
  2020f3:	57                   	push   %edi
  2020f4:	56                   	push   %esi
  2020f5:	53                   	push   %ebx
  2020f6:	83 ec 28             	sub    $0x28,%esp
  2020f9:	8b 5d 08             	mov    0x8(%ebp),%ebx
  2020fc:	53                   	push   %ebx
  2020fd:	e8 be e6 ff ff       	call   2007c0 <strlen>
  202102:	83 c4 10             	add    $0x10,%esp
  202105:	85 c0                	test   %eax,%eax
  202107:	74 1d                	je     202126 <print_extern_address+0x36>
  202109:	8d 34 03             	lea    (%ebx,%eax,1),%esi
  20210c:	8d 74 26 00          	lea    0x0(%esi,%eiz,1),%esi
  202110:	0f be 03             	movsbl (%ebx),%eax
  202113:	83 ec 0c             	sub    $0xc,%esp
  202116:	83 c3 01             	add    $0x1,%ebx
  202119:	50                   	push   %eax
  20211a:	e8 d1 f5 ff ff       	call   2016f0 <terminal_putchar>
  20211f:	83 c4 10             	add    $0x10,%esp
  202122:	39 f3                	cmp    %esi,%ebx
  202124:	75 ea                	jne    202110 <print_extern_address+0x20>
  202126:	ff 55 0c             	call   *0xc(%ebp)
  202129:	8d 5d dc             	lea    -0x24(%ebp),%ebx
  20212c:	83 ec 04             	sub    $0x4,%esp
  20212f:	6a 01                	push   $0x1
  202131:	89 c6                	mov    %eax,%esi
  202133:	53                   	push   %ebx
  202134:	50                   	push   %eax
  202135:	e8 96 ea ff ff       	call   200bd0 <ptr_to_hex>
  20213a:	ba 0a 00 00 00       	mov    $0xa,%edx
  20213f:	66 89 54 05 dc       	mov    %dx,-0x24(%ebp,%eax,1)
  202144:	89 1c 24             	mov    %ebx,(%esp)
  202147:	e8 74 e6 ff ff       	call   2007c0 <strlen>
  20214c:	83 c4 10             	add    $0x10,%esp
  20214f:	85 c0                	test   %eax,%eax
  202151:	74 23                	je     202176 <print_extern_address+0x86>
  202153:	8d 3c 03             	lea    (%ebx,%eax,1),%edi
  202156:	2e 8d b4 26 00 00 00 	lea    %cs:0x0(%esi,%eiz,1),%esi
  20215d:	00 
  20215e:	66 90                	xchg   %ax,%ax
  202160:	0f be 03             	movsbl (%ebx),%eax
  202163:	83 ec 0c             	sub    $0xc,%esp
  202166:	83 c3 01             	add    $0x1,%ebx
  202169:	50                   	push   %eax
  20216a:	e8 81 f5 ff ff       	call   2016f0 <terminal_putchar>
  20216f:	83 c4 10             	add    $0x10,%esp
  202172:	39 fb                	cmp    %edi,%ebx
  202174:	75 ea                	jne    202160 <print_extern_address+0x70>
  202176:	83 ec 0c             	sub    $0xc,%esp
  202179:	68 22 54 20 00       	push   $0x205422
  20217e:	e8 3d e6 ff ff       	call   2007c0 <strlen>
  202183:	83 c4 10             	add    $0x10,%esp
  202186:	85 c0                	test   %eax,%eax
  202188:	74 2c                	je     2021b6 <print_extern_address+0xc6>
  20218a:	bb 22 54 20 00       	mov    $0x205422,%ebx
  20218f:	8d 3c 18             	lea    (%eax,%ebx,1),%edi
  202192:	2e 8d b4 26 00 00 00 	lea    %cs:0x0(%esi,%eiz,1),%esi
  202199:	00 
  20219a:	8d b6 00 00 00 00    	lea    0x0(%esi),%esi
  2021a0:	0f be 03             	movsbl (%ebx),%eax
  2021a3:	83 ec 0c             	sub    $0xc,%esp
  2021a6:	83 c3 01             	add    $0x1,%ebx
  2021a9:	50                   	push   %eax
  2021aa:	e8 41 f5 ff ff       	call   2016f0 <terminal_putchar>
  2021af:	83 c4 10             	add    $0x10,%esp
  2021b2:	39 df                	cmp    %ebx,%edi
  2021b4:	75 ea                	jne    2021a0 <print_extern_address+0xb0>
  2021b6:	8d 65 f4             	lea    -0xc(%ebp),%esp
  2021b9:	89 f0                	mov    %esi,%eax
  2021bb:	5b                   	pop    %ebx
  2021bc:	5e                   	pop    %esi
  2021bd:	5f                   	pop    %edi
  2021be:	5d                   	pop    %ebp
  2021bf:	c3                   	ret

002021c0 <terminal_write_uint>:
  2021c0:	55                   	push   %ebp
  2021c1:	89 e5                	mov    %esp,%ebp
  2021c3:	56                   	push   %esi
  2021c4:	53                   	push   %ebx
  2021c5:	83 ec 1c             	sub    $0x1c,%esp
  2021c8:	8b 5d 08             	mov    0x8(%ebp),%ebx
  2021cb:	53                   	push   %ebx
  2021cc:	e8 ef e5 ff ff       	call   2007c0 <strlen>
  2021d1:	83 c4 10             	add    $0x10,%esp
  2021d4:	85 c0                	test   %eax,%eax
  2021d6:	74 1e                	je     2021f6 <terminal_write_uint+0x36>
  2021d8:	8d 34 03             	lea    (%ebx,%eax,1),%esi
  2021db:	2e 8d 74 26 00       	lea    %cs:0x0(%esi,%eiz,1),%esi
  2021e0:	0f be 03             	movsbl (%ebx),%eax
  2021e3:	83 ec 0c             	sub    $0xc,%esp
  2021e6:	83 c3 01             	add    $0x1,%ebx
  2021e9:	50                   	push   %eax
  2021ea:	e8 01 f5 ff ff       	call   2016f0 <terminal_putchar>
  2021ef:	83 c4 10             	add    $0x10,%esp
  2021f2:	39 f3                	cmp    %esi,%ebx
  2021f4:	75 ea                	jne    2021e0 <terminal_write_uint+0x20>
  2021f6:	83 ec 08             	sub    $0x8,%esp
  2021f9:	8d 5d ec             	lea    -0x14(%ebp),%ebx
  2021fc:	53                   	push   %ebx
  2021fd:	ff 75 0c             	push   0xc(%ebp)
  202200:	e8 db e6 ff ff       	call   2008e0 <uitoa>
  202205:	ba 0a 00 00 00       	mov    $0xa,%edx
  20220a:	66 89 54 05 ec       	mov    %dx,-0x14(%ebp,%eax,1)
  20220f:	89 1c 24             	mov    %ebx,(%esp)
  202212:	e8 a9 e5 ff ff       	call   2007c0 <strlen>
  202217:	83 c4 10             	add    $0x10,%esp
  20221a:	85 c0                	test   %eax,%eax
  20221c:	74 28                	je     202246 <terminal_write_uint+0x86>
  20221e:	8d 34 03             	lea    (%ebx,%eax,1),%esi
  202221:	2e 8d b4 26 00 00 00 	lea    %cs:0x0(%esi,%eiz,1),%esi
  202228:	00 
  202229:	8d b4 26 00 00 00 00 	lea    0x0(%esi,%eiz,1),%esi
  202230:	0f be 03             	movsbl (%ebx),%eax
  202233:	83 ec 0c             	sub    $0xc,%esp
  202236:	83 c3 01             	add    $0x1,%ebx
  202239:	50                   	push   %eax
  20223a:	e8 b1 f4 ff ff       	call   2016f0 <terminal_putchar>
  20223f:	83 c4 10             	add    $0x10,%esp
  202242:	39 de                	cmp    %ebx,%esi
  202244:	75 ea                	jne    202230 <terminal_write_uint+0x70>
  202246:	8d 65 f8             	lea    -0x8(%ebp),%esp
  202249:	5b                   	pop    %ebx
  20224a:	5e                   	pop    %esi
  20224b:	5d                   	pop    %ebp
  20224c:	c3                   	ret
  20224d:	8d 76 00             	lea    0x0(%esi),%esi

00202250 <terminal_write_uint_no_newline>:
  202250:	55                   	push   %ebp
  202251:	89 e5                	mov    %esp,%ebp
  202253:	56                   	push   %esi
  202254:	53                   	push   %ebx
  202255:	83 ec 2c             	sub    $0x2c,%esp
  202258:	8b 5d 08             	mov    0x8(%ebp),%ebx
  20225b:	53                   	push   %ebx
  20225c:	e8 5f e5 ff ff       	call   2007c0 <strlen>
  202261:	83 c4 10             	add    $0x10,%esp
  202264:	85 c0                	test   %eax,%eax
  202266:	74 1e                	je     202286 <terminal_write_uint_no_newline+0x36>
  202268:	8d 34 03             	lea    (%ebx,%eax,1),%esi
  20226b:	2e 8d 74 26 00       	lea    %cs:0x0(%esi,%eiz,1),%esi
  202270:	0f be 03             	movsbl (%ebx),%eax
  202273:	83 ec 0c             	sub    $0xc,%esp
  202276:	83 c3 01             	add    $0x1,%ebx
  202279:	50                   	push   %eax
  20227a:	e8 71 f4 ff ff       	call   2016f0 <terminal_putchar>
  20227f:	83 c4 10             	add    $0x10,%esp
  202282:	39 f3                	cmp    %esi,%ebx
  202284:	75 ea                	jne    202270 <terminal_write_uint_no_newline+0x20>
  202286:	83 ec 08             	sub    $0x8,%esp
  202289:	8d 5d e4             	lea    -0x1c(%ebp),%ebx
  20228c:	53                   	push   %ebx
  20228d:	ff 75 0c             	push   0xc(%ebp)
  202290:	e8 4b e6 ff ff       	call   2008e0 <uitoa>
  202295:	c6 44 05 e4 00       	movb   $0x0,-0x1c(%ebp,%eax,1)
  20229a:	89 1c 24             	mov    %ebx,(%esp)
  20229d:	e8 1e e5 ff ff       	call   2007c0 <strlen>
  2022a2:	83 c4 10             	add    $0x10,%esp
  2022a5:	85 c0                	test   %eax,%eax
  2022a7:	74 1d                	je     2022c6 <terminal_write_uint_no_newline+0x76>
  2022a9:	8d 34 03             	lea    (%ebx,%eax,1),%esi
  2022ac:	8d 74 26 00          	lea    0x0(%esi,%eiz,1),%esi
  2022b0:	0f be 03             	movsbl (%ebx),%eax
  2022b3:	83 ec 0c             	sub    $0xc,%esp
  2022b6:	83 c3 01             	add    $0x1,%ebx
  2022b9:	50                   	push   %eax
  2022ba:	e8 31 f4 ff ff       	call   2016f0 <terminal_putchar>
  2022bf:	83 c4 10             	add    $0x10,%esp
  2022c2:	39 de                	cmp    %ebx,%esi
  2022c4:	75 ea                	jne    2022b0 <terminal_write_uint_no_newline+0x60>
  2022c6:	8d 65 f8             	lea    -0x8(%ebp),%esp
  2022c9:	5b                   	pop    %ebx
  2022ca:	5e                   	pop    %esi
  2022cb:	5d                   	pop    %ebp
  2022cc:	c3                   	ret
  2022cd:	8d 76 00             	lea    0x0(%esi),%esi

002022d0 <terminal_write_hex>:
  2022d0:	55                   	push   %ebp
  2022d1:	89 e5                	mov    %esp,%ebp
  2022d3:	56                   	push   %esi
  2022d4:	53                   	push   %ebx
  2022d5:	83 ec 1c             	sub    $0x1c,%esp
  2022d8:	8b 5d 08             	mov    0x8(%ebp),%ebx
  2022db:	53                   	push   %ebx
  2022dc:	e8 df e4 ff ff       	call   2007c0 <strlen>
  2022e1:	83 c4 10             	add    $0x10,%esp
  2022e4:	85 c0                	test   %eax,%eax
  2022e6:	74 1e                	je     202306 <terminal_write_hex+0x36>
  2022e8:	8d 34 03             	lea    (%ebx,%eax,1),%esi
  2022eb:	2e 8d 74 26 00       	lea    %cs:0x0(%esi,%eiz,1),%esi
  2022f0:	0f be 03             	movsbl (%ebx),%eax
  2022f3:	83 ec 0c             	sub    $0xc,%esp
  2022f6:	83 c3 01             	add    $0x1,%ebx
  2022f9:	50                   	push   %eax
  2022fa:	e8 f1 f3 ff ff       	call   2016f0 <terminal_putchar>
  2022ff:	83 c4 10             	add    $0x10,%esp
  202302:	39 f3                	cmp    %esi,%ebx
  202304:	75 ea                	jne    2022f0 <terminal_write_hex+0x20>
  202306:	83 ec 04             	sub    $0x4,%esp
  202309:	8d 5d ec             	lea    -0x14(%ebp),%ebx
  20230c:	6a 01                	push   $0x1
  20230e:	53                   	push   %ebx
  20230f:	ff 75 0c             	push   0xc(%ebp)
  202312:	e8 b9 e7 ff ff       	call   200ad0 <uint_to_hex>
  202317:	ba 0a 00 00 00       	mov    $0xa,%edx
  20231c:	66 89 54 05 ec       	mov    %dx,-0x14(%ebp,%eax,1)
  202321:	89 1c 24             	mov    %ebx,(%esp)
  202324:	e8 97 e4 ff ff       	call   2007c0 <strlen>
  202329:	83 c4 10             	add    $0x10,%esp
  20232c:	85 c0                	test   %eax,%eax
  20232e:	74 26                	je     202356 <terminal_write_hex+0x86>
  202330:	8d 34 03             	lea    (%ebx,%eax,1),%esi
  202333:	2e 8d b4 26 00 00 00 	lea    %cs:0x0(%esi,%eiz,1),%esi
  20233a:	00 
  20233b:	2e 8d 74 26 00       	lea    %cs:0x0(%esi,%eiz,1),%esi
  202340:	0f be 03             	movsbl (%ebx),%eax
  202343:	83 ec 0c             	sub    $0xc,%esp
  202346:	83 c3 01             	add    $0x1,%ebx
  202349:	50                   	push   %eax
  20234a:	e8 a1 f3 ff ff       	call   2016f0 <terminal_putchar>
  20234f:	83 c4 10             	add    $0x10,%esp
  202352:	39 de                	cmp    %ebx,%esi
  202354:	75 ea                	jne    202340 <terminal_write_hex+0x70>
  202356:	8d 65 f8             	lea    -0x8(%ebp),%esp
  202359:	5b                   	pop    %ebx
  20235a:	5e                   	pop    %esi
  20235b:	5d                   	pop    %ebp
  20235c:	c3                   	ret
  20235d:	8d 76 00             	lea    0x0(%esi),%esi

00202360 <terminal_write_ptr>:
  202360:	55                   	push   %ebp
  202361:	89 e5                	mov    %esp,%ebp
  202363:	56                   	push   %esi
  202364:	53                   	push   %ebx
  202365:	83 ec 1c             	sub    $0x1c,%esp
  202368:	8b 5d 08             	mov    0x8(%ebp),%ebx
  20236b:	53                   	push   %ebx
  20236c:	e8 4f e4 ff ff       	call   2007c0 <strlen>
  202371:	83 c4 10             	add    $0x10,%esp
  202374:	85 c0                	test   %eax,%eax
  202376:	74 1e                	je     202396 <terminal_write_ptr+0x36>
  202378:	8d 34 03             	lea    (%ebx,%eax,1),%esi
  20237b:	2e 8d 74 26 00       	lea    %cs:0x0(%esi,%eiz,1),%esi
  202380:	0f be 03             	movsbl (%ebx),%eax
  202383:	83 ec 0c             	sub    $0xc,%esp
  202386:	83 c3 01             	add    $0x1,%ebx
  202389:	50                   	push   %eax
  20238a:	e8 61 f3 ff ff       	call   2016f0 <terminal_putchar>
  20238f:	83 c4 10             	add    $0x10,%esp
  202392:	39 f3                	cmp    %esi,%ebx
  202394:	75 ea                	jne    202380 <terminal_write_ptr+0x20>
  202396:	83 ec 04             	sub    $0x4,%esp
  202399:	8d 5d ec             	lea    -0x14(%ebp),%ebx
  20239c:	6a 01                	push   $0x1
  20239e:	53                   	push   %ebx
  20239f:	ff 75 0c             	push   0xc(%ebp)
  2023a2:	e8 29 e8 ff ff       	call   200bd0 <ptr_to_hex>
  2023a7:	ba 0a 00 00 00       	mov    $0xa,%edx
  2023ac:	66 89 54 05 ec       	mov    %dx,-0x14(%ebp,%eax,1)
  2023b1:	89 1c 24             	mov    %ebx,(%esp)
  2023b4:	e8 07 e4 ff ff       	call   2007c0 <strlen>
  2023b9:	83 c4 10             	add    $0x10,%esp
  2023bc:	85 c0                	test   %eax,%eax
  2023be:	74 26                	je     2023e6 <terminal_write_ptr+0x86>
  2023c0:	8d 34 03             	lea    (%ebx,%eax,1),%esi
  2023c3:	2e 8d b4 26 00 00 00 	lea    %cs:0x0(%esi,%eiz,1),%esi
  2023ca:	00 
  2023cb:	2e 8d 74 26 00       	lea    %cs:0x0(%esi,%eiz,1),%esi
  2023d0:	0f be 03             	movsbl (%ebx),%eax
  2023d3:	83 ec 0c             	sub    $0xc,%esp
  2023d6:	83 c3 01             	add    $0x1,%ebx
  2023d9:	50                   	push   %eax
  2023da:	e8 11 f3 ff ff       	call   2016f0 <terminal_putchar>
  2023df:	83 c4 10             	add    $0x10,%esp
  2023e2:	39 de                	cmp    %ebx,%esi
  2023e4:	75 ea                	jne    2023d0 <terminal_write_ptr+0x70>
  2023e6:	8d 65 f8             	lea    -0x8(%ebp),%esp
  2023e9:	5b                   	pop    %ebx
  2023ea:	5e                   	pop    %esi
  2023eb:	5d                   	pop    %ebp
  2023ec:	c3                   	ret
  2023ed:	8d 76 00             	lea    0x0(%esi),%esi

002023f0 <print_extern_address16>:
  2023f0:	55                   	push   %ebp
  2023f1:	89 e5                	mov    %esp,%ebp
  2023f3:	56                   	push   %esi
  2023f4:	53                   	push   %ebx
  2023f5:	83 ec 1c             	sub    $0x1c,%esp
  2023f8:	8b 5d 08             	mov    0x8(%ebp),%ebx
  2023fb:	53                   	push   %ebx
  2023fc:	e8 bf e3 ff ff       	call   2007c0 <strlen>
  202401:	83 c4 10             	add    $0x10,%esp
  202404:	85 c0                	test   %eax,%eax
  202406:	74 1e                	je     202426 <print_extern_address16+0x36>
  202408:	8d 34 03             	lea    (%ebx,%eax,1),%esi
  20240b:	2e 8d 74 26 00       	lea    %cs:0x0(%esi,%eiz,1),%esi
  202410:	0f be 03             	movsbl (%ebx),%eax
  202413:	83 ec 0c             	sub    $0xc,%esp
  202416:	83 c3 01             	add    $0x1,%ebx
  202419:	50                   	push   %eax
  20241a:	e8 d1 f2 ff ff       	call   2016f0 <terminal_putchar>
  20241f:	83 c4 10             	add    $0x10,%esp
  202422:	39 f3                	cmp    %esi,%ebx
  202424:	75 ea                	jne    202410 <print_extern_address16+0x20>
  202426:	ff 55 0c             	call   *0xc(%ebp)
  202429:	8d 5d ec             	lea    -0x14(%ebp),%ebx
  20242c:	83 ec 08             	sub    $0x8,%esp
  20242f:	0f b7 c0             	movzwl %ax,%eax
  202432:	53                   	push   %ebx
  202433:	50                   	push   %eax
  202434:	e8 a7 e3 ff ff       	call   2007e0 <itoa>
  202439:	ba 0a 00 00 00       	mov    $0xa,%edx
  20243e:	66 89 54 05 ec       	mov    %dx,-0x14(%ebp,%eax,1)
  202443:	89 1c 24             	mov    %ebx,(%esp)
  202446:	e8 75 e3 ff ff       	call   2007c0 <strlen>
  20244b:	83 c4 10             	add    $0x10,%esp
  20244e:	85 c0                	test   %eax,%eax
  202450:	74 24                	je     202476 <print_extern_address16+0x86>
  202452:	8d 34 03             	lea    (%ebx,%eax,1),%esi
  202455:	2e 8d b4 26 00 00 00 	lea    %cs:0x0(%esi,%eiz,1),%esi
  20245c:	00 
  20245d:	8d 76 00             	lea    0x0(%esi),%esi
  202460:	0f be 03             	movsbl (%ebx),%eax
  202463:	83 ec 0c             	sub    $0xc,%esp
  202466:	83 c3 01             	add    $0x1,%ebx
  202469:	50                   	push   %eax
  20246a:	e8 81 f2 ff ff       	call   2016f0 <terminal_putchar>
  20246f:	83 c4 10             	add    $0x10,%esp
  202472:	39 de                	cmp    %ebx,%esi
  202474:	75 ea                	jne    202460 <print_extern_address16+0x70>
  202476:	8d 65 f8             	lea    -0x8(%ebp),%esp
  202479:	5b                   	pop    %ebx
  20247a:	5e                   	pop    %esi
  20247b:	5d                   	pop    %ebp
  20247c:	c3                   	ret
  20247d:	66 90                	xchg   %ax,%ax
  20247f:	90                   	nop

00202480 <printf_fmt_option_to_str>:
  202480:	55                   	push   %ebp
  202481:	89 e5                	mov    %esp,%ebp
  202483:	8b 55 08             	mov    0x8(%ebp),%edx
  202486:	83 fa 02             	cmp    $0x2,%edx
  202489:	74 3d                	je     2024c8 <printf_fmt_option_to_str+0x48>
  20248b:	76 23                	jbe    2024b0 <printf_fmt_option_to_str+0x30>
  20248d:	b8 28 55 20 00       	mov    $0x205528,%eax
  202492:	83 fa 2e             	cmp    $0x2e,%edx
  202495:	74 10                	je     2024a7 <printf_fmt_option_to_str+0x27>
  202497:	83 fa 3a             	cmp    $0x3a,%edx
  20249a:	b8 19 55 20 00       	mov    $0x205519,%eax
  20249f:	ba 3d 55 20 00       	mov    $0x20553d,%edx
  2024a4:	0f 45 c2             	cmovne %edx,%eax
  2024a7:	5d                   	pop    %ebp
  2024a8:	c3                   	ret
  2024a9:	8d b4 26 00 00 00 00 	lea    0x0(%esi,%eiz,1),%esi
  2024b0:	85 d2                	test   %edx,%edx
  2024b2:	b8 ec 54 20 00       	mov    $0x2054ec,%eax
  2024b7:	ba d1 54 20 00       	mov    $0x2054d1,%edx
  2024bc:	5d                   	pop    %ebp
  2024bd:	0f 45 c2             	cmovne %edx,%eax
  2024c0:	c3                   	ret
  2024c1:	8d b4 26 00 00 00 00 	lea    0x0(%esi,%eiz,1),%esi
  2024c8:	b8 fc 54 20 00       	mov    $0x2054fc,%eax
  2024cd:	5d                   	pop    %ebp
  2024ce:	c3                   	ret
  2024cf:	90                   	nop

002024d0 <printf_type_to_str>:
  2024d0:	55                   	push   %ebp
  2024d1:	89 e5                	mov    %esp,%ebp
  2024d3:	8b 45 08             	mov    0x8(%ebp),%eax
  2024d6:	85 c0                	test   %eax,%eax
  2024d8:	0f 84 82 00 00 00    	je     202560 <printf_type_to_str+0x90>
  2024de:	83 e8 62             	sub    $0x62,%eax
  2024e1:	83 f8 13             	cmp    $0x13,%eax
  2024e4:	77 0a                	ja     2024f0 <printf_type_to_str+0x20>
  2024e6:	ff 24 85 00 50 20 00 	jmp    *0x205000(,%eax,4)
  2024ed:	8d 76 00             	lea    0x0(%esi),%esi
  2024f0:	b8 59 55 20 00       	mov    $0x205559,%eax
  2024f5:	5d                   	pop    %ebp
  2024f6:	c3                   	ret
  2024f7:	2e 8d b4 26 00 00 00 	lea    %cs:0x0(%esi,%eiz,1),%esi
  2024fe:	00 
  2024ff:	90                   	nop
  202500:	b8 7b 55 20 00       	mov    $0x20557b,%eax
  202505:	5d                   	pop    %ebp
  202506:	c3                   	ret
  202507:	2e 8d b4 26 00 00 00 	lea    %cs:0x0(%esi,%eiz,1),%esi
  20250e:	00 
  20250f:	90                   	nop
  202510:	b8 af 55 20 00       	mov    $0x2055af,%eax
  202515:	5d                   	pop    %ebp
  202516:	c3                   	ret
  202517:	2e 8d b4 26 00 00 00 	lea    %cs:0x0(%esi,%eiz,1),%esi
  20251e:	00 
  20251f:	90                   	nop
  202520:	b8 6c 55 20 00       	mov    $0x20556c,%eax
  202525:	5d                   	pop    %ebp
  202526:	c3                   	ret
  202527:	2e 8d b4 26 00 00 00 	lea    %cs:0x0(%esi,%eiz,1),%esi
  20252e:	00 
  20252f:	90                   	nop
  202530:	b8 8f 55 20 00       	mov    $0x20558f,%eax
  202535:	5d                   	pop    %ebp
  202536:	c3                   	ret
  202537:	2e 8d b4 26 00 00 00 	lea    %cs:0x0(%esi,%eiz,1),%esi
  20253e:	00 
  20253f:	90                   	nop
  202540:	b8 a0 55 20 00       	mov    $0x2055a0,%eax
  202545:	5d                   	pop    %ebp
  202546:	c3                   	ret
  202547:	2e 8d b4 26 00 00 00 	lea    %cs:0x0(%esi,%eiz,1),%esi
  20254e:	00 
  20254f:	90                   	nop
  202550:	b8 d4 55 20 00       	mov    $0x2055d4,%eax
  202555:	5d                   	pop    %ebp
  202556:	c3                   	ret
  202557:	2e 8d b4 26 00 00 00 	lea    %cs:0x0(%esi,%eiz,1),%esi
  20255e:	00 
  20255f:	90                   	nop
  202560:	b8 c1 55 20 00       	mov    $0x2055c1,%eax
  202565:	5d                   	pop    %ebp
  202566:	c3                   	ret
  202567:	2e 8d b4 26 00 00 00 	lea    %cs:0x0(%esi,%eiz,1),%esi
  20256e:	00 
  20256f:	90                   	nop
  202570:	b8 49 55 20 00       	mov    $0x205549,%eax
  202575:	5d                   	pop    %ebp
  202576:	c3                   	ret
  202577:	2e 8d b4 26 00 00 00 	lea    %cs:0x0(%esi,%eiz,1),%esi
  20257e:	00 
  20257f:	90                   	nop

00202580 <print_info>:
  202580:	55                   	push   %ebp
  202581:	89 e5                	mov    %esp,%ebp
  202583:	83 ec 14             	sub    $0x14,%esp
  202586:	68 e6 55 20 00       	push   $0x2055e6
  20258b:	e8 c0 f2 ff ff       	call   201850 <terminal_writestring>
  202590:	58                   	pop    %eax
  202591:	ff 75 08             	push   0x8(%ebp)
  202594:	e8 37 ff ff ff       	call   2024d0 <printf_type_to_str>
  202599:	89 04 24             	mov    %eax,(%esp)
  20259c:	e8 af f2 ff ff       	call   201850 <terminal_writestring>
  2025a1:	c7 04 24 22 54 20 00 	movl   $0x205422,(%esp)
  2025a8:	e8 a3 f2 ff ff       	call   201850 <terminal_writestring>
  2025ad:	c7 04 24 ee 55 20 00 	movl   $0x2055ee,(%esp)
  2025b4:	e8 97 f2 ff ff       	call   201850 <terminal_writestring>
  2025b9:	8b 55 0c             	mov    0xc(%ebp),%edx
  2025bc:	83 c4 10             	add    $0x10,%esp
  2025bf:	83 fa 02             	cmp    $0x2,%edx
  2025c2:	0f 84 88 00 00 00    	je     202650 <print_info+0xd0>
  2025c8:	76 6e                	jbe    202638 <print_info+0xb8>
  2025ca:	b8 28 55 20 00       	mov    $0x205528,%eax
  2025cf:	83 fa 2e             	cmp    $0x2e,%edx
  2025d2:	74 10                	je     2025e4 <print_info+0x64>
  2025d4:	83 fa 3a             	cmp    $0x3a,%edx
  2025d7:	b8 19 55 20 00       	mov    $0x205519,%eax
  2025dc:	ba 3d 55 20 00       	mov    $0x20553d,%edx
  2025e1:	0f 45 c2             	cmovne %edx,%eax
  2025e4:	83 ec 0c             	sub    $0xc,%esp
  2025e7:	50                   	push   %eax
  2025e8:	e8 63 f2 ff ff       	call   201850 <terminal_writestring>
  2025ed:	c7 04 24 22 54 20 00 	movl   $0x205422,(%esp)
  2025f4:	e8 57 f2 ff ff       	call   201850 <terminal_writestring>
  2025f9:	58                   	pop    %eax
  2025fa:	0f b6 45 10          	movzbl 0x10(%ebp),%eax
  2025fe:	5a                   	pop    %edx
  2025ff:	50                   	push   %eax
  202600:	68 f8 55 20 00       	push   $0x2055f8
  202605:	e8 b6 fb ff ff       	call   2021c0 <terminal_write_uint>
  20260a:	59                   	pop    %ecx
  20260b:	58                   	pop    %eax
  20260c:	0f b6 45 11          	movzbl 0x11(%ebp),%eax
  202610:	50                   	push   %eax
  202611:	68 06 56 20 00       	push   $0x205606
  202616:	e8 a5 fb ff ff       	call   2021c0 <terminal_write_uint>
  20261b:	0f b7 45 12          	movzwl 0x12(%ebp),%eax
  20261f:	83 c4 10             	add    $0x10,%esp
  202622:	c7 45 08 0d 56 20 00 	movl   $0x20560d,0x8(%ebp)
  202629:	89 45 0c             	mov    %eax,0xc(%ebp)
  20262c:	c9                   	leave
  20262d:	e9 8e fb ff ff       	jmp    2021c0 <terminal_write_uint>
  202632:	8d b6 00 00 00 00    	lea    0x0(%esi),%esi
  202638:	85 d2                	test   %edx,%edx
  20263a:	b8 ec 54 20 00       	mov    $0x2054ec,%eax
  20263f:	ba d1 54 20 00       	mov    $0x2054d1,%edx
  202644:	0f 45 c2             	cmovne %edx,%eax
  202647:	eb 9b                	jmp    2025e4 <print_info+0x64>
  202649:	8d b4 26 00 00 00 00 	lea    0x0(%esi,%eiz,1),%esi
  202650:	b8 fc 54 20 00       	mov    $0x2054fc,%eax
  202655:	eb 8d                	jmp    2025e4 <print_info+0x64>
  202657:	2e 8d b4 26 00 00 00 	lea    %cs:0x0(%esi,%eiz,1),%esi
  20265e:	00 
  20265f:	90                   	nop

00202660 <get_single_format_properties>:
  202660:	55                   	push   %ebp
  202661:	89 e5                	mov    %esp,%ebp
  202663:	57                   	push   %edi
  202664:	56                   	push   %esi
  202665:	53                   	push   %ebx
  202666:	83 ec 2c             	sub    $0x2c,%esp
  202669:	8b 45 0c             	mov    0xc(%ebp),%eax
  20266c:	8b 5d 08             	mov    0x8(%ebp),%ebx
  20266f:	0f b6 78 01          	movzbl 0x1(%eax),%edi
  202673:	8d 4f 9e             	lea    -0x62(%edi),%ecx
  202676:	31 ff                	xor    %edi,%edi
  202678:	80 f9 13             	cmp    $0x13,%cl
  20267b:	77 0a                	ja     202687 <get_single_format_properties+0x27>
  20267d:	0f b6 c9             	movzbl %cl,%ecx
  202680:	8b 3c 8d a0 50 20 00 	mov    0x2050a0(,%ecx,4),%edi
  202687:	0f b6 48 02          	movzbl 0x2(%eax),%ecx
  20268b:	80 f9 2e             	cmp    $0x2e,%cl
  20268e:	74 40                	je     2026d0 <get_single_format_properties+0x70>
  202690:	be 3a 00 00 00       	mov    $0x3a,%esi
  202695:	80 f9 3a             	cmp    $0x3a,%cl
  202698:	74 3b                	je     2026d5 <get_single_format_properties+0x75>
  20269a:	c6 45 d4 00          	movb   $0x0,-0x2c(%ebp)
  20269e:	31 f6                	xor    %esi,%esi
  2026a0:	ba 02 00 00 00       	mov    $0x2,%edx
  2026a5:	0f b6 45 d4          	movzbl -0x2c(%ebp),%eax
  2026a9:	89 3b                	mov    %edi,(%ebx)
  2026ab:	89 73 04             	mov    %esi,0x4(%ebx)
  2026ae:	88 43 08             	mov    %al,0x8(%ebx)
  2026b1:	31 c0                	xor    %eax,%eax
  2026b3:	66 89 43 0a          	mov    %ax,0xa(%ebx)
  2026b7:	89 d8                	mov    %ebx,%eax
  2026b9:	88 53 09             	mov    %dl,0x9(%ebx)
  2026bc:	8d 65 f4             	lea    -0xc(%ebp),%esp
  2026bf:	5b                   	pop    %ebx
  2026c0:	5e                   	pop    %esi
  2026c1:	5f                   	pop    %edi
  2026c2:	5d                   	pop    %ebp
  2026c3:	c2 04 00             	ret    $0x4
  2026c6:	2e 8d b4 26 00 00 00 	lea    %cs:0x0(%esi,%eiz,1),%esi
  2026cd:	00 
  2026ce:	66 90                	xchg   %ax,%ax
  2026d0:	be 2e 00 00 00       	mov    $0x2e,%esi
  2026d5:	0f b6 48 03          	movzbl 0x3(%eax),%ecx
  2026d9:	88 4d d3             	mov    %cl,-0x2d(%ebp)
  2026dc:	83 e9 30             	sub    $0x30,%ecx
  2026df:	80 f9 09             	cmp    $0x9,%cl
  2026e2:	0f 87 88 00 00 00    	ja     202770 <get_single_format_properties+0x110>
  2026e8:	0f b6 4d d3          	movzbl -0x2d(%ebp),%ecx
  2026ec:	89 75 d4             	mov    %esi,-0x2c(%ebp)
  2026ef:	83 c0 03             	add    $0x3,%eax
  2026f2:	ba 03 00 00 00       	mov    $0x3,%edx
  2026f7:	c7 45 e0 00 00 00 00 	movl   $0x0,-0x20(%ebp)
  2026fe:	89 de                	mov    %ebx,%esi
  202700:	c7 45 e4 00 00 00 00 	movl   $0x0,-0x1c(%ebp)
  202707:	eb 17                	jmp    202720 <get_single_format_properties+0xc0>
  202709:	2e 8d b4 26 00 00 00 	lea    %cs:0x0(%esi,%eiz,1),%esi
  202710:	00 
  202711:	2e 8d b4 26 00 00 00 	lea    %cs:0x0(%esi,%eiz,1),%esi
  202718:	00 
  202719:	8d b4 26 00 00 00 00 	lea    0x0(%esi,%eiz,1),%esi
  202720:	0f b6 da             	movzbl %dl,%ebx
  202723:	83 c0 01             	add    $0x1,%eax
  202726:	83 c2 01             	add    $0x1,%edx
  202729:	88 4c 1d dd          	mov    %cl,-0x23(%ebp,%ebx,1)
  20272d:	0f b6 08             	movzbl (%eax),%ecx
  202730:	8d 59 d0             	lea    -0x30(%ecx),%ebx
  202733:	80 fb 09             	cmp    $0x9,%bl
  202736:	76 e8                	jbe    202720 <get_single_format_properties+0xc0>
  202738:	0f b6 c2             	movzbl %dl,%eax
  20273b:	83 ec 0c             	sub    $0xc,%esp
  20273e:	88 55 d3             	mov    %dl,-0x2d(%ebp)
  202741:	89 f3                	mov    %esi,%ebx
  202743:	c6 44 05 dd 00       	movb   $0x0,-0x23(%ebp,%eax,1)
  202748:	8d 45 e0             	lea    -0x20(%ebp),%eax
  20274b:	8b 75 d4             	mov    -0x2c(%ebp),%esi
  20274e:	50                   	push   %eax
  20274f:	e8 0c e3 ff ff       	call   200a60 <string_to_uint>
  202754:	83 c4 10             	add    $0x10,%esp
  202757:	b9 02 00 00 00       	mov    $0x2,%ecx
  20275c:	0f b6 55 d3          	movzbl -0x2d(%ebp),%edx
  202760:	83 f8 ff             	cmp    $0xffffffff,%eax
  202763:	88 45 d4             	mov    %al,-0x2c(%ebp)
  202766:	0f 44 f1             	cmove  %ecx,%esi
  202769:	e9 37 ff ff ff       	jmp    2026a5 <get_single_format_properties+0x45>
  20276e:	66 90                	xchg   %ax,%ax
  202770:	be 01 00 00 00       	mov    $0x1,%esi
  202775:	e9 2b ff ff ff       	jmp    2026a5 <get_single_format_properties+0x45>
  20277a:	8d b6 00 00 00 00    	lea    0x0(%esi),%esi

00202780 <terminal_write_offsets>:
  202780:	55                   	push   %ebp
  202781:	89 e5                	mov    %esp,%ebp
  202783:	56                   	push   %esi
  202784:	53                   	push   %ebx
  202785:	8b 55 0c             	mov    0xc(%ebp),%edx
  202788:	8b 45 10             	mov    0x10(%ebp),%eax
  20278b:	8b 4d 08             	mov    0x8(%ebp),%ecx
  20278e:	66 39 c2             	cmp    %ax,%dx
  202791:	73 33                	jae    2027c6 <terminal_write_offsets+0x46>
  202793:	29 d0                	sub    %edx,%eax
  202795:	0f b7 f2             	movzwl %dx,%esi
  202798:	83 e8 01             	sub    $0x1,%eax
  20279b:	8d 1c 31             	lea    (%ecx,%esi,1),%ebx
  20279e:	8d 74 31 01          	lea    0x1(%ecx,%esi,1),%esi
  2027a2:	0f b7 c0             	movzwl %ax,%eax
  2027a5:	01 c6                	add    %eax,%esi
  2027a7:	2e 8d b4 26 00 00 00 	lea    %cs:0x0(%esi,%eiz,1),%esi
  2027ae:	00 
  2027af:	90                   	nop
  2027b0:	0f be 03             	movsbl (%ebx),%eax
  2027b3:	83 ec 0c             	sub    $0xc,%esp
  2027b6:	83 c3 01             	add    $0x1,%ebx
  2027b9:	50                   	push   %eax
  2027ba:	e8 31 ef ff ff       	call   2016f0 <terminal_putchar>
  2027bf:	83 c4 10             	add    $0x10,%esp
  2027c2:	39 f3                	cmp    %esi,%ebx
  2027c4:	75 ea                	jne    2027b0 <terminal_write_offsets+0x30>
  2027c6:	8d 65 f8             	lea    -0x8(%ebp),%esp
  2027c9:	5b                   	pop    %ebx
  2027ca:	5e                   	pop    %esi
  2027cb:	5d                   	pop    %ebp
  2027cc:	c3                   	ret
  2027cd:	8d 76 00             	lea    0x0(%esi),%esi

002027d0 <kprintf_argc>:
  2027d0:	55                   	push   %ebp
  2027d1:	89 e5                	mov    %esp,%ebp
  2027d3:	57                   	push   %edi
  2027d4:	56                   	push   %esi
  2027d5:	53                   	push   %ebx
  2027d6:	83 ec 2c             	sub    $0x2c,%esp
  2027d9:	8b 45 0c             	mov    0xc(%ebp),%eax
  2027dc:	8b 7d 08             	mov    0x8(%ebp),%edi
  2027df:	0f b6 00             	movzbl (%eax),%eax
  2027e2:	8d 5f ff             	lea    -0x1(%edi),%ebx
  2027e5:	84 c0                	test   %al,%al
  2027e7:	0f 84 ae 03 00 00    	je     202b9b <kprintf_argc+0x3cb>
  2027ed:	8b 55 0c             	mov    0xc(%ebp),%edx
  2027f0:	31 f6                	xor    %esi,%esi
  2027f2:	2e 8d b4 26 00 00 00 	lea    %cs:0x0(%esi,%eiz,1),%esi
  2027f9:	00 
  2027fa:	8d b6 00 00 00 00    	lea    0x0(%esi),%esi
  202800:	3c 25                	cmp    $0x25,%al
  202802:	0f 94 c0             	sete   %al
  202805:	83 c2 01             	add    $0x1,%edx
  202808:	01 c6                	add    %eax,%esi
  20280a:	0f b6 02             	movzbl (%edx),%eax
  20280d:	84 c0                	test   %al,%al
  20280f:	75 ef                	jne    202800 <kprintf_argc+0x30>
  202811:	89 f0                	mov    %esi,%eax
  202813:	0f b6 c0             	movzbl %al,%eax
  202816:	89 45 dc             	mov    %eax,-0x24(%ebp)
  202819:	89 f1                	mov    %esi,%ecx
  20281b:	38 cb                	cmp    %cl,%bl
  20281d:	0f 85 88 03 00 00    	jne    202bab <kprintf_argc+0x3db>
  202823:	8d 04 40             	lea    (%eax,%eax,2),%eax
  202826:	8d 04 85 0f 00 00 00 	lea    0xf(,%eax,4),%eax
  20282d:	25 f0 1f 00 00       	and    $0x1ff0,%eax
  202832:	29 c4                	sub    %eax,%esp
  202834:	8d 44 24 03          	lea    0x3(%esp),%eax
  202838:	83 ec 04             	sub    $0x4,%esp
  20283b:	ff 75 dc             	push   -0x24(%ebp)
  20283e:	89 c3                	mov    %eax,%ebx
  202840:	83 e0 fc             	and    $0xfffffffc,%eax
  202843:	89 45 e0             	mov    %eax,-0x20(%ebp)
  202846:	c1 eb 02             	shr    $0x2,%ebx
  202849:	50                   	push   %eax
  20284a:	ff 75 0c             	push   0xc(%ebp)
  20284d:	e8 be 03 00 00       	call   202c10 <set_types_and_pos>
  202852:	58                   	pop    %eax
  202853:	ff 75 0c             	push   0xc(%ebp)
  202856:	e8 65 df ff ff       	call   2007c0 <strlen>
  20285b:	8b 55 dc             	mov    -0x24(%ebp),%edx
  20285e:	8b 4d e0             	mov    -0x20(%ebp),%ecx
  202861:	83 c4 10             	add    $0x10,%esp
  202864:	89 45 d0             	mov    %eax,-0x30(%ebp)
  202867:	0f b7 1c 9d 0a 00 00 	movzwl 0xa(,%ebx,4),%ebx
  20286e:	00 
  20286f:	8d 04 52             	lea    (%edx,%edx,2),%eax
  202872:	0f b7 54 81 fe       	movzwl -0x2(%ecx,%eax,4),%edx
  202877:	0f b6 44 81 fd       	movzbl -0x3(%ecx,%eax,4),%eax
  20287c:	89 f1                	mov    %esi,%ecx
  20287e:	88 45 d7             	mov    %al,-0x29(%ebp)
  202881:	8d 04 bd 0f 00 00 00 	lea    0xf(,%edi,4),%eax
  202888:	83 e0 f0             	and    $0xfffffff0,%eax
  20288b:	66 89 55 d8          	mov    %dx,-0x28(%ebp)
  20288f:	31 d2                	xor    %edx,%edx
  202891:	29 c4                	sub    %eax,%esp
  202893:	66 89 14 24          	mov    %dx,(%esp)
  202897:	8d 53 ff             	lea    -0x1(%ebx),%edx
  20289a:	89 e0                	mov    %esp,%eax
  20289c:	66 89 54 24 02       	mov    %dx,0x2(%esp)
  2028a1:	80 f9 01             	cmp    $0x1,%cl
  2028a4:	0f 86 82 02 00 00    	jbe    202b2c <kprintf_argc+0x35c>
  2028aa:	8d 7c 24 04          	lea    0x4(%esp),%edi
  2028ae:	8d 56 fe             	lea    -0x2(%esi),%edx
  2028b1:	8b 4d e0             	mov    -0x20(%ebp),%ecx
  2028b4:	89 7d e4             	mov    %edi,-0x1c(%ebp)
  2028b7:	0f b6 fa             	movzbl %dl,%edi
  2028ba:	8b 55 e4             	mov    -0x1c(%ebp),%edx
  2028bd:	89 65 e4             	mov    %esp,-0x1c(%ebp)
  2028c0:	83 c1 16             	add    $0x16,%ecx
  2028c3:	8d 7c b8 08          	lea    0x8(%eax,%edi,4),%edi
  2028c7:	eb 17                	jmp    2028e0 <kprintf_argc+0x110>
  2028c9:	2e 8d b4 26 00 00 00 	lea    %cs:0x0(%esi,%eiz,1),%esi
  2028d0:	00 
  2028d1:	2e 8d b4 26 00 00 00 	lea    %cs:0x0(%esi,%eiz,1),%esi
  2028d8:	00 
  2028d9:	8d b4 26 00 00 00 00 	lea    0x0(%esi,%eiz,1),%esi
  2028e0:	0f b6 41 f3          	movzbl -0xd(%ecx),%eax
  2028e4:	83 c2 04             	add    $0x4,%edx
  2028e7:	83 c1 0c             	add    $0xc,%ecx
  2028ea:	01 d8                	add    %ebx,%eax
  2028ec:	0f b7 59 f4          	movzwl -0xc(%ecx),%ebx
  2028f0:	66 89 42 fc          	mov    %ax,-0x4(%edx)
  2028f4:	8d 43 ff             	lea    -0x1(%ebx),%eax
  2028f7:	66 89 42 fe          	mov    %ax,-0x2(%edx)
  2028fb:	39 fa                	cmp    %edi,%edx
  2028fd:	75 e1                	jne    2028e0 <kprintf_argc+0x110>
  2028ff:	8b 45 e4             	mov    -0x1c(%ebp),%eax
  202902:	8b 7d dc             	mov    -0x24(%ebp),%edi
  202905:	0f b6 55 d7          	movzbl -0x29(%ebp),%edx
  202909:	66 03 55 d8          	add    -0x28(%ebp),%dx
  20290d:	66 89 14 b8          	mov    %dx,(%eax,%edi,4)
  202911:	0f b7 55 d0          	movzwl -0x30(%ebp),%edx
  202915:	0f b7 08             	movzwl (%eax),%ecx
  202918:	83 ea 01             	sub    $0x1,%edx
  20291b:	66 89 54 b8 02       	mov    %dx,0x2(%eax,%edi,4)
  202920:	0f b7 78 02          	movzwl 0x2(%eax),%edi
  202924:	8d 5f 01             	lea    0x1(%edi),%ebx
  202927:	66 39 d9             	cmp    %bx,%cx
  20292a:	0f 83 f1 01 00 00    	jae    202b21 <kprintf_argc+0x351>
  202930:	0f b7 f9             	movzwl %cx,%edi
  202933:	03 7d 0c             	add    0xc(%ebp),%edi
  202936:	89 45 d8             	mov    %eax,-0x28(%ebp)
  202939:	29 f9                	sub    %edi,%ecx
  20293b:	89 ca                	mov    %ecx,%edx
  20293d:	89 f1                	mov    %esi,%ecx
  20293f:	89 fe                	mov    %edi,%esi
  202941:	88 4d e4             	mov    %cl,-0x1c(%ebp)
  202944:	89 d7                	mov    %edx,%edi
  202946:	2e 8d b4 26 00 00 00 	lea    %cs:0x0(%esi,%eiz,1),%esi
  20294d:	00 
  20294e:	66 90                	xchg   %ax,%ax
  202950:	0f be 16             	movsbl (%esi),%edx
  202953:	83 ec 0c             	sub    $0xc,%esp
  202956:	83 c6 01             	add    $0x1,%esi
  202959:	52                   	push   %edx
  20295a:	e8 91 ed ff ff       	call   2016f0 <terminal_putchar>
  20295f:	8d 14 37             	lea    (%edi,%esi,1),%edx
  202962:	83 c4 10             	add    $0x10,%esp
  202965:	66 39 da             	cmp    %bx,%dx
  202968:	72 e6                	jb     202950 <kprintf_argc+0x180>
  20296a:	8d 7d 10             	lea    0x10(%ebp),%edi
  20296d:	80 7d e4 00          	cmpb   $0x0,-0x1c(%ebp)
  202971:	8b 45 d8             	mov    -0x28(%ebp),%eax
  202974:	89 7d e4             	mov    %edi,-0x1c(%ebp)
  202977:	0f 84 bb 00 00 00    	je     202a38 <kprintf_argc+0x268>
  20297d:	89 c7                	mov    %eax,%edi
  20297f:	8b 45 dc             	mov    -0x24(%ebp),%eax
  202982:	8b 55 e0             	mov    -0x20(%ebp),%edx
  202985:	8d 04 87             	lea    (%edi,%eax,4),%eax
  202988:	89 45 dc             	mov    %eax,-0x24(%ebp)
  20298b:	8b 45 0c             	mov    0xc(%ebp),%eax
  20298e:	83 c0 01             	add    $0x1,%eax
  202991:	89 45 d8             	mov    %eax,-0x28(%ebp)
  202994:	2e 8d b4 26 00 00 00 	lea    %cs:0x0(%esi,%eiz,1),%esi
  20299b:	00 
  20299c:	8d 74 26 00          	lea    0x0(%esi,%eiz,1),%esi
  2029a0:	8b 02                	mov    (%edx),%eax
  2029a2:	83 e8 62             	sub    $0x62,%eax
  2029a5:	83 f8 13             	cmp    $0x13,%eax
  2029a8:	77 36                	ja     2029e0 <kprintf_argc+0x210>
  2029aa:	ff 24 85 50 50 20 00 	jmp    *0x205050(,%eax,4)
  2029b1:	8b 45 e4             	mov    -0x1c(%ebp),%eax
  2029b4:	8d 58 04             	lea    0x4(%eax),%ebx
  2029b7:	8b 00                	mov    (%eax),%eax
  2029b9:	83 7a 04 3a          	cmpl   $0x3a,0x4(%edx)
  2029bd:	0f 84 bc 01 00 00    	je     202b7f <kprintf_argc+0x3af>
  2029c3:	83 ec 08             	sub    $0x8,%esp
  2029c6:	89 55 e4             	mov    %edx,-0x1c(%ebp)
  2029c9:	6a 00                	push   $0x0
  2029cb:	50                   	push   %eax
  2029cc:	e8 ff e6 ff ff       	call   2010d0 <print_hex_f>
  2029d1:	8b 55 e4             	mov    -0x1c(%ebp),%edx
  2029d4:	83 c4 10             	add    $0x10,%esp
  2029d7:	89 5d e4             	mov    %ebx,-0x1c(%ebp)
  2029da:	8d b6 00 00 00 00    	lea    0x0(%esi),%esi
  2029e0:	0f b7 47 06          	movzwl 0x6(%edi),%eax
  2029e4:	0f b7 4f 04          	movzwl 0x4(%edi),%ecx
  2029e8:	8d 58 01             	lea    0x1(%eax),%ebx
  2029eb:	66 39 d9             	cmp    %bx,%cx
  2029ee:	73 39                	jae    202a29 <kprintf_argc+0x259>
  2029f0:	8b 5d 0c             	mov    0xc(%ebp),%ebx
  2029f3:	0f b7 f1             	movzwl %cx,%esi
  2029f6:	29 c8                	sub    %ecx,%eax
  2029f8:	0f b7 c0             	movzwl %ax,%eax
  2029fb:	01 f3                	add    %esi,%ebx
  2029fd:	03 75 d8             	add    -0x28(%ebp),%esi
  202a00:	89 5d e0             	mov    %ebx,-0x20(%ebp)
  202a03:	8b 5d e0             	mov    -0x20(%ebp),%ebx
  202a06:	01 c6                	add    %eax,%esi
  202a08:	89 55 e0             	mov    %edx,-0x20(%ebp)
  202a0b:	2e 8d 74 26 00       	lea    %cs:0x0(%esi,%eiz,1),%esi
  202a10:	0f be 13             	movsbl (%ebx),%edx
  202a13:	83 ec 0c             	sub    $0xc,%esp
  202a16:	83 c3 01             	add    $0x1,%ebx
  202a19:	52                   	push   %edx
  202a1a:	e8 d1 ec ff ff       	call   2016f0 <terminal_putchar>
  202a1f:	83 c4 10             	add    $0x10,%esp
  202a22:	39 f3                	cmp    %esi,%ebx
  202a24:	75 ea                	jne    202a10 <kprintf_argc+0x240>
  202a26:	8b 55 e0             	mov    -0x20(%ebp),%edx
  202a29:	83 c2 0c             	add    $0xc,%edx
  202a2c:	83 c7 04             	add    $0x4,%edi
  202a2f:	3b 7d dc             	cmp    -0x24(%ebp),%edi
  202a32:	0f 85 68 ff ff ff    	jne    2029a0 <kprintf_argc+0x1d0>
  202a38:	8d 65 f4             	lea    -0xc(%ebp),%esp
  202a3b:	5b                   	pop    %ebx
  202a3c:	5e                   	pop    %esi
  202a3d:	5f                   	pop    %edi
  202a3e:	5d                   	pop    %ebp
  202a3f:	c3                   	ret
  202a40:	8b 4d e4             	mov    -0x1c(%ebp),%ecx
  202a43:	89 55 e0             	mov    %edx,-0x20(%ebp)
  202a46:	83 ec 0c             	sub    $0xc,%esp
  202a49:	89 c8                	mov    %ecx,%eax
  202a4b:	83 c1 04             	add    $0x4,%ecx
  202a4e:	89 4d e4             	mov    %ecx,-0x1c(%ebp)
  202a51:	ff 30                	push   (%eax)
  202a53:	e8 08 f5 ff ff       	call   201f60 <print_uint_var_no_newline>
  202a58:	8b 55 e0             	mov    -0x20(%ebp),%edx
  202a5b:	83 c4 10             	add    $0x10,%esp
  202a5e:	eb 80                	jmp    2029e0 <kprintf_argc+0x210>
  202a60:	8b 4d e4             	mov    -0x1c(%ebp),%ecx
  202a63:	89 55 e0             	mov    %edx,-0x20(%ebp)
  202a66:	83 ec 0c             	sub    $0xc,%esp
  202a69:	89 c8                	mov    %ecx,%eax
  202a6b:	83 c1 04             	add    $0x4,%ecx
  202a6e:	89 4d e4             	mov    %ecx,-0x1c(%ebp)
  202a71:	ff 30                	push   (%eax)
  202a73:	e8 d8 ed ff ff       	call   201850 <terminal_writestring>
  202a78:	8b 55 e0             	mov    -0x20(%ebp),%edx
  202a7b:	83 c4 10             	add    $0x10,%esp
  202a7e:	e9 5d ff ff ff       	jmp    2029e0 <kprintf_argc+0x210>
  202a83:	8b 45 e4             	mov    -0x1c(%ebp),%eax
  202a86:	dd 00                	fldl   (%eax)
  202a88:	8d 58 08             	lea    0x8(%eax),%ebx
  202a8b:	d9 5d e4             	fstps  -0x1c(%ebp)
  202a8e:	8b 4d e4             	mov    -0x1c(%ebp),%ecx
  202a91:	83 7a 04 2e          	cmpl   $0x2e,0x4(%edx)
  202a95:	0f 84 c8 00 00 00    	je     202b63 <kprintf_argc+0x393>
  202a9b:	83 ec 0c             	sub    $0xc,%esp
  202a9e:	89 55 e4             	mov    %edx,-0x1c(%ebp)
  202aa1:	51                   	push   %ecx
  202aa2:	e8 09 f5 ff ff       	call   201fb0 <print_float_var_no_newline>
  202aa7:	8b 55 e4             	mov    -0x1c(%ebp),%edx
  202aaa:	83 c4 10             	add    $0x10,%esp
  202aad:	e9 25 ff ff ff       	jmp    2029d7 <kprintf_argc+0x207>
  202ab2:	8b 4d e4             	mov    -0x1c(%ebp),%ecx
  202ab5:	89 55 e0             	mov    %edx,-0x20(%ebp)
  202ab8:	83 ec 0c             	sub    $0xc,%esp
  202abb:	89 c8                	mov    %ecx,%eax
  202abd:	83 c1 04             	add    $0x4,%ecx
  202ac0:	89 4d e4             	mov    %ecx,-0x1c(%ebp)
  202ac3:	ff 30                	push   (%eax)
  202ac5:	e8 e6 f2 ff ff       	call   201db0 <print_int_var_no_newline>
  202aca:	8b 55 e0             	mov    -0x20(%ebp),%edx
  202acd:	83 c4 10             	add    $0x10,%esp
  202ad0:	e9 0b ff ff ff       	jmp    2029e0 <kprintf_argc+0x210>
  202ad5:	8b 4d e4             	mov    -0x1c(%ebp),%ecx
  202ad8:	83 ec 0c             	sub    $0xc,%esp
  202adb:	89 55 e0             	mov    %edx,-0x20(%ebp)
  202ade:	89 c8                	mov    %ecx,%eax
  202ae0:	83 c1 04             	add    $0x4,%ecx
  202ae3:	0f be 00             	movsbl (%eax),%eax
  202ae6:	89 4d e4             	mov    %ecx,-0x1c(%ebp)
  202ae9:	50                   	push   %eax
  202aea:	e8 01 ec ff ff       	call   2016f0 <terminal_putchar>
  202aef:	8b 55 e0             	mov    -0x20(%ebp),%edx
  202af2:	83 c4 10             	add    $0x10,%esp
  202af5:	e9 e6 fe ff ff       	jmp    2029e0 <kprintf_argc+0x210>
  202afa:	8b 45 e4             	mov    -0x1c(%ebp),%eax
  202afd:	8d 58 04             	lea    0x4(%eax),%ebx
  202b00:	8b 00                	mov    (%eax),%eax
  202b02:	83 7a 04 3a          	cmpl   $0x3a,0x4(%edx)
  202b06:	74 3f                	je     202b47 <kprintf_argc+0x377>
  202b08:	83 ec 08             	sub    $0x8,%esp
  202b0b:	89 55 e4             	mov    %edx,-0x1c(%ebp)
  202b0e:	6a 00                	push   $0x0
  202b10:	50                   	push   %eax
  202b11:	e8 ea e4 ff ff       	call   201000 <print_binary_var_no_newline>
  202b16:	8b 55 e4             	mov    -0x1c(%ebp),%edx
  202b19:	83 c4 10             	add    $0x10,%esp
  202b1c:	e9 b6 fe ff ff       	jmp    2029d7 <kprintf_argc+0x207>
  202b21:	8d 7d 10             	lea    0x10(%ebp),%edi
  202b24:	89 7d e4             	mov    %edi,-0x1c(%ebp)
  202b27:	e9 51 fe ff ff       	jmp    20297d <kprintf_argc+0x1ad>
  202b2c:	84 c9                	test   %cl,%cl
  202b2e:	0f 85 ce fd ff ff    	jne    202902 <kprintf_argc+0x132>
  202b34:	31 c9                	xor    %ecx,%ecx
  202b36:	66 85 db             	test   %bx,%bx
  202b39:	0f 85 f1 fd ff ff    	jne    202930 <kprintf_argc+0x160>
  202b3f:	8d 65 f4             	lea    -0xc(%ebp),%esp
  202b42:	5b                   	pop    %ebx
  202b43:	5e                   	pop    %esi
  202b44:	5f                   	pop    %edi
  202b45:	5d                   	pop    %ebp
  202b46:	c3                   	ret
  202b47:	0f b6 4a 08          	movzbl 0x8(%edx),%ecx
  202b4b:	83 ec 08             	sub    $0x8,%esp
  202b4e:	89 55 e4             	mov    %edx,-0x1c(%ebp)
  202b51:	51                   	push   %ecx
  202b52:	50                   	push   %eax
  202b53:	e8 a8 e4 ff ff       	call   201000 <print_binary_var_no_newline>
  202b58:	8b 55 e4             	mov    -0x1c(%ebp),%edx
  202b5b:	83 c4 10             	add    $0x10,%esp
  202b5e:	e9 74 fe ff ff       	jmp    2029d7 <kprintf_argc+0x207>
  202b63:	0f b6 42 08          	movzbl 0x8(%edx),%eax
  202b67:	83 ec 08             	sub    $0x8,%esp
  202b6a:	89 55 e4             	mov    %edx,-0x1c(%ebp)
  202b6d:	50                   	push   %eax
  202b6e:	51                   	push   %ecx
  202b6f:	e8 8c f4 ff ff       	call   202000 <print_float_var_no_newline_precision>
  202b74:	8b 55 e4             	mov    -0x1c(%ebp),%edx
  202b77:	83 c4 10             	add    $0x10,%esp
  202b7a:	e9 58 fe ff ff       	jmp    2029d7 <kprintf_argc+0x207>
  202b7f:	0f b6 4a 08          	movzbl 0x8(%edx),%ecx
  202b83:	83 ec 08             	sub    $0x8,%esp
  202b86:	89 55 e4             	mov    %edx,-0x1c(%ebp)
  202b89:	51                   	push   %ecx
  202b8a:	50                   	push   %eax
  202b8b:	e8 40 e5 ff ff       	call   2010d0 <print_hex_f>
  202b90:	8b 55 e4             	mov    -0x1c(%ebp),%edx
  202b93:	83 c4 10             	add    $0x10,%esp
  202b96:	e9 3c fe ff ff       	jmp    2029d7 <kprintf_argc+0x207>
  202b9b:	c7 45 dc 00 00 00 00 	movl   $0x0,-0x24(%ebp)
  202ba2:	31 c0                	xor    %eax,%eax
  202ba4:	31 f6                	xor    %esi,%esi
  202ba6:	e9 6e fc ff ff       	jmp    202819 <kprintf_argc+0x49>
  202bab:	83 ec 0c             	sub    $0xc,%esp
  202bae:	89 45 e4             	mov    %eax,-0x1c(%ebp)
  202bb1:	0f b6 db             	movzbl %bl,%ebx
  202bb4:	68 14 56 20 00       	push   $0x205614
  202bb9:	e8 92 ec ff ff       	call   201850 <terminal_writestring>
  202bbe:	59                   	pop    %ecx
  202bbf:	5e                   	pop    %esi
  202bc0:	53                   	push   %ebx
  202bc1:	68 06 56 20 00       	push   $0x205606
  202bc6:	e8 f5 f5 ff ff       	call   2021c0 <terminal_write_uint>
  202bcb:	5f                   	pop    %edi
  202bcc:	58                   	pop    %eax
  202bcd:	8b 45 e4             	mov    -0x1c(%ebp),%eax
  202bd0:	50                   	push   %eax
  202bd1:	68 26 56 20 00       	push   $0x205626
  202bd6:	e8 e5 f5 ff ff       	call   2021c0 <terminal_write_uint>
  202bdb:	c7 04 24 e5 00 00 00 	movl   $0xe5,(%esp)
  202be2:	68 33 56 20 00       	push   $0x205633
  202be7:	68 41 56 20 00       	push   $0x205641
  202bec:	68 9a 54 20 00       	push   $0x20549a
  202bf1:	6a 04                	push   $0x4
  202bf3:	e8 d8 fb ff ff       	call   2027d0 <kprintf_argc>
  202bf8:	83 c4 14             	add    $0x14,%esp
  202bfb:	68 b1 54 20 00       	push   $0x2054b1
  202c00:	e8 4b ec ff ff       	call   201850 <terminal_writestring>
  202c05:	83 c4 10             	add    $0x10,%esp
  202c08:	fa                   	cli
  202c09:	f4                   	hlt
  202c0a:	eb fc                	jmp    202c08 <kprintf_argc+0x438>
  202c0c:	8d 74 26 00          	lea    0x0(%esi,%eiz,1),%esi

00202c10 <set_types_and_pos>:
  202c10:	55                   	push   %ebp
  202c11:	89 e5                	mov    %esp,%ebp
  202c13:	57                   	push   %edi
  202c14:	56                   	push   %esi
  202c15:	53                   	push   %ebx
  202c16:	83 ec 2c             	sub    $0x2c,%esp
  202c19:	8b 4d 08             	mov    0x8(%ebp),%ecx
  202c1c:	0f b6 45 10          	movzbl 0x10(%ebp),%eax
  202c20:	0f b6 11             	movzbl (%ecx),%edx
  202c23:	88 45 d3             	mov    %al,-0x2d(%ebp)
  202c26:	84 d2                	test   %dl,%dl
  202c28:	74 7f                	je     202ca9 <set_types_and_pos+0x99>
  202c2a:	89 c8                	mov    %ecx,%eax
  202c2c:	31 db                	xor    %ebx,%ebx
  202c2e:	31 ff                	xor    %edi,%edi
  202c30:	89 ce                	mov    %ecx,%esi
  202c32:	eb 1b                	jmp    202c4f <set_types_and_pos+0x3f>
  202c34:	2e 8d b4 26 00 00 00 	lea    %cs:0x0(%esi,%eiz,1),%esi
  202c3b:	00 
  202c3c:	8d 74 26 00          	lea    0x0(%esi,%eiz,1),%esi
  202c40:	83 c3 01             	add    $0x1,%ebx
  202c43:	0f b7 c3             	movzwl %bx,%eax
  202c46:	01 f0                	add    %esi,%eax
  202c48:	0f b6 10             	movzbl (%eax),%edx
  202c4b:	84 d2                	test   %dl,%dl
  202c4d:	74 5a                	je     202ca9 <set_types_and_pos+0x99>
  202c4f:	80 fa 25             	cmp    $0x25,%dl
  202c52:	75 ec                	jne    202c40 <set_types_and_pos+0x30>
  202c54:	89 f9                	mov    %edi,%ecx
  202c56:	89 fa                	mov    %edi,%edx
  202c58:	0f b6 c9             	movzbl %cl,%ecx
  202c5b:	89 4d d4             	mov    %ecx,-0x2c(%ebp)
  202c5e:	38 55 d3             	cmp    %dl,-0x2d(%ebp)
  202c61:	74 4e                	je     202cb1 <set_types_and_pos+0xa1>
  202c63:	83 ec 08             	sub    $0x8,%esp
  202c66:	83 c7 01             	add    $0x1,%edi
  202c69:	50                   	push   %eax
  202c6a:	8d 45 dc             	lea    -0x24(%ebp),%eax
  202c6d:	50                   	push   %eax
  202c6e:	e8 ed f9 ff ff       	call   202660 <get_single_format_properties>
  202c73:	8b 45 d4             	mov    -0x2c(%ebp),%eax
  202c76:	8b 4d 0c             	mov    0xc(%ebp),%ecx
  202c79:	8b 55 dc             	mov    -0x24(%ebp),%edx
  202c7c:	83 c4 0c             	add    $0xc,%esp
  202c7f:	8d 04 40             	lea    (%eax,%eax,2),%eax
  202c82:	89 14 81             	mov    %edx,(%ecx,%eax,4)
  202c85:	8b 55 e0             	mov    -0x20(%ebp),%edx
  202c88:	66 89 5c 81 0a       	mov    %bx,0xa(%ecx,%eax,4)
  202c8d:	83 c3 01             	add    $0x1,%ebx
  202c90:	89 54 81 04          	mov    %edx,0x4(%ecx,%eax,4)
  202c94:	0f b7 55 e4          	movzwl -0x1c(%ebp),%edx
  202c98:	66 89 54 81 08       	mov    %dx,0x8(%ecx,%eax,4)
  202c9d:	0f b7 c3             	movzwl %bx,%eax
  202ca0:	01 f0                	add    %esi,%eax
  202ca2:	0f b6 10             	movzbl (%eax),%edx
  202ca5:	84 d2                	test   %dl,%dl
  202ca7:	75 a6                	jne    202c4f <set_types_and_pos+0x3f>
  202ca9:	8d 65 f4             	lea    -0xc(%ebp),%esp
  202cac:	5b                   	pop    %ebx
  202cad:	5e                   	pop    %esi
  202cae:	5f                   	pop    %edi
  202caf:	5d                   	pop    %ebp
  202cb0:	c3                   	ret
  202cb1:	83 ec 08             	sub    $0x8,%esp
  202cb4:	89 ce                	mov    %ecx,%esi
  202cb6:	51                   	push   %ecx
  202cb7:	68 4e 56 20 00       	push   $0x20564e
  202cbc:	e8 ff f4 ff ff       	call   2021c0 <terminal_write_uint>
  202cc1:	58                   	pop    %eax
  202cc2:	5a                   	pop    %edx
  202cc3:	56                   	push   %esi
  202cc4:	68 56 56 20 00       	push   $0x205656
  202cc9:	e8 f2 f4 ff ff       	call   2021c0 <terminal_write_uint>
  202cce:	c7 04 24 b6 00 00 00 	movl   $0xb6,(%esp)
  202cd5:	68 33 56 20 00       	push   $0x205633
  202cda:	68 41 56 20 00       	push   $0x205641
  202cdf:	68 9a 54 20 00       	push   $0x20549a
  202ce4:	6a 04                	push   $0x4
  202ce6:	e8 e5 fa ff ff       	call   2027d0 <kprintf_argc>
  202ceb:	83 c4 14             	add    $0x14,%esp
  202cee:	68 b1 54 20 00       	push   $0x2054b1
  202cf3:	e8 58 eb ff ff       	call   201850 <terminal_writestring>
  202cf8:	83 c4 10             	add    $0x10,%esp
  202cfb:	2e 8d 74 26 00       	lea    %cs:0x0(%esi,%eiz,1),%esi
  202d00:	fa                   	cli
  202d01:	f4                   	hlt
  202d02:	eb fc                	jmp    202d00 <set_types_and_pos+0xf0>
  202d04:	2e 8d b4 26 00 00 00 	lea    %cs:0x0(%esi,%eiz,1),%esi
  202d0b:	00 
  202d0c:	8d 74 26 00          	lea    0x0(%esi,%eiz,1),%esi

00202d10 <count_char>:
  202d10:	55                   	push   %ebp
  202d11:	31 c9                	xor    %ecx,%ecx
  202d13:	89 e5                	mov    %esp,%ebp
  202d15:	53                   	push   %ebx
  202d16:	8b 55 08             	mov    0x8(%ebp),%edx
  202d19:	0f b6 5d 0c          	movzbl 0xc(%ebp),%ebx
  202d1d:	0f b6 02             	movzbl (%edx),%eax
  202d20:	84 c0                	test   %al,%al
  202d22:	74 2d                	je     202d51 <count_char+0x41>
  202d24:	eb 1a                	jmp    202d40 <count_char+0x30>
  202d26:	2e 8d b4 26 00 00 00 	lea    %cs:0x0(%esi,%eiz,1),%esi
  202d2d:	00 
  202d2e:	2e 8d b4 26 00 00 00 	lea    %cs:0x0(%esi,%eiz,1),%esi
  202d35:	00 
  202d36:	2e 8d b4 26 00 00 00 	lea    %cs:0x0(%esi,%eiz,1),%esi
  202d3d:	00 
  202d3e:	66 90                	xchg   %ax,%ax
  202d40:	38 c3                	cmp    %al,%bl
  202d42:	0f 94 c0             	sete   %al
  202d45:	83 c2 01             	add    $0x1,%edx
  202d48:	01 c1                	add    %eax,%ecx
  202d4a:	0f b6 02             	movzbl (%edx),%eax
  202d4d:	84 c0                	test   %al,%al
  202d4f:	75 ef                	jne    202d40 <count_char+0x30>
  202d51:	8b 5d fc             	mov    -0x4(%ebp),%ebx
  202d54:	89 c8                	mov    %ecx,%eax
  202d56:	c9                   	leave
  202d57:	c3                   	ret
  202d58:	66 90                	xchg   %ax,%ax
  202d5a:	66 90                	xchg   %ax,%ax
  202d5c:	66 90                	xchg   %ax,%ax
  202d5e:	66 90                	xchg   %ax,%ax

00202d60 <exception_handler>:
  202d60:	fa                   	cli
  202d61:	f4                   	hlt
  202d62:	eb fc                	jmp    202d60 <exception_handler>
  202d64:	2e 8d b4 26 00 00 00 	lea    %cs:0x0(%esi,%eiz,1),%esi
  202d6b:	00 
  202d6c:	8d 74 26 00          	lea    0x0(%esi,%eiz,1),%esi

00202d70 <idt_set_descriptor>:
  202d70:	55                   	push   %ebp
  202d71:	89 e5                	mov    %esp,%ebp
  202d73:	57                   	push   %edi
  202d74:	56                   	push   %esi
  202d75:	53                   	push   %ebx
  202d76:	83 ec 0c             	sub    $0xc,%esp
  202d79:	8b 45 10             	mov    0x10(%ebp),%eax
  202d7c:	8b 55 08             	mov    0x8(%ebp),%edx
  202d7f:	8b 75 0c             	mov    0xc(%ebp),%esi
  202d82:	8b 5d 14             	mov    0x14(%ebp),%ebx
  202d85:	8b 4d 18             	mov    0x18(%ebp),%ecx
  202d88:	83 f8 07             	cmp    $0x7,%eax
  202d8b:	77 4b                	ja     202dd8 <idt_set_descriptor+0x68>
  202d8d:	83 f8 04             	cmp    $0x4,%eax
  202d90:	77 4e                	ja     202de0 <idt_set_descriptor+0x70>
  202d92:	83 ec 08             	sub    $0x8,%esp
  202d95:	68 71 54 20 00       	push   $0x205471
  202d9a:	6a 01                	push   $0x1
  202d9c:	e8 2f fa ff ff       	call   2027d0 <kprintf_argc>
  202da1:	c7 04 24 22 00 00 00 	movl   $0x22,(%esp)
  202da8:	68 5f 56 20 00       	push   $0x20565f
  202dad:	68 69 56 20 00       	push   $0x205669
  202db2:	68 9a 54 20 00       	push   $0x20549a
  202db7:	6a 04                	push   $0x4
  202db9:	e8 12 fa ff ff       	call   2027d0 <kprintf_argc>
  202dbe:	83 c4 14             	add    $0x14,%esp
  202dc1:	68 b1 54 20 00       	push   $0x2054b1
  202dc6:	e8 85 ea ff ff       	call   201850 <terminal_writestring>
  202dcb:	83 c4 10             	add    $0x10,%esp
  202dce:	fa                   	cli
  202dcf:	f4                   	hlt
  202dd0:	eb fc                	jmp    202dce <idt_set_descriptor+0x5e>
  202dd2:	8d b6 00 00 00 00    	lea    0x0(%esi),%esi
  202dd8:	8d 78 f2             	lea    -0xe(%eax),%edi
  202ddb:	83 ff 01             	cmp    $0x1,%edi
  202dde:	77 b2                	ja     202d92 <idt_set_descriptor+0x22>
  202de0:	c1 e0 18             	shl    $0x18,%eax
  202de3:	83 e3 03             	and    $0x3,%ebx
  202de6:	0f b6 d2             	movzbl %dl,%edx
  202de9:	c1 e1 1f             	shl    $0x1f,%ecx
  202dec:	25 00 00 00 0f       	and    $0xf000000,%eax
  202df1:	c1 e3 1d             	shl    $0x1d,%ebx
  202df4:	66 89 34 d5 30 21 23 	mov    %si,0x232130(,%edx,8)
  202dfb:	00 
  202dfc:	83 c8 10             	or     $0x10,%eax
  202dff:	c1 ee 10             	shr    $0x10,%esi
  202e02:	09 d8                	or     %ebx,%eax
  202e04:	66 89 34 d5 36 21 23 	mov    %si,0x232136(,%edx,8)
  202e0b:	00 
  202e0c:	09 c8                	or     %ecx,%eax
  202e0e:	89 04 d5 32 21 23 00 	mov    %eax,0x232132(,%edx,8)
  202e15:	8d 65 f4             	lea    -0xc(%ebp),%esp
  202e18:	5b                   	pop    %ebx
  202e19:	5e                   	pop    %esi
  202e1a:	5f                   	pop    %edi
  202e1b:	5d                   	pop    %ebp
  202e1c:	c3                   	ret
  202e1d:	8d 76 00             	lea    0x0(%esi),%esi

00202e20 <idt_init>:
  202e20:	55                   	push   %ebp
  202e21:	b8 ff 07 00 00       	mov    $0x7ff,%eax
  202e26:	89 e5                	mov    %esp,%ebp
  202e28:	53                   	push   %ebx
  202e29:	31 db                	xor    %ebx,%ebx
  202e2b:	83 ec 14             	sub    $0x14,%esp
  202e2e:	66 a3 20 21 23 00    	mov    %ax,0x232120
  202e34:	c7 05 22 21 23 00 30 	movl   $0x232130,0x232122
  202e3b:	21 23 00 
  202e3e:	66 90                	xchg   %ax,%ax
  202e40:	83 ec 0c             	sub    $0xc,%esp
  202e43:	6a 01                	push   $0x1
  202e45:	6a 00                	push   $0x0
  202e47:	6a 0e                	push   $0xe
  202e49:	ff 34 9d c9 31 20 00 	push   0x2031c9(,%ebx,4)
  202e50:	53                   	push   %ebx
  202e51:	83 c3 01             	add    $0x1,%ebx
  202e54:	e8 17 ff ff ff       	call   202d70 <idt_set_descriptor>
  202e59:	83 c4 20             	add    $0x20,%esp
  202e5c:	83 fb 20             	cmp    $0x20,%ebx
  202e5f:	75 df                	jne    202e40 <idt_init+0x20>
  202e61:	83 ec 0c             	sub    $0xc,%esp
  202e64:	6a 01                	push   $0x1
  202e66:	6a 00                	push   $0x0
  202e68:	6a 0e                	push   $0xe
  202e6a:	68 da 32 20 00       	push   $0x2032da
  202e6f:	6a 08                	push   $0x8
  202e71:	e8 fa fe ff ff       	call   202d70 <idt_set_descriptor>
  202e76:	a1 20 21 23 00       	mov    0x232120,%eax
  202e7b:	89 45 f2             	mov    %eax,-0xe(%ebp)
  202e7e:	0f b7 05 24 21 23 00 	movzwl 0x232124,%eax
  202e85:	66 89 45 f6          	mov    %ax,-0xa(%ebp)
  202e89:	0f 01 5d f2          	lidtl  -0xe(%ebp)
  202e8d:	fb                   	sti
  202e8e:	8b 5d fc             	mov    -0x4(%ebp),%ebx
  202e91:	83 c4 20             	add    $0x20,%esp
  202e94:	c9                   	leave
  202e95:	c3                   	ret
  202e96:	66 90                	xchg   %ax,%ax
  202e98:	66 90                	xchg   %ax,%ax
  202e9a:	66 90                	xchg   %ax,%ax
  202e9c:	66 90                	xchg   %ax,%ax
  202e9e:	66 90                	xchg   %ax,%ax

00202ea0 <hlt_loop>:
  202ea0:	b8 cd ab 34 12       	mov    $0x1234abcd,%eax
  202ea5:	fa                   	cli
  202ea6:	f4                   	hlt
  202ea7:	eb f7                	jmp    202ea0 <hlt_loop>

00202ea9 <isr_stub_0>:
  202ea9:	55                   	push   %ebp
  202eaa:	89 e5                	mov    %esp,%ebp
  202eac:	6a 00                	push   $0x0
  202eae:	68 f4 50 20 00       	push   $0x2050f4
  202eb3:	ff 35 f0 50 20 00    	push   0x2050f0
  202eb9:	e8 12 f9 ff ff       	call   2027d0 <kprintf_argc>
  202ebe:	89 ec                	mov    %ebp,%esp
  202ec0:	5d                   	pop    %ebp
  202ec1:	cf                   	iret

00202ec2 <isr_stub_1>:
  202ec2:	55                   	push   %ebp
  202ec3:	89 e5                	mov    %esp,%ebp
  202ec5:	6a 01                	push   $0x1
  202ec7:	68 f4 50 20 00       	push   $0x2050f4
  202ecc:	ff 35 f0 50 20 00    	push   0x2050f0
  202ed2:	e8 f9 f8 ff ff       	call   2027d0 <kprintf_argc>
  202ed7:	89 ec                	mov    %ebp,%esp
  202ed9:	5d                   	pop    %ebp
  202eda:	cf                   	iret

00202edb <isr_stub_2>:
  202edb:	55                   	push   %ebp
  202edc:	89 e5                	mov    %esp,%ebp
  202ede:	6a 02                	push   $0x2
  202ee0:	68 f4 50 20 00       	push   $0x2050f4
  202ee5:	ff 35 f0 50 20 00    	push   0x2050f0
  202eeb:	e8 e0 f8 ff ff       	call   2027d0 <kprintf_argc>
  202ef0:	89 ec                	mov    %ebp,%esp
  202ef2:	5d                   	pop    %ebp
  202ef3:	cf                   	iret

00202ef4 <isr_stub_3>:
  202ef4:	55                   	push   %ebp
  202ef5:	89 e5                	mov    %esp,%ebp
  202ef7:	6a 03                	push   $0x3
  202ef9:	68 f4 50 20 00       	push   $0x2050f4
  202efe:	ff 35 f0 50 20 00    	push   0x2050f0
  202f04:	e8 c7 f8 ff ff       	call   2027d0 <kprintf_argc>
  202f09:	89 ec                	mov    %ebp,%esp
  202f0b:	5d                   	pop    %ebp
  202f0c:	cf                   	iret

00202f0d <isr_stub_4>:
  202f0d:	55                   	push   %ebp
  202f0e:	89 e5                	mov    %esp,%ebp
  202f10:	6a 04                	push   $0x4
  202f12:	68 f4 50 20 00       	push   $0x2050f4
  202f17:	ff 35 f0 50 20 00    	push   0x2050f0
  202f1d:	e8 ae f8 ff ff       	call   2027d0 <kprintf_argc>
  202f22:	89 ec                	mov    %ebp,%esp
  202f24:	5d                   	pop    %ebp
  202f25:	cf                   	iret

00202f26 <isr_stub_5>:
  202f26:	55                   	push   %ebp
  202f27:	89 e5                	mov    %esp,%ebp
  202f29:	6a 05                	push   $0x5
  202f2b:	68 f4 50 20 00       	push   $0x2050f4
  202f30:	ff 35 f0 50 20 00    	push   0x2050f0
  202f36:	e8 95 f8 ff ff       	call   2027d0 <kprintf_argc>
  202f3b:	89 ec                	mov    %ebp,%esp
  202f3d:	5d                   	pop    %ebp
  202f3e:	cf                   	iret

00202f3f <isr_stub_6>:
  202f3f:	55                   	push   %ebp
  202f40:	89 e5                	mov    %esp,%ebp
  202f42:	6a 06                	push   $0x6
  202f44:	68 f4 50 20 00       	push   $0x2050f4
  202f49:	ff 35 f0 50 20 00    	push   0x2050f0
  202f4f:	e8 7c f8 ff ff       	call   2027d0 <kprintf_argc>
  202f54:	89 ec                	mov    %ebp,%esp
  202f56:	5d                   	pop    %ebp
  202f57:	cf                   	iret

00202f58 <isr_stub_7>:
  202f58:	55                   	push   %ebp
  202f59:	89 e5                	mov    %esp,%ebp
  202f5b:	6a 07                	push   $0x7
  202f5d:	68 f4 50 20 00       	push   $0x2050f4
  202f62:	ff 35 f0 50 20 00    	push   0x2050f0
  202f68:	e8 63 f8 ff ff       	call   2027d0 <kprintf_argc>
  202f6d:	89 ec                	mov    %ebp,%esp
  202f6f:	5d                   	pop    %ebp
  202f70:	cf                   	iret

00202f71 <isr_stub_8>:
  202f71:	55                   	push   %ebp
  202f72:	89 e5                	mov    %esp,%ebp
  202f74:	6a 08                	push   $0x8
  202f76:	68 f4 50 20 00       	push   $0x2050f4
  202f7b:	ff 35 f0 50 20 00    	push   0x2050f0
  202f81:	e8 4a f8 ff ff       	call   2027d0 <kprintf_argc>
  202f86:	89 ec                	mov    %ebp,%esp
  202f88:	5d                   	pop    %ebp
  202f89:	cf                   	iret

00202f8a <isr_stub_9>:
  202f8a:	55                   	push   %ebp
  202f8b:	89 e5                	mov    %esp,%ebp
  202f8d:	6a 09                	push   $0x9
  202f8f:	68 f4 50 20 00       	push   $0x2050f4
  202f94:	ff 35 f0 50 20 00    	push   0x2050f0
  202f9a:	e8 31 f8 ff ff       	call   2027d0 <kprintf_argc>
  202f9f:	89 ec                	mov    %ebp,%esp
  202fa1:	5d                   	pop    %ebp
  202fa2:	cf                   	iret

00202fa3 <isr_stub_10>:
  202fa3:	55                   	push   %ebp
  202fa4:	89 e5                	mov    %esp,%ebp
  202fa6:	6a 0a                	push   $0xa
  202fa8:	68 f4 50 20 00       	push   $0x2050f4
  202fad:	ff 35 f0 50 20 00    	push   0x2050f0
  202fb3:	e8 18 f8 ff ff       	call   2027d0 <kprintf_argc>
  202fb8:	89 ec                	mov    %ebp,%esp
  202fba:	5d                   	pop    %ebp
  202fbb:	cf                   	iret

00202fbc <isr_stub_11>:
  202fbc:	55                   	push   %ebp
  202fbd:	89 e5                	mov    %esp,%ebp
  202fbf:	6a 0b                	push   $0xb
  202fc1:	68 f4 50 20 00       	push   $0x2050f4
  202fc6:	ff 35 f0 50 20 00    	push   0x2050f0
  202fcc:	e8 ff f7 ff ff       	call   2027d0 <kprintf_argc>
  202fd1:	89 ec                	mov    %ebp,%esp
  202fd3:	5d                   	pop    %ebp
  202fd4:	cf                   	iret

00202fd5 <isr_stub_12>:
  202fd5:	55                   	push   %ebp
  202fd6:	89 e5                	mov    %esp,%ebp
  202fd8:	6a 0c                	push   $0xc
  202fda:	68 f4 50 20 00       	push   $0x2050f4
  202fdf:	ff 35 f0 50 20 00    	push   0x2050f0
  202fe5:	e8 e6 f7 ff ff       	call   2027d0 <kprintf_argc>
  202fea:	89 ec                	mov    %ebp,%esp
  202fec:	5d                   	pop    %ebp
  202fed:	cf                   	iret

00202fee <isr_stub_13>:
  202fee:	55                   	push   %ebp
  202fef:	89 e5                	mov    %esp,%ebp
  202ff1:	6a 0d                	push   $0xd
  202ff3:	68 f4 50 20 00       	push   $0x2050f4
  202ff8:	ff 35 f0 50 20 00    	push   0x2050f0
  202ffe:	e8 cd f7 ff ff       	call   2027d0 <kprintf_argc>
  203003:	89 ec                	mov    %ebp,%esp
  203005:	5d                   	pop    %ebp
  203006:	cf                   	iret

00203007 <isr_stub_14>:
  203007:	55                   	push   %ebp
  203008:	89 e5                	mov    %esp,%ebp
  20300a:	6a 0e                	push   $0xe
  20300c:	68 f4 50 20 00       	push   $0x2050f4
  203011:	ff 35 f0 50 20 00    	push   0x2050f0
  203017:	e8 b4 f7 ff ff       	call   2027d0 <kprintf_argc>
  20301c:	89 ec                	mov    %ebp,%esp
  20301e:	5d                   	pop    %ebp
  20301f:	cf                   	iret

00203020 <isr_stub_15>:
  203020:	55                   	push   %ebp
  203021:	89 e5                	mov    %esp,%ebp
  203023:	6a 0f                	push   $0xf
  203025:	68 f4 50 20 00       	push   $0x2050f4
  20302a:	ff 35 f0 50 20 00    	push   0x2050f0
  203030:	e8 9b f7 ff ff       	call   2027d0 <kprintf_argc>
  203035:	89 ec                	mov    %ebp,%esp
  203037:	5d                   	pop    %ebp
  203038:	cf                   	iret

00203039 <isr_stub_16>:
  203039:	55                   	push   %ebp
  20303a:	89 e5                	mov    %esp,%ebp
  20303c:	6a 10                	push   $0x10
  20303e:	68 f4 50 20 00       	push   $0x2050f4
  203043:	ff 35 f0 50 20 00    	push   0x2050f0
  203049:	e8 82 f7 ff ff       	call   2027d0 <kprintf_argc>
  20304e:	89 ec                	mov    %ebp,%esp
  203050:	5d                   	pop    %ebp
  203051:	cf                   	iret

00203052 <isr_stub_17>:
  203052:	55                   	push   %ebp
  203053:	89 e5                	mov    %esp,%ebp
  203055:	6a 11                	push   $0x11
  203057:	68 f4 50 20 00       	push   $0x2050f4
  20305c:	ff 35 f0 50 20 00    	push   0x2050f0
  203062:	e8 69 f7 ff ff       	call   2027d0 <kprintf_argc>
  203067:	89 ec                	mov    %ebp,%esp
  203069:	5d                   	pop    %ebp
  20306a:	cf                   	iret

0020306b <isr_stub_18>:
  20306b:	55                   	push   %ebp
  20306c:	89 e5                	mov    %esp,%ebp
  20306e:	6a 12                	push   $0x12
  203070:	68 f4 50 20 00       	push   $0x2050f4
  203075:	ff 35 f0 50 20 00    	push   0x2050f0
  20307b:	e8 50 f7 ff ff       	call   2027d0 <kprintf_argc>
  203080:	89 ec                	mov    %ebp,%esp
  203082:	5d                   	pop    %ebp
  203083:	cf                   	iret

00203084 <isr_stub_19>:
  203084:	55                   	push   %ebp
  203085:	89 e5                	mov    %esp,%ebp
  203087:	6a 13                	push   $0x13
  203089:	68 f4 50 20 00       	push   $0x2050f4
  20308e:	ff 35 f0 50 20 00    	push   0x2050f0
  203094:	e8 37 f7 ff ff       	call   2027d0 <kprintf_argc>
  203099:	89 ec                	mov    %ebp,%esp
  20309b:	5d                   	pop    %ebp
  20309c:	cf                   	iret

0020309d <isr_stub_20>:
  20309d:	55                   	push   %ebp
  20309e:	89 e5                	mov    %esp,%ebp
  2030a0:	6a 14                	push   $0x14
  2030a2:	68 f4 50 20 00       	push   $0x2050f4
  2030a7:	ff 35 f0 50 20 00    	push   0x2050f0
  2030ad:	e8 1e f7 ff ff       	call   2027d0 <kprintf_argc>
  2030b2:	89 ec                	mov    %ebp,%esp
  2030b4:	5d                   	pop    %ebp
  2030b5:	cf                   	iret

002030b6 <isr_stub_21>:
  2030b6:	55                   	push   %ebp
  2030b7:	89 e5                	mov    %esp,%ebp
  2030b9:	6a 15                	push   $0x15
  2030bb:	68 f4 50 20 00       	push   $0x2050f4
  2030c0:	ff 35 f0 50 20 00    	push   0x2050f0
  2030c6:	e8 05 f7 ff ff       	call   2027d0 <kprintf_argc>
  2030cb:	89 ec                	mov    %ebp,%esp
  2030cd:	5d                   	pop    %ebp
  2030ce:	cf                   	iret

002030cf <isr_stub_22>:
  2030cf:	55                   	push   %ebp
  2030d0:	89 e5                	mov    %esp,%ebp
  2030d2:	6a 16                	push   $0x16
  2030d4:	68 f4 50 20 00       	push   $0x2050f4
  2030d9:	ff 35 f0 50 20 00    	push   0x2050f0
  2030df:	e8 ec f6 ff ff       	call   2027d0 <kprintf_argc>
  2030e4:	89 ec                	mov    %ebp,%esp
  2030e6:	5d                   	pop    %ebp
  2030e7:	cf                   	iret

002030e8 <isr_stub_23>:
  2030e8:	55                   	push   %ebp
  2030e9:	89 e5                	mov    %esp,%ebp
  2030eb:	6a 17                	push   $0x17
  2030ed:	68 f4 50 20 00       	push   $0x2050f4
  2030f2:	ff 35 f0 50 20 00    	push   0x2050f0
  2030f8:	e8 d3 f6 ff ff       	call   2027d0 <kprintf_argc>
  2030fd:	89 ec                	mov    %ebp,%esp
  2030ff:	5d                   	pop    %ebp
  203100:	cf                   	iret

00203101 <isr_stub_24>:
  203101:	55                   	push   %ebp
  203102:	89 e5                	mov    %esp,%ebp
  203104:	6a 18                	push   $0x18
  203106:	68 f4 50 20 00       	push   $0x2050f4
  20310b:	ff 35 f0 50 20 00    	push   0x2050f0
  203111:	e8 ba f6 ff ff       	call   2027d0 <kprintf_argc>
  203116:	89 ec                	mov    %ebp,%esp
  203118:	5d                   	pop    %ebp
  203119:	cf                   	iret

0020311a <isr_stub_25>:
  20311a:	55                   	push   %ebp
  20311b:	89 e5                	mov    %esp,%ebp
  20311d:	6a 19                	push   $0x19
  20311f:	68 f4 50 20 00       	push   $0x2050f4
  203124:	ff 35 f0 50 20 00    	push   0x2050f0
  20312a:	e8 a1 f6 ff ff       	call   2027d0 <kprintf_argc>
  20312f:	89 ec                	mov    %ebp,%esp
  203131:	5d                   	pop    %ebp
  203132:	cf                   	iret

00203133 <isr_stub_26>:
  203133:	55                   	push   %ebp
  203134:	89 e5                	mov    %esp,%ebp
  203136:	6a 1a                	push   $0x1a
  203138:	68 f4 50 20 00       	push   $0x2050f4
  20313d:	ff 35 f0 50 20 00    	push   0x2050f0
  203143:	e8 88 f6 ff ff       	call   2027d0 <kprintf_argc>
  203148:	89 ec                	mov    %ebp,%esp
  20314a:	5d                   	pop    %ebp
  20314b:	cf                   	iret

0020314c <isr_stub_27>:
  20314c:	55                   	push   %ebp
  20314d:	89 e5                	mov    %esp,%ebp
  20314f:	6a 1b                	push   $0x1b
  203151:	68 f4 50 20 00       	push   $0x2050f4
  203156:	ff 35 f0 50 20 00    	push   0x2050f0
  20315c:	e8 6f f6 ff ff       	call   2027d0 <kprintf_argc>
  203161:	89 ec                	mov    %ebp,%esp
  203163:	5d                   	pop    %ebp
  203164:	cf                   	iret

00203165 <isr_stub_28>:
  203165:	55                   	push   %ebp
  203166:	89 e5                	mov    %esp,%ebp
  203168:	6a 1c                	push   $0x1c
  20316a:	68 f4 50 20 00       	push   $0x2050f4
  20316f:	ff 35 f0 50 20 00    	push   0x2050f0
  203175:	e8 56 f6 ff ff       	call   2027d0 <kprintf_argc>
  20317a:	89 ec                	mov    %ebp,%esp
  20317c:	5d                   	pop    %ebp
  20317d:	cf                   	iret

0020317e <isr_stub_29>:
  20317e:	55                   	push   %ebp
  20317f:	89 e5                	mov    %esp,%ebp
  203181:	6a 1d                	push   $0x1d
  203183:	68 f4 50 20 00       	push   $0x2050f4
  203188:	ff 35 f0 50 20 00    	push   0x2050f0
  20318e:	e8 3d f6 ff ff       	call   2027d0 <kprintf_argc>
  203193:	89 ec                	mov    %ebp,%esp
  203195:	5d                   	pop    %ebp
  203196:	cf                   	iret

00203197 <isr_stub_30>:
  203197:	55                   	push   %ebp
  203198:	89 e5                	mov    %esp,%ebp
  20319a:	6a 1e                	push   $0x1e
  20319c:	68 f4 50 20 00       	push   $0x2050f4
  2031a1:	ff 35 f0 50 20 00    	push   0x2050f0
  2031a7:	e8 24 f6 ff ff       	call   2027d0 <kprintf_argc>
  2031ac:	89 ec                	mov    %ebp,%esp
  2031ae:	5d                   	pop    %ebp
  2031af:	cf                   	iret

002031b0 <isr_stub_31>:
  2031b0:	55                   	push   %ebp
  2031b1:	89 e5                	mov    %esp,%ebp
  2031b3:	6a 1f                	push   $0x1f
  2031b5:	68 f4 50 20 00       	push   $0x2050f4
  2031ba:	ff 35 f0 50 20 00    	push   0x2050f0
  2031c0:	e8 0b f6 ff ff       	call   2027d0 <kprintf_argc>
  2031c5:	89 ec                	mov    %ebp,%esp
  2031c7:	5d                   	pop    %ebp
  2031c8:	cf                   	iret

002031c9 <isr_stub_table>:
  2031c9:	a9 2e 20 00 c2       	test   $0xc200202e,%eax
  2031ce:	2e 20 00             	and    %al,%cs:(%eax)
  2031d1:	db 2e                	fldt   (%esi)
  2031d3:	20 00                	and    %al,(%eax)
  2031d5:	f4                   	hlt
  2031d6:	2e 20 00             	and    %al,%cs:(%eax)
  2031d9:	0d 2f 20 00 26       	or     $0x2600202f,%eax
  2031de:	2f                   	das
  2031df:	20 00                	and    %al,(%eax)
  2031e1:	3f                   	aas
  2031e2:	2f                   	das
  2031e3:	20 00                	and    %al,(%eax)
  2031e5:	58                   	pop    %eax
  2031e6:	2f                   	das
  2031e7:	20 00                	and    %al,(%eax)
  2031e9:	71 2f                	jno    20321a <isr_stub_table+0x51>
  2031eb:	20 00                	and    %al,(%eax)
  2031ed:	8a 2f                	mov    (%edi),%ch
  2031ef:	20 00                	and    %al,(%eax)
  2031f1:	a3 2f 20 00 bc       	mov    %eax,0xbc00202f
  2031f6:	2f                   	das
  2031f7:	20 00                	and    %al,(%eax)
  2031f9:	d5 2f                	aad    $0x2f
  2031fb:	20 00                	and    %al,(%eax)
  2031fd:	ee                   	out    %al,(%dx)
  2031fe:	2f                   	das
  2031ff:	20 00                	and    %al,(%eax)
  203201:	07                   	pop    %es
  203202:	30 20                	xor    %ah,(%eax)
  203204:	00 20                	add    %ah,(%eax)
  203206:	30 20                	xor    %ah,(%eax)
  203208:	00 39                	add    %bh,(%ecx)
  20320a:	30 20                	xor    %ah,(%eax)
  20320c:	00 52 30             	add    %dl,0x30(%edx)
  20320f:	20 00                	and    %al,(%eax)
  203211:	6b 30 20             	imul   $0x20,(%eax),%esi
  203214:	00 84 30 20 00 9d 30 	add    %al,0x309d0020(%eax,%esi,1)
  20321b:	20 00                	and    %al,(%eax)
  20321d:	b6 30                	mov    $0x30,%dh
  20321f:	20 00                	and    %al,(%eax)
  203221:	cf                   	iret
  203222:	30 20                	xor    %ah,(%eax)
  203224:	00 e8                	add    %ch,%al
  203226:	30 20                	xor    %ah,(%eax)
  203228:	00 01                	add    %al,(%ecx)
  20322a:	31 20                	xor    %esp,(%eax)
  20322c:	00 1a                	add    %bl,(%edx)
  20322e:	31 20                	xor    %esp,(%eax)
  203230:	00 33                	add    %dh,(%ebx)
  203232:	31 20                	xor    %esp,(%eax)
  203234:	00 4c 31 20          	add    %cl,0x20(%ecx,%esi,1)
  203238:	00 65 31             	add    %ah,0x31(%ebp)
  20323b:	20 00                	and    %al,(%eax)
  20323d:	7e 31                	jle    203270 <interrupt_69_handler+0xb>
  20323f:	20 00                	and    %al,(%eax)
  203241:	97                   	xchg   %eax,%edi
  203242:	31 20                	xor    %esp,(%eax)
  203244:	00 b0 31 20 00     	add    %dh,0x55002031(%eax)

00203249 <interrupt_34_handler>:
  203249:	55                   	push   %ebp
  20324a:	89 e5                	mov    %esp,%ebp
  20324c:	6a 22                	push   $0x22
  20324e:	68 f4 50 20 00       	push   $0x2050f4
  203253:	ff 35 f0 50 20 00    	push   0x2050f0
  203259:	e8 72 f5 ff ff       	call   2027d0 <kprintf_argc>
  20325e:	83 c4 0c             	add    $0xc,%esp
  203261:	89 ec                	mov    %ebp,%esp
  203263:	5d                   	pop    %ebp
  203264:	cf                   	iret

00203265 <interrupt_69_handler>:
  203265:	55                   	push   %ebp
  203266:	89 e5                	mov    %esp,%ebp
  203268:	6a 45                	push   $0x45
  20326a:	68 0f 51 20 00       	push   $0x20510f
  20326f:	ff 35 f0 50 20 00    	push   0x2050f0
  203275:	e8 56 f5 ff ff       	call   2027d0 <kprintf_argc>
  20327a:	83 c4 0c             	add    $0xc,%esp
  20327d:	89 ec                	mov    %ebp,%esp
  20327f:	5d                   	pop    %ebp
  203280:	cf                   	iret

00203281 <interrupt_8_fmt>:
  203281:	49                   	dec    %ecx
  203282:	6e                   	outsb  %ds:(%esi),(%dx)
  203283:	20 49 6e             	and    %cl,0x6e(%ecx)
  203286:	74 65                	je     2032ed <interrupt_8_handler+0x13>
  203288:	72 72                	jb     2032fc <interrupt_8_handler+0x22>
  20328a:	75 70                	jne    2032fc <interrupt_8_handler+0x22>
  20328c:	74 20                	je     2032ae <err_inf_fmt+0x5>
  20328e:	68 61 6e 64 6c       	push   $0x6c646e61
  203293:	65 72 3a             	gs jb  2032d0 <err_inf_fmt+0x27>
  203296:	20 25 64 2c 20 44    	and    %ah,0x44202c64
  20329c:	4f                   	dec    %edi
  20329d:	55                   	push   %ebp
  20329e:	42                   	inc    %edx
  20329f:	4c                   	dec    %esp
  2032a0:	45                   	inc    %ebp
  2032a1:	5f                   	pop    %edi
  2032a2:	46                   	inc    %esi
  2032a3:	41                   	inc    %ecx
  2032a4:	55                   	push   %ebp
  2032a5:	4c                   	dec    %esp
  2032a6:	54                   	push   %esp
  2032a7:	0a 00                	or     (%eax),%al

002032a9 <err_inf_fmt>:
  2032a9:	45                   	inc    %ebp
  2032aa:	72 72                	jb     20331e <interrupt_8_handler+0x44>
  2032ac:	6f                   	outsl  %ds:(%esi),(%dx)
  2032ad:	72 20                	jb     2032cf <err_inf_fmt+0x26>
  2032af:	43                   	inc    %ebx
  2032b0:	6f                   	outsl  %ds:(%esi),(%dx)
  2032b1:	64 65 20 3d 20 25 75 	fs and %bh,%gs:0x2c752520
  2032b8:	2c 
  2032b9:	20 45 49             	and    %al,0x49(%ebp)
  2032bc:	50                   	push   %eax
  2032bd:	20 3d 20 25 75 2c    	and    %bh,0x2c752520
  2032c3:	20 43 53             	and    %al,0x53(%ebx)
  2032c6:	20 3d 20 25 75 2c    	and    %bh,0x2c752520
  2032cc:	20 45 66             	and    %al,0x66(%ebp)
  2032cf:	6c                   	insb   (%dx),%es:(%edi)
  2032d0:	61                   	popa
  2032d1:	67 73 20             	addr16 jae 2032f4 <interrupt_8_handler+0x1a>
  2032d4:	3d 20 25 62 0a       	cmp    $0xa622520,%eax
	...

002032da <interrupt_8_handler>:
  2032da:	55                   	push   %ebp
  2032db:	89 e5                	mov    %esp,%ebp
  2032dd:	60                   	pusha
  2032de:	1e                   	push   %ds
  2032df:	06                   	push   %es
  2032e0:	0f a0                	push   %fs
  2032e2:	0f a8                	push   %gs
  2032e4:	6a 08                	push   $0x8
  2032e6:	68 81 32 20 00       	push   $0x203281
  2032eb:	6a 02                	push   $0x2
  2032ed:	e8 de f4 ff ff       	call   2027d0 <kprintf_argc>
  2032f2:	83 c4 0c             	add    $0xc,%esp
  2032f5:	67 8b 46 04          	mov    0x4(%bp),%eax
  2032f9:	67 8b 5e 08          	mov    0x8(%bp),%ebx
  2032fd:	67 8b 4e 0c          	mov    0xc(%bp),%ecx
  203301:	67 8b 56 10          	mov    0x10(%bp),%edx
  203305:	52                   	push   %edx
  203306:	51                   	push   %ecx
  203307:	53                   	push   %ebx
  203308:	50                   	push   %eax
  203309:	68 a9 32 20 00       	push   $0x2032a9
  20330e:	6a 05                	push   $0x5
  203310:	e8 bb f4 ff ff       	call   2027d0 <kprintf_argc>
  203315:	83 c4 18             	add    $0x18,%esp
  203318:	0f a9                	pop    %gs
  20331a:	0f a1                	pop    %fs
  20331c:	07                   	pop    %es
  20331d:	1f                   	pop    %ds
  20331e:	61                   	popa
  20331f:	89 ec                	mov    %ebp,%esp
  203321:	5d                   	pop    %ebp
  203322:	cf                   	iret
  203323:	66 90                	xchg   %ax,%ax
  203325:	66 90                	xchg   %ax,%ax
  203327:	66 90                	xchg   %ax,%ax
  203329:	66 90                	xchg   %ax,%ax
  20332b:	66 90                	xchg   %ax,%ax
  20332d:	66 90                	xchg   %ax,%ax
  20332f:	66 90                	xchg   %ax,%ax
  203331:	66 90                	xchg   %ax,%ax
  203333:	66 90                	xchg   %ax,%ax
  203335:	66 90                	xchg   %ax,%ax
  203337:	66 90                	xchg   %ax,%ax
  203339:	66 90                	xchg   %ax,%ax
  20333b:	66 90                	xchg   %ax,%ax
  20333d:	66 90                	xchg   %ax,%ax
  20333f:	90                   	nop

00203340 <init_page_bitmap>:
  203340:	55                   	push   %ebp
  203341:	31 c0                	xor    %eax,%eax
  203343:	89 e5                	mov    %esp,%ebp
  203345:	56                   	push   %esi
  203346:	53                   	push   %ebx
  203347:	eb 37                	jmp    203380 <init_page_bitmap+0x40>
  203349:	2e 8d b4 26 00 00 00 	lea    %cs:0x0(%esi,%eiz,1),%esi
  203350:	00 
  203351:	2e 8d b4 26 00 00 00 	lea    %cs:0x0(%esi,%eiz,1),%esi
  203358:	00 
  203359:	2e 8d b4 26 00 00 00 	lea    %cs:0x0(%esi,%eiz,1),%esi
  203360:	00 
  203361:	2e 8d b4 26 00 00 00 	lea    %cs:0x0(%esi,%eiz,1),%esi
  203368:	00 
  203369:	2e 8d b4 26 00 00 00 	lea    %cs:0x0(%esi,%eiz,1),%esi
  203370:	00 
  203371:	2e 8d b4 26 00 00 00 	lea    %cs:0x0(%esi,%eiz,1),%esi
  203378:	00 
  203379:	8d b4 26 00 00 00 00 	lea    0x0(%esi,%eiz,1),%esi
  203380:	89 c1                	mov    %eax,%ecx
  203382:	89 c2                	mov    %eax,%edx
  203384:	be 01 00 00 00       	mov    $0x1,%esi
  203389:	83 c0 01             	add    $0x1,%eax
  20338c:	83 e1 07             	and    $0x7,%ecx
  20338f:	c1 ea 03             	shr    $0x3,%edx
  203392:	d3 e6                	shl    %cl,%esi
  203394:	89 f1                	mov    %esi,%ecx
  203396:	08 8a 00 30 23 00    	or     %cl,0x233000(%edx)
  20339c:	3d 00 04 00 00       	cmp    $0x400,%eax
  2033a1:	75 dd                	jne    203380 <init_page_bitmap+0x40>
  2033a3:	5b                   	pop    %ebx
  2033a4:	5e                   	pop    %esi
  2033a5:	5d                   	pop    %ebp
  2033a6:	c3                   	ret
  2033a7:	2e 8d b4 26 00 00 00 	lea    %cs:0x0(%esi,%eiz,1),%esi
  2033ae:	00 
  2033af:	90                   	nop

002033b0 <init_paging>:
  2033b0:	31 c0                	xor    %eax,%eax
  2033b2:	2e 8d b4 26 00 00 00 	lea    %cs:0x0(%esi,%eiz,1),%esi
  2033b9:	00 
  2033ba:	8d b6 00 00 00 00    	lea    0x0(%esi),%esi
  2033c0:	89 c2                	mov    %eax,%edx
  2033c2:	c1 e2 0c             	shl    $0xc,%edx
  2033c5:	83 ca 03             	or     $0x3,%edx
  2033c8:	89 14 85 00 40 23 00 	mov    %edx,0x234000(,%eax,4)
  2033cf:	83 c0 01             	add    $0x1,%eax
  2033d2:	3d 00 04 00 00       	cmp    $0x400,%eax
  2033d7:	75 e7                	jne    2033c0 <init_paging+0x10>
  2033d9:	b8 00 40 23 00       	mov    $0x234000,%eax
  2033de:	ba 00 50 23 00       	mov    $0x235000,%edx
  2033e3:	83 c8 03             	or     $0x3,%eax
  2033e6:	a3 00 50 23 00       	mov    %eax,0x235000
  2033eb:	0f 22 da             	mov    %edx,%cr3
  2033ee:	0f 20 c0             	mov    %cr0,%eax
  2033f1:	0d 00 00 00 80       	or     $0x80000000,%eax
  2033f6:	0f 22 c0             	mov    %eax,%cr0
  2033f9:	c3                   	ret
  2033fa:	8d b6 00 00 00 00    	lea    0x0(%esi),%esi

00203400 <alloc_page>:
  203400:	31 c0                	xor    %eax,%eax
  203402:	c3                   	ret
  203403:	2e 8d b4 26 00 00 00 	lea    %cs:0x0(%esi,%eiz,1),%esi
  20340a:	00 
  20340b:	2e 8d 74 26 00       	lea    %cs:0x0(%esi,%eiz,1),%esi

00203410 <free_page>:
  203410:	c3                   	ret
  203411:	2e 8d b4 26 00 00 00 	lea    %cs:0x0(%esi,%eiz,1),%esi
  203418:	00 
  203419:	8d b4 26 00 00 00 00 	lea    0x0(%esi,%eiz,1),%esi

00203420 <alloc_n_pages>:
  203420:	31 c0                	xor    %eax,%eax
  203422:	c3                   	ret
  203423:	2e 8d b4 26 00 00 00 	lea    %cs:0x0(%esi,%eiz,1),%esi
  20342a:	00 
  20342b:	2e 8d 74 26 00       	lea    %cs:0x0(%esi,%eiz,1),%esi

00203430 <free_n_pages>:
  203430:	c3                   	ret
  203431:	2e 8d b4 26 00 00 00 	lea    %cs:0x0(%esi,%eiz,1),%esi
  203438:	00 
  203439:	8d b4 26 00 00 00 00 	lea    0x0(%esi,%eiz,1),%esi

00203440 <virt_to_phys>:
  203440:	55                   	push   %ebp
  203441:	89 e5                	mov    %esp,%ebp
  203443:	8b 4d 08             	mov    0x8(%ebp),%ecx
  203446:	89 c8                	mov    %ecx,%eax
  203448:	c1 e8 16             	shr    $0x16,%eax
  20344b:	8b 14 85 00 50 23 00 	mov    0x235000(,%eax,4),%edx
  203452:	89 d0                	mov    %edx,%eax
  203454:	83 e0 01             	and    $0x1,%eax
  203457:	74 29                	je     203482 <virt_to_phys+0x42>
  203459:	89 c8                	mov    %ecx,%eax
  20345b:	81 e2 00 f0 ff ff    	and    $0xfffff000,%edx
  203461:	81 e1 ff 0f 00 00    	and    $0xfff,%ecx
  203467:	c1 e8 0c             	shr    $0xc,%eax
  20346a:	25 ff 03 00 00       	and    $0x3ff,%eax
  20346f:	8b 04 82             	mov    (%edx,%eax,4),%eax
  203472:	89 c2                	mov    %eax,%edx
  203474:	81 e2 00 f0 ff ff    	and    $0xfffff000,%edx
  20347a:	09 ca                	or     %ecx,%edx
  20347c:	83 e0 01             	and    $0x1,%eax
  20347f:	0f 45 c2             	cmovne %edx,%eax
  203482:	5d                   	pop    %ebp
  203483:	c3                   	ret
  203484:	2e 8d b4 26 00 00 00 	lea    %cs:0x0(%esi,%eiz,1),%esi
  20348b:	00 
  20348c:	8d 74 26 00          	lea    0x0(%esi,%eiz,1),%esi

00203490 <phys_to_virt>:
  203490:	55                   	push   %ebp
  203491:	89 e5                	mov    %esp,%ebp
  203493:	56                   	push   %esi
  203494:	8b 45 08             	mov    0x8(%ebp),%eax
  203497:	53                   	push   %ebx
  203498:	31 db                	xor    %ebx,%ebx
  20349a:	8b 0c 9d 00 50 23 00 	mov    0x235000(,%ebx,4),%ecx
  2034a1:	f6 c1 01             	test   $0x1,%cl
  2034a4:	75 12                	jne    2034b8 <phys_to_virt+0x28>
  2034a6:	83 c3 01             	add    $0x1,%ebx
  2034a9:	81 fb 00 04 00 00    	cmp    $0x400,%ebx
  2034af:	75 e9                	jne    20349a <phys_to_virt+0xa>
  2034b1:	31 c0                	xor    %eax,%eax
  2034b3:	eb 59                	jmp    20350e <phys_to_virt+0x7e>
  2034b5:	8d 76 00             	lea    0x0(%esi),%esi
  2034b8:	81 e1 00 f0 ff ff    	and    $0xfffff000,%ecx
  2034be:	31 f6                	xor    %esi,%esi
  2034c0:	eb 2c                	jmp    2034ee <phys_to_virt+0x5e>
  2034c2:	eb 1c                	jmp    2034e0 <phys_to_virt+0x50>
  2034c4:	2e 8d b4 26 00 00 00 	lea    %cs:0x0(%esi,%eiz,1),%esi
  2034cb:	00 
  2034cc:	2e 8d b4 26 00 00 00 	lea    %cs:0x0(%esi,%eiz,1),%esi
  2034d3:	00 
  2034d4:	2e 8d b4 26 00 00 00 	lea    %cs:0x0(%esi,%eiz,1),%esi
  2034db:	00 
  2034dc:	8d 74 26 00          	lea    0x0(%esi,%eiz,1),%esi
  2034e0:	83 c6 01             	add    $0x1,%esi
  2034e3:	83 c1 04             	add    $0x4,%ecx
  2034e6:	81 fe 00 04 00 00    	cmp    $0x400,%esi
  2034ec:	74 b8                	je     2034a6 <phys_to_virt+0x16>
  2034ee:	8b 11                	mov    (%ecx),%edx
  2034f0:	f6 c2 01             	test   $0x1,%dl
  2034f3:	74 eb                	je     2034e0 <phys_to_virt+0x50>
  2034f5:	31 c2                	xor    %eax,%edx
  2034f7:	81 fa ff 0f 00 00    	cmp    $0xfff,%edx
  2034fd:	77 e1                	ja     2034e0 <phys_to_virt+0x50>
  2034ff:	c1 e3 16             	shl    $0x16,%ebx
  203502:	25 ff 0f 00 00       	and    $0xfff,%eax
  203507:	c1 e6 0c             	shl    $0xc,%esi
  20350a:	09 d8                	or     %ebx,%eax
  20350c:	09 f0                	or     %esi,%eax
  20350e:	5b                   	pop    %ebx
  20350f:	5e                   	pop    %esi
  203510:	5d                   	pop    %ebp
  203511:	c3                   	ret
  203512:	2e 8d b4 26 00 00 00 	lea    %cs:0x0(%esi,%eiz,1),%esi
  203519:	00 
  20351a:	8d b6 00 00 00 00    	lea    0x0(%esi),%esi

00203520 <kmalloc>:
  203520:	31 c0                	xor    %eax,%eax
  203522:	c3                   	ret
  203523:	2e 8d b4 26 00 00 00 	lea    %cs:0x0(%esi,%eiz,1),%esi
  20352a:	00 
  20352b:	2e 8d 74 26 00       	lea    %cs:0x0(%esi,%eiz,1),%esi

00203530 <kfree>:
  203530:	c3                   	ret
  203531:	66 90                	xchg   %ax,%ax
  203533:	66 90                	xchg   %ax,%ax
  203535:	66 90                	xchg   %ax,%ax
  203537:	66 90                	xchg   %ax,%ax
  203539:	66 90                	xchg   %ax,%ax
  20353b:	66 90                	xchg   %ax,%ax
  20353d:	66 90                	xchg   %ax,%ax
  20353f:	90                   	nop

00203540 <pit_init>:
  203540:	55                   	push   %ebp
  203541:	b8 36 00 00 00       	mov    $0x36,%eax
  203546:	89 e5                	mov    %esp,%ebp
  203548:	e6 43                	out    %al,$0x43
  20354a:	0f b6 45 08          	movzbl 0x8(%ebp),%eax
  20354e:	e6 40                	out    %al,$0x40
  203550:	0f b7 45 08          	movzwl 0x8(%ebp),%eax
  203554:	66 c1 e8 08          	shr    $0x8,%ax
  203558:	e6 40                	out    %al,$0x40
  20355a:	5d                   	pop    %ebp
  20355b:	c3                   	ret
  20355c:	8d 74 26 00          	lea    0x0(%esi,%eiz,1),%esi

00203560 <wait>:
  203560:	55                   	push   %ebp
  203561:	89 e5                	mov    %esp,%ebp
  203563:	83 ec 10             	sub    $0x10,%esp
  203566:	d9 05 e4 5a 20 00    	flds   0x205ae4
  20356c:	d9 7d fe             	fnstcw -0x2(%ebp)
  20356f:	d8 4d 08             	fmuls  0x8(%ebp)
  203572:	0f b7 45 fe          	movzwl -0x2(%ebp),%eax
  203576:	80 cc 0c             	or     $0xc,%ah
  203579:	66 89 45 fc          	mov    %ax,-0x4(%ebp)
  20357d:	d9 6d fc             	fldcw  -0x4(%ebp)
  203580:	df 7d f0             	fistpll -0x10(%ebp)
  203583:	d9 6d fe             	fldcw  -0x2(%ebp)
  203586:	8b 55 f0             	mov    -0x10(%ebp),%edx
  203589:	85 d2                	test   %edx,%edx
  20358b:	74 1c                	je     2035a9 <wait+0x49>
  20358d:	31 c0                	xor    %eax,%eax
  20358f:	f6 c2 01             	test   $0x1,%dl
  203592:	74 0c                	je     2035a0 <wait+0x40>
  203594:	90                   	nop
  203595:	b8 01 00 00 00       	mov    $0x1,%eax
  20359a:	83 fa 01             	cmp    $0x1,%edx
  20359d:	74 0a                	je     2035a9 <wait+0x49>
  20359f:	90                   	nop
  2035a0:	90                   	nop
  2035a1:	90                   	nop
  2035a2:	83 c0 02             	add    $0x2,%eax
  2035a5:	39 c2                	cmp    %eax,%edx
  2035a7:	75 f7                	jne    2035a0 <wait+0x40>
  2035a9:	c9                   	leave
  2035aa:	c3                   	ret
  2035ab:	66 90                	xchg   %ax,%ax
  2035ad:	66 90                	xchg   %ax,%ax
  2035af:	90                   	nop

002035b0 <generateMask>:
  2035b0:	55                   	push   %ebp
  2035b1:	89 e5                	mov    %esp,%ebp
  2035b3:	53                   	push   %ebx
  2035b4:	8b 45 0c             	mov    0xc(%ebp),%eax
  2035b7:	0f b6 5d 08          	movzbl 0x8(%ebp),%ebx
  2035bb:	29 c3                	sub    %eax,%ebx
  2035bd:	0f b6 d0             	movzbl %al,%edx
  2035c0:	b8 ff ff ff ff       	mov    $0xffffffff,%eax
  2035c5:	83 c3 01             	add    $0x1,%ebx
  2035c8:	80 fb 1f             	cmp    $0x1f,%bl
  2035cb:	77 13                	ja     2035e0 <generateMask+0x30>
  2035cd:	0f b6 4d 08          	movzbl 0x8(%ebp),%ecx
  2035d1:	b8 01 00 00 00       	mov    $0x1,%eax
  2035d6:	29 d1                	sub    %edx,%ecx
  2035d8:	83 c1 01             	add    $0x1,%ecx
  2035db:	d3 e0                	shl    %cl,%eax
  2035dd:	83 e8 01             	sub    $0x1,%eax
  2035e0:	89 d1                	mov    %edx,%ecx
  2035e2:	8b 5d fc             	mov    -0x4(%ebp),%ebx
  2035e5:	c9                   	leave
  2035e6:	d3 e0                	shl    %cl,%eax
  2035e8:	c3                   	ret
  2035e9:	8d b4 26 00 00 00 00 	lea    0x0(%esi,%eiz,1),%esi

002035f0 <generateAntiMask>:
  2035f0:	55                   	push   %ebp
  2035f1:	89 e5                	mov    %esp,%ebp
  2035f3:	53                   	push   %ebx
  2035f4:	8b 4d 08             	mov    0x8(%ebp),%ecx
  2035f7:	8b 45 0c             	mov    0xc(%ebp),%eax
  2035fa:	8d 59 01             	lea    0x1(%ecx),%ebx
  2035fd:	0f b6 d0             	movzbl %al,%edx
  203600:	29 c3                	sub    %eax,%ebx
  203602:	b8 ff ff ff ff       	mov    $0xffffffff,%eax
  203607:	80 fb 1f             	cmp    $0x1f,%bl
  20360a:	77 12                	ja     20361e <generateAntiMask+0x2e>
  20360c:	0f b6 c9             	movzbl %cl,%ecx
  20360f:	b8 01 00 00 00       	mov    $0x1,%eax
  203614:	29 d1                	sub    %edx,%ecx
  203616:	83 c1 01             	add    $0x1,%ecx
  203619:	d3 e0                	shl    %cl,%eax
  20361b:	83 e8 01             	sub    $0x1,%eax
  20361e:	89 d1                	mov    %edx,%ecx
  203620:	8b 5d fc             	mov    -0x4(%ebp),%ebx
  203623:	c9                   	leave
  203624:	d3 e0                	shl    %cl,%eax
  203626:	f7 d0                	not    %eax
  203628:	c3                   	ret
  203629:	8d b4 26 00 00 00 00 	lea    0x0(%esi,%eiz,1),%esi

00203630 <getBits>:
  203630:	55                   	push   %ebp
  203631:	89 e5                	mov    %esp,%ebp
  203633:	53                   	push   %ebx
  203634:	8b 4d 0c             	mov    0xc(%ebp),%ecx
  203637:	8b 45 10             	mov    0x10(%ebp),%eax
  20363a:	8d 59 01             	lea    0x1(%ecx),%ebx
  20363d:	0f b6 d0             	movzbl %al,%edx
  203640:	29 c3                	sub    %eax,%ebx
  203642:	b8 ff ff ff ff       	mov    $0xffffffff,%eax
  203647:	80 fb 1f             	cmp    $0x1f,%bl
  20364a:	77 12                	ja     20365e <getBits+0x2e>
  20364c:	0f b6 c9             	movzbl %cl,%ecx
  20364f:	b8 01 00 00 00       	mov    $0x1,%eax
  203654:	29 d1                	sub    %edx,%ecx
  203656:	83 c1 01             	add    $0x1,%ecx
  203659:	d3 e0                	shl    %cl,%eax
  20365b:	83 e8 01             	sub    $0x1,%eax
  20365e:	89 d1                	mov    %edx,%ecx
  203660:	8b 5d fc             	mov    -0x4(%ebp),%ebx
  203663:	d3 e0                	shl    %cl,%eax
  203665:	23 45 08             	and    0x8(%ebp),%eax
  203668:	c9                   	leave
  203669:	d3 e8                	shr    %cl,%eax
  20366b:	c3                   	ret
  20366c:	8d 74 26 00          	lea    0x0(%esi,%eiz,1),%esi

00203670 <getBits2>:
  203670:	55                   	push   %ebp
  203671:	89 e5                	mov    %esp,%ebp
  203673:	53                   	push   %ebx
  203674:	83 ec 04             	sub    $0x4,%esp
  203677:	8b 4d 0c             	mov    0xc(%ebp),%ecx
  20367a:	8b 55 10             	mov    0x10(%ebp),%edx
  20367d:	38 d1                	cmp    %dl,%cl
  20367f:	72 27                	jb     2036a8 <getBits2+0x38>
  203681:	0f b6 d2             	movzbl %dl,%edx
  203684:	0f b6 c1             	movzbl %cl,%eax
  203687:	8b 5d 08             	mov    0x8(%ebp),%ebx
  20368a:	29 d0                	sub    %edx,%eax
  20368c:	8d 48 01             	lea    0x1(%eax),%ecx
  20368f:	b8 01 00 00 00       	mov    $0x1,%eax
  203694:	d3 e0                	shl    %cl,%eax
  203696:	89 d1                	mov    %edx,%ecx
  203698:	d3 eb                	shr    %cl,%ebx
  20369a:	83 e8 01             	sub    $0x1,%eax
  20369d:	21 d8                	and    %ebx,%eax
  20369f:	8b 5d fc             	mov    -0x4(%ebp),%ebx
  2036a2:	c9                   	leave
  2036a3:	c3                   	ret
  2036a4:	8d 74 26 00          	lea    0x0(%esi,%eiz,1),%esi
  2036a8:	83 ec 0c             	sub    $0xc,%esp
  2036ab:	68 80 56 20 00       	push   $0x205680
  2036b0:	e8 9b e1 ff ff       	call   201850 <terminal_writestring>
  2036b5:	8b 5d fc             	mov    -0x4(%ebp),%ebx
  2036b8:	83 c4 10             	add    $0x10,%esp
  2036bb:	b8 ff ff ff ff       	mov    $0xffffffff,%eax
  2036c0:	c9                   	leave
  2036c1:	c3                   	ret
  2036c2:	2e 8d b4 26 00 00 00 	lea    %cs:0x0(%esi,%eiz,1),%esi
  2036c9:	00 
  2036ca:	8d b6 00 00 00 00    	lea    0x0(%esi),%esi

002036d0 <setBits>:
  2036d0:	55                   	push   %ebp
  2036d1:	89 e5                	mov    %esp,%ebp
  2036d3:	56                   	push   %esi
  2036d4:	8b 75 10             	mov    0x10(%ebp),%esi
  2036d7:	8b 4d 14             	mov    0x14(%ebp),%ecx
  2036da:	53                   	push   %ebx
  2036db:	8b 55 0c             	mov    0xc(%ebp),%edx
  2036de:	8d 46 01             	lea    0x1(%esi),%eax
  2036e1:	0f b6 d9             	movzbl %cl,%ebx
  2036e4:	29 c8                	sub    %ecx,%eax
  2036e6:	d3 e2                	shl    %cl,%edx
  2036e8:	3c 1f                	cmp    $0x1f,%al
  2036ea:	77 24                	ja     203710 <setBits+0x40>
  2036ec:	89 f0                	mov    %esi,%eax
  2036ee:	0f b6 f0             	movzbl %al,%esi
  2036f1:	b8 01 00 00 00       	mov    $0x1,%eax
  2036f6:	29 de                	sub    %ebx,%esi
  2036f8:	8d 4e 01             	lea    0x1(%esi),%ecx
  2036fb:	d3 e0                	shl    %cl,%eax
  2036fd:	89 d9                	mov    %ebx,%ecx
  2036ff:	5b                   	pop    %ebx
  203700:	5e                   	pop    %esi
  203701:	83 e8 01             	sub    $0x1,%eax
  203704:	d3 e0                	shl    %cl,%eax
  203706:	f7 d0                	not    %eax
  203708:	23 45 08             	and    0x8(%ebp),%eax
  20370b:	5d                   	pop    %ebp
  20370c:	09 d0                	or     %edx,%eax
  20370e:	c3                   	ret
  20370f:	90                   	nop
  203710:	89 d9                	mov    %ebx,%ecx
  203712:	b8 ff ff ff ff       	mov    $0xffffffff,%eax
  203717:	5b                   	pop    %ebx
  203718:	5e                   	pop    %esi
  203719:	d3 e0                	shl    %cl,%eax
  20371b:	f7 d0                	not    %eax
  20371d:	23 45 08             	and    0x8(%ebp),%eax
  203720:	5d                   	pop    %ebp
  203721:	09 d0                	or     %edx,%eax
  203723:	c3                   	ret
  203724:	2e 8d b4 26 00 00 00 	lea    %cs:0x0(%esi,%eiz,1),%esi
  20372b:	00 
  20372c:	8d 74 26 00          	lea    0x0(%esi,%eiz,1),%esi

00203730 <setBitsModify>:
  203730:	55                   	push   %ebp
  203731:	89 e5                	mov    %esp,%ebp
  203733:	57                   	push   %edi
  203734:	8b 45 14             	mov    0x14(%ebp),%eax
  203737:	8b 55 10             	mov    0x10(%ebp),%edx
  20373a:	56                   	push   %esi
  20373b:	53                   	push   %ebx
  20373c:	8b 5d 0c             	mov    0xc(%ebp),%ebx
  20373f:	89 c1                	mov    %eax,%ecx
  203741:	8b 7d 08             	mov    0x8(%ebp),%edi
  203744:	0f b6 f0             	movzbl %al,%esi
  203747:	d3 e3                	shl    %cl,%ebx
  203749:	8d 4a 01             	lea    0x1(%edx),%ecx
  20374c:	29 c1                	sub    %eax,%ecx
  20374e:	8b 3f                	mov    (%edi),%edi
  203750:	b8 ff ff ff ff       	mov    $0xffffffff,%eax
  203755:	80 f9 1f             	cmp    $0x1f,%cl
  203758:	77 12                	ja     20376c <setBitsModify+0x3c>
  20375a:	0f b6 d2             	movzbl %dl,%edx
  20375d:	b8 01 00 00 00       	mov    $0x1,%eax
  203762:	29 f2                	sub    %esi,%edx
  203764:	8d 4a 01             	lea    0x1(%edx),%ecx
  203767:	d3 e0                	shl    %cl,%eax
  203769:	83 e8 01             	sub    $0x1,%eax
  20376c:	89 f1                	mov    %esi,%ecx
  20376e:	8b 75 08             	mov    0x8(%ebp),%esi
  203771:	d3 e0                	shl    %cl,%eax
  203773:	f7 d0                	not    %eax
  203775:	21 f8                	and    %edi,%eax
  203777:	09 d8                	or     %ebx,%eax
  203779:	89 06                	mov    %eax,(%esi)
  20377b:	5b                   	pop    %ebx
  20377c:	5e                   	pop    %esi
  20377d:	5f                   	pop    %edi
  20377e:	5d                   	pop    %ebp
  20377f:	c3                   	ret

00203780 <getType>:
  203780:	55                   	push   %ebp
  203781:	89 e5                	mov    %esp,%ebp
  203783:	83 ec 0c             	sub    $0xc,%esp
  203786:	8b 45 08             	mov    0x8(%ebp),%eax
  203789:	6a 08                	push   $0x8
  20378b:	6a 0b                	push   $0xb
  20378d:	ff 70 04             	push   0x4(%eax)
  203790:	e8 9b fe ff ff       	call   203630 <getBits>
  203795:	c9                   	leave
  203796:	c3                   	ret
  203797:	2e 8d b4 26 00 00 00 	lea    %cs:0x0(%esi,%eiz,1),%esi
  20379e:	00 
  20379f:	90                   	nop

002037a0 <setType>:
  2037a0:	55                   	push   %ebp
  2037a1:	89 e5                	mov    %esp,%ebp
  2037a3:	53                   	push   %ebx
  2037a4:	83 ec 04             	sub    $0x4,%esp
  2037a7:	8b 45 08             	mov    0x8(%ebp),%eax
  2037aa:	0f b6 5d 0c          	movzbl 0xc(%ebp),%ebx
  2037ae:	6a 08                	push   $0x8
  2037b0:	83 c0 04             	add    $0x4,%eax
  2037b3:	6a 0b                	push   $0xb
  2037b5:	53                   	push   %ebx
  2037b6:	50                   	push   %eax
  2037b7:	e8 74 ff ff ff       	call   203730 <setBitsModify>
  2037bc:	83 c4 10             	add    $0x10,%esp
  2037bf:	89 5d 08             	mov    %ebx,0x8(%ebp)
  2037c2:	8b 5d fc             	mov    -0x4(%ebp),%ebx
  2037c5:	c7 45 0c 97 56 20 00 	movl   $0x205697,0xc(%ebp)
  2037cc:	c9                   	leave
  2037cd:	e9 2e d6 ff ff       	jmp    200e00 <printBinary>
  2037d2:	2e 8d b4 26 00 00 00 	lea    %cs:0x0(%esi,%eiz,1),%esi
  2037d9:	00 
  2037da:	8d b6 00 00 00 00    	lea    0x0(%esi),%esi

002037e0 <getDescriptorTypeS>:
  2037e0:	55                   	push   %ebp
  2037e1:	89 e5                	mov    %esp,%ebp
  2037e3:	83 ec 0c             	sub    $0xc,%esp
  2037e6:	8b 45 08             	mov    0x8(%ebp),%eax
  2037e9:	6a 0c                	push   $0xc
  2037eb:	6a 0c                	push   $0xc
  2037ed:	ff 70 04             	push   0x4(%eax)
  2037f0:	e8 3b fe ff ff       	call   203630 <getBits>
  2037f5:	c9                   	leave
  2037f6:	c3                   	ret
  2037f7:	2e 8d b4 26 00 00 00 	lea    %cs:0x0(%esi,%eiz,1),%esi
  2037fe:	00 
  2037ff:	90                   	nop

00203800 <setDescriptorTypeS>:
  203800:	55                   	push   %ebp
  203801:	89 e5                	mov    %esp,%ebp
  203803:	53                   	push   %ebx
  203804:	83 ec 04             	sub    $0x4,%esp
  203807:	8b 45 08             	mov    0x8(%ebp),%eax
  20380a:	0f b6 5d 0c          	movzbl 0xc(%ebp),%ebx
  20380e:	6a 0c                	push   $0xc
  203810:	83 c0 04             	add    $0x4,%eax
  203813:	6a 0c                	push   $0xc
  203815:	53                   	push   %ebx
  203816:	50                   	push   %eax
  203817:	e8 14 ff ff ff       	call   203730 <setBitsModify>
  20381c:	83 c4 10             	add    $0x10,%esp
  20381f:	89 5d 08             	mov    %ebx,0x8(%ebp)
  203822:	8b 5d fc             	mov    -0x4(%ebp),%ebx
  203825:	c7 45 0c 9c 56 20 00 	movl   $0x20569c,0xc(%ebp)
  20382c:	c9                   	leave
  20382d:	e9 ce d5 ff ff       	jmp    200e00 <printBinary>
  203832:	2e 8d b4 26 00 00 00 	lea    %cs:0x0(%esi,%eiz,1),%esi
  203839:	00 
  20383a:	8d b6 00 00 00 00    	lea    0x0(%esi),%esi

00203840 <getPriviledgeDPL>:
  203840:	55                   	push   %ebp
  203841:	89 e5                	mov    %esp,%ebp
  203843:	83 ec 0c             	sub    $0xc,%esp
  203846:	8b 45 08             	mov    0x8(%ebp),%eax
  203849:	6a 0d                	push   $0xd
  20384b:	6a 0e                	push   $0xe
  20384d:	ff 70 04             	push   0x4(%eax)
  203850:	e8 db fd ff ff       	call   203630 <getBits>
  203855:	c9                   	leave
  203856:	c3                   	ret
  203857:	2e 8d b4 26 00 00 00 	lea    %cs:0x0(%esi,%eiz,1),%esi
  20385e:	00 
  20385f:	90                   	nop

00203860 <setPriviledgeDPL>:
  203860:	55                   	push   %ebp
  203861:	89 e5                	mov    %esp,%ebp
  203863:	53                   	push   %ebx
  203864:	83 ec 04             	sub    $0x4,%esp
  203867:	8b 45 08             	mov    0x8(%ebp),%eax
  20386a:	0f b6 5d 0c          	movzbl 0xc(%ebp),%ebx
  20386e:	6a 0d                	push   $0xd
  203870:	83 c0 04             	add    $0x4,%eax
  203873:	6a 0e                	push   $0xe
  203875:	53                   	push   %ebx
  203876:	50                   	push   %eax
  203877:	e8 b4 fe ff ff       	call   203730 <setBitsModify>
  20387c:	83 c4 10             	add    $0x10,%esp
  20387f:	89 5d 08             	mov    %ebx,0x8(%ebp)
  203882:	8b 5d fc             	mov    -0x4(%ebp),%ebx
  203885:	c7 45 0c ac 56 20 00 	movl   $0x2056ac,0xc(%ebp)
  20388c:	c9                   	leave
  20388d:	e9 6e d5 ff ff       	jmp    200e00 <printBinary>
  203892:	2e 8d b4 26 00 00 00 	lea    %cs:0x0(%esi,%eiz,1),%esi
  203899:	00 
  20389a:	8d b6 00 00 00 00    	lea    0x0(%esi),%esi

002038a0 <getPresent>:
  2038a0:	55                   	push   %ebp
  2038a1:	89 e5                	mov    %esp,%ebp
  2038a3:	83 ec 0c             	sub    $0xc,%esp
  2038a6:	8b 45 08             	mov    0x8(%ebp),%eax
  2038a9:	68 80 00 00 00       	push   $0x80
  2038ae:	68 80 00 00 00       	push   $0x80
  2038b3:	ff 70 04             	push   0x4(%eax)
  2038b6:	e8 75 fd ff ff       	call   203630 <getBits>
  2038bb:	c9                   	leave
  2038bc:	c3                   	ret
  2038bd:	8d 76 00             	lea    0x0(%esi),%esi

002038c0 <setPresent>:
  2038c0:	55                   	push   %ebp
  2038c1:	89 e5                	mov    %esp,%ebp
  2038c3:	53                   	push   %ebx
  2038c4:	83 ec 04             	sub    $0x4,%esp
  2038c7:	8b 45 08             	mov    0x8(%ebp),%eax
  2038ca:	0f b6 5d 0c          	movzbl 0xc(%ebp),%ebx
  2038ce:	68 80 00 00 00       	push   $0x80
  2038d3:	83 c0 04             	add    $0x4,%eax
  2038d6:	68 80 00 00 00       	push   $0x80
  2038db:	53                   	push   %ebx
  2038dc:	50                   	push   %eax
  2038dd:	e8 4e fe ff ff       	call   203730 <setBitsModify>
  2038e2:	83 c4 10             	add    $0x10,%esp
  2038e5:	89 5d 08             	mov    %ebx,0x8(%ebp)
  2038e8:	8b 5d fc             	mov    -0x4(%ebp),%ebx
  2038eb:	c7 45 0c ba 56 20 00 	movl   $0x2056ba,0xc(%ebp)
  2038f2:	c9                   	leave
  2038f3:	e9 08 d5 ff ff       	jmp    200e00 <printBinary>
  2038f8:	2e 8d b4 26 00 00 00 	lea    %cs:0x0(%esi,%eiz,1),%esi
  2038ff:	00 

00203900 <getSegmentLimit>:
  203900:	55                   	push   %ebp
  203901:	89 e5                	mov    %esp,%ebp
  203903:	53                   	push   %ebx
  203904:	83 ec 08             	sub    $0x8,%esp
  203907:	8b 45 08             	mov    0x8(%ebp),%eax
  20390a:	6a 10                	push   $0x10
  20390c:	6a 13                	push   $0x13
  20390e:	ff 70 04             	push   0x4(%eax)
  203911:	e8 1a fd ff ff       	call   203630 <getBits>
  203916:	83 c4 0c             	add    $0xc,%esp
  203919:	89 c3                	mov    %eax,%ebx
  20391b:	8b 45 08             	mov    0x8(%ebp),%eax
  20391e:	6a 00                	push   $0x0
  203920:	6a 0f                	push   $0xf
  203922:	c1 e3 10             	shl    $0x10,%ebx
  203925:	ff 30                	push   (%eax)
  203927:	e8 04 fd ff ff       	call   203630 <getBits>
  20392c:	09 d8                	or     %ebx,%eax
  20392e:	8b 5d fc             	mov    -0x4(%ebp),%ebx
  203931:	c9                   	leave
  203932:	c3                   	ret
  203933:	2e 8d b4 26 00 00 00 	lea    %cs:0x0(%esi,%eiz,1),%esi
  20393a:	00 
  20393b:	2e 8d 74 26 00       	lea    %cs:0x0(%esi,%eiz,1),%esi

00203940 <setSegmentLimit>:
  203940:	55                   	push   %ebp
  203941:	89 e5                	mov    %esp,%ebp
  203943:	57                   	push   %edi
  203944:	56                   	push   %esi
  203945:	53                   	push   %ebx
  203946:	83 ec 20             	sub    $0x20,%esp
  203949:	8b 5d 0c             	mov    0xc(%ebp),%ebx
  20394c:	8b 7d 08             	mov    0x8(%ebp),%edi
  20394f:	6a 10                	push   $0x10
  203951:	6a 13                	push   $0x13
  203953:	53                   	push   %ebx
  203954:	e8 d7 fc ff ff       	call   203630 <getBits>
  203959:	83 c4 0c             	add    $0xc,%esp
  20395c:	89 45 e4             	mov    %eax,-0x1c(%ebp)
  20395f:	6a 00                	push   $0x0
  203961:	6a 0f                	push   $0xf
  203963:	53                   	push   %ebx
  203964:	e8 c7 fc ff ff       	call   203630 <getBits>
  203969:	6a 10                	push   $0x10
  20396b:	6a 13                	push   $0x13
  20396d:	8b 55 e4             	mov    -0x1c(%ebp),%edx
  203970:	89 c6                	mov    %eax,%esi
  203972:	8d 47 04             	lea    0x4(%edi),%eax
  203975:	52                   	push   %edx
  203976:	50                   	push   %eax
  203977:	e8 b4 fd ff ff       	call   203730 <setBitsModify>
  20397c:	83 c4 20             	add    $0x20,%esp
  20397f:	6a 00                	push   $0x0
  203981:	6a 0f                	push   $0xf
  203983:	56                   	push   %esi
  203984:	57                   	push   %edi
  203985:	e8 a6 fd ff ff       	call   203730 <setBitsModify>
  20398a:	83 c4 10             	add    $0x10,%esp
  20398d:	c7 45 0c c3 56 20 00 	movl   $0x2056c3,0xc(%ebp)
  203994:	89 5d 08             	mov    %ebx,0x8(%ebp)
  203997:	8d 65 f4             	lea    -0xc(%ebp),%esp
  20399a:	5b                   	pop    %ebx
  20399b:	5e                   	pop    %esi
  20399c:	5f                   	pop    %edi
  20399d:	5d                   	pop    %ebp
  20399e:	e9 5d d4 ff ff       	jmp    200e00 <printBinary>
  2039a3:	2e 8d b4 26 00 00 00 	lea    %cs:0x0(%esi,%eiz,1),%esi
  2039aa:	00 
  2039ab:	2e 8d 74 26 00       	lea    %cs:0x0(%esi,%eiz,1),%esi

002039b0 <getAVL>:
  2039b0:	55                   	push   %ebp
  2039b1:	89 e5                	mov    %esp,%ebp
  2039b3:	83 ec 0c             	sub    $0xc,%esp
  2039b6:	8b 45 08             	mov    0x8(%ebp),%eax
  2039b9:	6a 14                	push   $0x14
  2039bb:	6a 14                	push   $0x14
  2039bd:	ff 70 04             	push   0x4(%eax)
  2039c0:	e8 6b fc ff ff       	call   203630 <getBits>
  2039c5:	c9                   	leave
  2039c6:	c3                   	ret
  2039c7:	2e 8d b4 26 00 00 00 	lea    %cs:0x0(%esi,%eiz,1),%esi
  2039ce:	00 
  2039cf:	90                   	nop

002039d0 <setAVL>:
  2039d0:	55                   	push   %ebp
  2039d1:	89 e5                	mov    %esp,%ebp
  2039d3:	53                   	push   %ebx
  2039d4:	83 ec 04             	sub    $0x4,%esp
  2039d7:	8b 45 08             	mov    0x8(%ebp),%eax
  2039da:	0f b6 5d 0c          	movzbl 0xc(%ebp),%ebx
  2039de:	6a 14                	push   $0x14
  2039e0:	83 c0 04             	add    $0x4,%eax
  2039e3:	6a 14                	push   $0x14
  2039e5:	53                   	push   %ebx
  2039e6:	50                   	push   %eax
  2039e7:	e8 44 fd ff ff       	call   203730 <setBitsModify>
  2039ec:	83 c4 10             	add    $0x10,%esp
  2039ef:	89 5d 08             	mov    %ebx,0x8(%ebp)
  2039f2:	8b 5d fc             	mov    -0x4(%ebp),%ebx
  2039f5:	c7 45 0c d0 56 20 00 	movl   $0x2056d0,0xc(%ebp)
  2039fc:	c9                   	leave
  2039fd:	e9 fe d3 ff ff       	jmp    200e00 <printBinary>
  203a02:	2e 8d b4 26 00 00 00 	lea    %cs:0x0(%esi,%eiz,1),%esi
  203a09:	00 
  203a0a:	8d b6 00 00 00 00    	lea    0x0(%esi),%esi

00203a10 <getLongMode>:
  203a10:	55                   	push   %ebp
  203a11:	89 e5                	mov    %esp,%ebp
  203a13:	83 ec 0c             	sub    $0xc,%esp
  203a16:	8b 45 08             	mov    0x8(%ebp),%eax
  203a19:	6a 20                	push   $0x20
  203a1b:	6a 20                	push   $0x20
  203a1d:	ff 70 04             	push   0x4(%eax)
  203a20:	e8 0b fc ff ff       	call   203630 <getBits>
  203a25:	c9                   	leave
  203a26:	c3                   	ret
  203a27:	2e 8d b4 26 00 00 00 	lea    %cs:0x0(%esi,%eiz,1),%esi
  203a2e:	00 
  203a2f:	90                   	nop

00203a30 <setLongMode>:
  203a30:	55                   	push   %ebp
  203a31:	89 e5                	mov    %esp,%ebp
  203a33:	53                   	push   %ebx
  203a34:	83 ec 04             	sub    $0x4,%esp
  203a37:	8b 45 08             	mov    0x8(%ebp),%eax
  203a3a:	0f b6 5d 0c          	movzbl 0xc(%ebp),%ebx
  203a3e:	6a 20                	push   $0x20
  203a40:	83 c0 04             	add    $0x4,%eax
  203a43:	6a 20                	push   $0x20
  203a45:	53                   	push   %ebx
  203a46:	50                   	push   %eax
  203a47:	e8 e4 fc ff ff       	call   203730 <setBitsModify>
  203a4c:	83 c4 10             	add    $0x10,%esp
  203a4f:	89 5d 08             	mov    %ebx,0x8(%ebp)
  203a52:	8b 5d fc             	mov    -0x4(%ebp),%ebx
  203a55:	c7 45 0c b8 56 20 00 	movl   $0x2056b8,0xc(%ebp)
  203a5c:	c9                   	leave
  203a5d:	e9 9e d3 ff ff       	jmp    200e00 <printBinary>
  203a62:	2e 8d b4 26 00 00 00 	lea    %cs:0x0(%esi,%eiz,1),%esi
  203a69:	00 
  203a6a:	8d b6 00 00 00 00    	lea    0x0(%esi),%esi

00203a70 <getDefaultOperationSize>:
  203a70:	55                   	push   %ebp
  203a71:	89 e5                	mov    %esp,%ebp
  203a73:	83 ec 0c             	sub    $0xc,%esp
  203a76:	8b 45 08             	mov    0x8(%ebp),%eax
  203a79:	6a 16                	push   $0x16
  203a7b:	6a 16                	push   $0x16
  203a7d:	ff 70 04             	push   0x4(%eax)
  203a80:	e8 ab fb ff ff       	call   203630 <getBits>
  203a85:	c9                   	leave
  203a86:	c3                   	ret
  203a87:	2e 8d b4 26 00 00 00 	lea    %cs:0x0(%esi,%eiz,1),%esi
  203a8e:	00 
  203a8f:	90                   	nop

00203a90 <setDefaultOperationSize>:
  203a90:	55                   	push   %ebp
  203a91:	89 e5                	mov    %esp,%ebp
  203a93:	53                   	push   %ebx
  203a94:	83 ec 04             	sub    $0x4,%esp
  203a97:	8b 45 08             	mov    0x8(%ebp),%eax
  203a9a:	0f b6 5d 0c          	movzbl 0xc(%ebp),%ebx
  203a9e:	6a 16                	push   $0x16
  203aa0:	83 c0 04             	add    $0x4,%eax
  203aa3:	6a 16                	push   $0x16
  203aa5:	53                   	push   %ebx
  203aa6:	50                   	push   %eax
  203aa7:	e8 84 fc ff ff       	call   203730 <setBitsModify>
  203aac:	83 c4 10             	add    $0x10,%esp
  203aaf:	89 5d 08             	mov    %ebx,0x8(%ebp)
  203ab2:	8b 5d fc             	mov    -0x4(%ebp),%ebx
  203ab5:	c7 45 0c d4 56 20 00 	movl   $0x2056d4,0xc(%ebp)
  203abc:	c9                   	leave
  203abd:	e9 3e d3 ff ff       	jmp    200e00 <printBinary>
  203ac2:	2e 8d b4 26 00 00 00 	lea    %cs:0x0(%esi,%eiz,1),%esi
  203ac9:	00 
  203aca:	8d b6 00 00 00 00    	lea    0x0(%esi),%esi

00203ad0 <getGranularity>:
  203ad0:	55                   	push   %ebp
  203ad1:	89 e5                	mov    %esp,%ebp
  203ad3:	83 ec 0c             	sub    $0xc,%esp
  203ad6:	8b 45 08             	mov    0x8(%ebp),%eax
  203ad9:	6a 17                	push   $0x17
  203adb:	6a 17                	push   $0x17
  203add:	ff 70 04             	push   0x4(%eax)
  203ae0:	e8 4b fb ff ff       	call   203630 <getBits>
  203ae5:	c9                   	leave
  203ae6:	c3                   	ret
  203ae7:	2e 8d b4 26 00 00 00 	lea    %cs:0x0(%esi,%eiz,1),%esi
  203aee:	00 
  203aef:	90                   	nop

00203af0 <setGranularity>:
  203af0:	55                   	push   %ebp
  203af1:	89 e5                	mov    %esp,%ebp
  203af3:	53                   	push   %ebx
  203af4:	83 ec 04             	sub    $0x4,%esp
  203af7:	8b 45 08             	mov    0x8(%ebp),%eax
  203afa:	0f b6 5d 0c          	movzbl 0xc(%ebp),%ebx
  203afe:	6a 17                	push   $0x17
  203b00:	83 c0 04             	add    $0x4,%eax
  203b03:	6a 17                	push   $0x17
  203b05:	53                   	push   %ebx
  203b06:	50                   	push   %eax
  203b07:	e8 24 fc ff ff       	call   203730 <setBitsModify>
  203b0c:	83 c4 10             	add    $0x10,%esp
  203b0f:	89 5d 08             	mov    %ebx,0x8(%ebp)
  203b12:	8b 5d fc             	mov    -0x4(%ebp),%ebx
  203b15:	c7 45 0c d8 56 20 00 	movl   $0x2056d8,0xc(%ebp)
  203b1c:	c9                   	leave
  203b1d:	e9 de d2 ff ff       	jmp    200e00 <printBinary>
  203b22:	2e 8d b4 26 00 00 00 	lea    %cs:0x0(%esi,%eiz,1),%esi
  203b29:	00 
  203b2a:	8d b6 00 00 00 00    	lea    0x0(%esi),%esi

00203b30 <getBaseAddress>:
  203b30:	55                   	push   %ebp
  203b31:	89 e5                	mov    %esp,%ebp
  203b33:	57                   	push   %edi
  203b34:	56                   	push   %esi
  203b35:	53                   	push   %ebx
  203b36:	83 ec 10             	sub    $0x10,%esp
  203b39:	8b 7d 08             	mov    0x8(%ebp),%edi
  203b3c:	6a 10                	push   $0x10
  203b3e:	6a 1f                	push   $0x1f
  203b40:	ff 37                	push   (%edi)
  203b42:	e8 e9 fa ff ff       	call   203630 <getBits>
  203b47:	83 c4 0c             	add    $0xc,%esp
  203b4a:	6a 00                	push   $0x0
  203b4c:	89 c6                	mov    %eax,%esi
  203b4e:	6a 07                	push   $0x7
  203b50:	ff 77 04             	push   0x4(%edi)
  203b53:	e8 d8 fa ff ff       	call   203630 <getBits>
  203b58:	83 c4 0c             	add    $0xc,%esp
  203b5b:	6a 18                	push   $0x18
  203b5d:	89 c3                	mov    %eax,%ebx
  203b5f:	6a 1f                	push   $0x1f
  203b61:	c1 e3 10             	shl    $0x10,%ebx
  203b64:	ff 77 04             	push   0x4(%edi)
  203b67:	e8 c4 fa ff ff       	call   203630 <getBits>
  203b6c:	8d 65 f4             	lea    -0xc(%ebp),%esp
  203b6f:	c1 e0 18             	shl    $0x18,%eax
  203b72:	09 c3                	or     %eax,%ebx
  203b74:	89 d8                	mov    %ebx,%eax
  203b76:	5b                   	pop    %ebx
  203b77:	09 f0                	or     %esi,%eax
  203b79:	5e                   	pop    %esi
  203b7a:	5f                   	pop    %edi
  203b7b:	5d                   	pop    %ebp
  203b7c:	c3                   	ret
  203b7d:	8d 76 00             	lea    0x0(%esi),%esi

00203b80 <setBaseAddress>:
  203b80:	55                   	push   %ebp
  203b81:	89 e5                	mov    %esp,%ebp
  203b83:	57                   	push   %edi
  203b84:	56                   	push   %esi
  203b85:	53                   	push   %ebx
  203b86:	83 ec 20             	sub    $0x20,%esp
  203b89:	8b 75 0c             	mov    0xc(%ebp),%esi
  203b8c:	8b 5d 08             	mov    0x8(%ebp),%ebx
  203b8f:	6a 18                	push   $0x18
  203b91:	6a 1f                	push   $0x1f
  203b93:	56                   	push   %esi
  203b94:	e8 97 fa ff ff       	call   203630 <getBits>
  203b99:	83 c4 0c             	add    $0xc,%esp
  203b9c:	6a 10                	push   $0x10
  203b9e:	89 c7                	mov    %eax,%edi
  203ba0:	6a 17                	push   $0x17
  203ba2:	56                   	push   %esi
  203ba3:	e8 88 fa ff ff       	call   203630 <getBits>
  203ba8:	83 c4 0c             	add    $0xc,%esp
  203bab:	89 45 e4             	mov    %eax,-0x1c(%ebp)
  203bae:	6a 00                	push   $0x0
  203bb0:	6a 0f                	push   $0xf
  203bb2:	56                   	push   %esi
  203bb3:	e8 78 fa ff ff       	call   203630 <getBits>
  203bb8:	6a 10                	push   $0x10
  203bba:	6a 1f                	push   $0x1f
  203bbc:	50                   	push   %eax
  203bbd:	53                   	push   %ebx
  203bbe:	83 c3 04             	add    $0x4,%ebx
  203bc1:	e8 6a fb ff ff       	call   203730 <setBitsModify>
  203bc6:	83 c4 20             	add    $0x20,%esp
  203bc9:	6a 00                	push   $0x0
  203bcb:	6a 07                	push   $0x7
  203bcd:	8b 55 e4             	mov    -0x1c(%ebp),%edx
  203bd0:	52                   	push   %edx
  203bd1:	53                   	push   %ebx
  203bd2:	e8 59 fb ff ff       	call   203730 <setBitsModify>
  203bd7:	6a 18                	push   $0x18
  203bd9:	6a 1f                	push   $0x1f
  203bdb:	57                   	push   %edi
  203bdc:	53                   	push   %ebx
  203bdd:	e8 4e fb ff ff       	call   203730 <setBitsModify>
  203be2:	83 c4 20             	add    $0x20,%esp
  203be5:	c7 45 0c e4 56 20 00 	movl   $0x2056e4,0xc(%ebp)
  203bec:	89 75 08             	mov    %esi,0x8(%ebp)
  203bef:	8d 65 f4             	lea    -0xc(%ebp),%esp
  203bf2:	5b                   	pop    %ebx
  203bf3:	5e                   	pop    %esi
  203bf4:	5f                   	pop    %edi
  203bf5:	5d                   	pop    %ebp
  203bf6:	e9 05 d2 ff ff       	jmp    200e00 <printBinary>
  203bfb:	2e 8d 74 26 00       	lea    %cs:0x0(%esi,%eiz,1),%esi

00203c00 <get_access>:
  203c00:	55                   	push   %ebp
  203c01:	89 e5                	mov    %esp,%ebp
  203c03:	8b 45 08             	mov    0x8(%ebp),%eax
  203c06:	5d                   	pop    %ebp
  203c07:	0f b6 40 05          	movzbl 0x5(%eax),%eax
  203c0b:	c3                   	ret
  203c0c:	8d 74 26 00          	lea    0x0(%esi,%eiz,1),%esi

00203c10 <get_flags>:
  203c10:	55                   	push   %ebp
  203c11:	89 e5                	mov    %esp,%ebp
  203c13:	8b 45 08             	mov    0x8(%ebp),%eax
  203c16:	5d                   	pop    %ebp
  203c17:	0f b6 40 06          	movzbl 0x6(%eax),%eax
  203c1b:	c0 e8 04             	shr    $0x4,%al
  203c1e:	c3                   	ret
  203c1f:	90                   	nop

00203c20 <bool_to_char>:
  203c20:	55                   	push   %ebp
  203c21:	89 e5                	mov    %esp,%ebp
  203c23:	0f b6 45 08          	movzbl 0x8(%ebp),%eax
  203c27:	5d                   	pop    %ebp
  203c28:	83 c0 30             	add    $0x30,%eax
  203c2b:	c3                   	ret
  203c2c:	8d 74 26 00          	lea    0x0(%esi,%eiz,1),%esi

00203c30 <modify_string>:
  203c30:	55                   	push   %ebp
  203c31:	89 e5                	mov    %esp,%ebp
  203c33:	53                   	push   %ebx
  203c34:	8b 45 08             	mov    0x8(%ebp),%eax
  203c37:	0f b6 10             	movzbl (%eax),%edx
  203c3a:	84 d2                	test   %dl,%dl
  203c3c:	74 40                	je     203c7e <modify_string+0x4e>
  203c3e:	0f b6 5d 0c          	movzbl 0xc(%ebp),%ebx
  203c42:	31 c9                	xor    %ecx,%ecx
  203c44:	eb 15                	jmp    203c5b <modify_string+0x2b>
  203c46:	2e 8d b4 26 00 00 00 	lea    %cs:0x0(%esi,%eiz,1),%esi
  203c4d:	00 
  203c4e:	66 90                	xchg   %ax,%ax
  203c50:	0f b6 50 01          	movzbl 0x1(%eax),%edx
  203c54:	83 c0 01             	add    $0x1,%eax
  203c57:	84 d2                	test   %dl,%dl
  203c59:	74 23                	je     203c7e <modify_string+0x4e>
  203c5b:	80 fa 25             	cmp    $0x25,%dl
  203c5e:	75 f0                	jne    203c50 <modify_string+0x20>
  203c60:	80 f9 07             	cmp    $0x7,%cl
  203c63:	77 19                	ja     203c7e <modify_string+0x4e>
  203c65:	0f a3 cb             	bt     %ecx,%ebx
  203c68:	0f 92 c2             	setb   %dl
  203c6b:	83 c0 01             	add    $0x1,%eax
  203c6e:	83 c1 01             	add    $0x1,%ecx
  203c71:	83 c2 30             	add    $0x30,%edx
  203c74:	88 50 ff             	mov    %dl,-0x1(%eax)
  203c77:	0f b6 10             	movzbl (%eax),%edx
  203c7a:	84 d2                	test   %dl,%dl
  203c7c:	75 dd                	jne    203c5b <modify_string+0x2b>
  203c7e:	8b 5d fc             	mov    -0x4(%ebp),%ebx
  203c81:	c9                   	leave
  203c82:	c3                   	ret
  203c83:	2e 8d b4 26 00 00 00 	lea    %cs:0x0(%esi,%eiz,1),%esi
  203c8a:	00 
  203c8b:	2e 8d 74 26 00       	lea    %cs:0x0(%esi,%eiz,1),%esi

00203c90 <modify_string_opsize>:
  203c90:	55                   	push   %ebp
  203c91:	89 e5                	mov    %esp,%ebp
  203c93:	57                   	push   %edi
  203c94:	56                   	push   %esi
  203c95:	53                   	push   %ebx
  203c96:	83 ec 10             	sub    $0x10,%esp
  203c99:	8b 45 0c             	mov    0xc(%ebp),%eax
  203c9c:	8b 4d 08             	mov    0x8(%ebp),%ecx
  203c9f:	3c 20                	cmp    $0x20,%al
  203ca1:	74 7d                	je     203d20 <modify_string_opsize+0x90>
  203ca3:	3c 40                	cmp    $0x40,%al
  203ca5:	74 69                	je     203d10 <modify_string_opsize+0x80>
  203ca7:	3c 10                	cmp    $0x10,%al
  203ca9:	74 55                	je     203d00 <modify_string_opsize+0x70>
  203cab:	0f b6 11             	movzbl (%ecx),%edx
  203cae:	31 c0                	xor    %eax,%eax
  203cb0:	31 ff                	xor    %edi,%edi
  203cb2:	84 d2                	test   %dl,%dl
  203cb4:	75 15                	jne    203ccb <modify_string_opsize+0x3b>
  203cb6:	eb 3b                	jmp    203cf3 <modify_string_opsize+0x63>
  203cb8:	2e 8d b4 26 00 00 00 	lea    %cs:0x0(%esi,%eiz,1),%esi
  203cbf:	00 
  203cc0:	83 c0 01             	add    $0x1,%eax
  203cc3:	0f b6 14 01          	movzbl (%ecx,%eax,1),%edx
  203cc7:	84 d2                	test   %dl,%dl
  203cc9:	74 28                	je     203cf3 <modify_string_opsize+0x63>
  203ccb:	80 fa 25             	cmp    $0x25,%dl
  203cce:	75 f0                	jne    203cc0 <modify_string_opsize+0x30>
  203cd0:	89 fb                	mov    %edi,%ebx
  203cd2:	80 fb 01             	cmp    $0x1,%bl
  203cd5:	77 1c                	ja     203cf3 <modify_string_opsize+0x63>
  203cd7:	0f b6 f3             	movzbl %bl,%esi
  203cda:	0f b6 d0             	movzbl %al,%edx
  203cdd:	83 c0 01             	add    $0x1,%eax
  203ce0:	83 c7 01             	add    $0x1,%edi
  203ce3:	0f b6 5c 35 f0       	movzbl -0x10(%ebp,%esi,1),%ebx
  203ce8:	88 1c 11             	mov    %bl,(%ecx,%edx,1)
  203ceb:	0f b6 14 01          	movzbl (%ecx,%eax,1),%edx
  203cef:	84 d2                	test   %dl,%dl
  203cf1:	75 d8                	jne    203ccb <modify_string_opsize+0x3b>
  203cf3:	83 c4 10             	add    $0x10,%esp
  203cf6:	5b                   	pop    %ebx
  203cf7:	5e                   	pop    %esi
  203cf8:	5f                   	pop    %edi
  203cf9:	5d                   	pop    %ebp
  203cfa:	c3                   	ret
  203cfb:	2e 8d 74 26 00       	lea    %cs:0x0(%esi,%eiz,1),%esi
  203d00:	bb 31 36 00 00       	mov    $0x3631,%ebx
  203d05:	66 89 5d f0          	mov    %bx,-0x10(%ebp)
  203d09:	eb a0                	jmp    203cab <modify_string_opsize+0x1b>
  203d0b:	2e 8d 74 26 00       	lea    %cs:0x0(%esi,%eiz,1),%esi
  203d10:	b8 36 34 00 00       	mov    $0x3436,%eax
  203d15:	66 89 45 f0          	mov    %ax,-0x10(%ebp)
  203d19:	eb 90                	jmp    203cab <modify_string_opsize+0x1b>
  203d1b:	2e 8d 74 26 00       	lea    %cs:0x0(%esi,%eiz,1),%esi
  203d20:	ba 33 32 00 00       	mov    $0x3233,%edx
  203d25:	66 89 55 f0          	mov    %dx,-0x10(%ebp)
  203d29:	eb 80                	jmp    203cab <modify_string_opsize+0x1b>
  203d2b:	2e 8d 74 26 00       	lea    %cs:0x0(%esi,%eiz,1),%esi

00203d30 <create_access_desc_str>:
  203d30:	55                   	push   %ebp
  203d31:	89 e5                	mov    %esp,%ebp
  203d33:	57                   	push   %edi
  203d34:	56                   	push   %esi
  203d35:	53                   	push   %ebx
  203d36:	83 ec 48             	sub    $0x48,%esp
  203d39:	8b 45 0c             	mov    0xc(%ebp),%eax
  203d3c:	8b 75 08             	mov    0x8(%ebp),%esi
  203d3f:	85 c0                	test   %eax,%eax
  203d41:	0f 84 25 01 00 00    	je     203e6c <create_access_desc_str+0x13c>
  203d47:	83 f8 01             	cmp    $0x1,%eax
  203d4a:	0f 84 d7 00 00 00    	je     203e27 <create_access_desc_str+0xf7>
  203d50:	0f b6 19             	movzbl (%ecx),%ebx
  203d53:	80 fb 7b             	cmp    $0x7b,%bl
  203d56:	0f 84 04 01 00 00    	je     203e60 <create_access_desc_str+0x130>
  203d5c:	31 d2                	xor    %edx,%edx
  203d5e:	66 90                	xchg   %ax,%ax
  203d60:	0f b6 c2             	movzbl %dl,%eax
  203d63:	83 c1 01             	add    $0x1,%ecx
  203d66:	88 1c 06             	mov    %bl,(%esi,%eax,1)
  203d69:	0f b6 19             	movzbl (%ecx),%ebx
  203d6c:	89 d0                	mov    %edx,%eax
  203d6e:	83 c2 01             	add    $0x1,%edx
  203d71:	80 fb 7b             	cmp    $0x7b,%bl
  203d74:	75 ea                	jne    203d60 <create_access_desc_str+0x30>
  203d76:	0f b6 d2             	movzbl %dl,%edx
  203d79:	83 c0 02             	add    $0x2,%eax
  203d7c:	01 f2                	add    %esi,%edx
  203d7e:	c6 02 7b             	movb   $0x7b,(%edx)
  203d81:	0f b6 55 b0          	movzbl -0x50(%ebp),%edx
  203d85:	89 4d ac             	mov    %ecx,-0x54(%ebp)
  203d88:	8d 1c 97             	lea    (%edi,%edx,4),%ebx
  203d8b:	89 5d b0             	mov    %ebx,-0x50(%ebp)
  203d8e:	66 90                	xchg   %ax,%ax
  203d90:	8b 0f                	mov    (%edi),%ecx
  203d92:	0f b7 1d ea 5a 20 00 	movzwl 0x205aea,%ebx
  203d99:	0f b6 d0             	movzbl %al,%edx
  203d9c:	83 c0 02             	add    $0x2,%eax
  203d9f:	66 89 1c 16          	mov    %bx,(%esi,%edx,1)
  203da3:	0f b6 11             	movzbl (%ecx),%edx
  203da6:	84 d2                	test   %dl,%dl
  203da8:	74 29                	je     203dd3 <create_access_desc_str+0xa3>
  203daa:	2e 8d b4 26 00 00 00 	lea    %cs:0x0(%esi,%eiz,1),%esi
  203db1:	00 
  203db2:	2e 8d b4 26 00 00 00 	lea    %cs:0x0(%esi,%eiz,1),%esi
  203db9:	00 
  203dba:	8d b6 00 00 00 00    	lea    0x0(%esi),%esi
  203dc0:	0f b6 d8             	movzbl %al,%ebx
  203dc3:	83 c1 01             	add    $0x1,%ecx
  203dc6:	83 c0 01             	add    $0x1,%eax
  203dc9:	88 14 1e             	mov    %dl,(%esi,%ebx,1)
  203dcc:	0f b6 11             	movzbl (%ecx),%edx
  203dcf:	84 d2                	test   %dl,%dl
  203dd1:	75 ed                	jne    203dc0 <create_access_desc_str+0x90>
  203dd3:	83 c7 04             	add    $0x4,%edi
  203dd6:	3b 7d b0             	cmp    -0x50(%ebp),%edi
  203dd9:	75 b5                	jne    203d90 <create_access_desc_str+0x60>
  203ddb:	8b 4d ac             	mov    -0x54(%ebp),%ecx
  203dde:	0f b6 d0             	movzbl %al,%edx
  203de1:	83 c0 01             	add    $0x1,%eax
  203de4:	c6 04 16 0a          	movb   $0xa,(%esi,%edx,1)
  203de8:	0f b6 51 01          	movzbl 0x1(%ecx),%edx
  203dec:	84 d2                	test   %dl,%dl
  203dee:	74 23                	je     203e13 <create_access_desc_str+0xe3>
  203df0:	83 c1 01             	add    $0x1,%ecx
  203df3:	2e 8d b4 26 00 00 00 	lea    %cs:0x0(%esi,%eiz,1),%esi
  203dfa:	00 
  203dfb:	2e 8d 74 26 00       	lea    %cs:0x0(%esi,%eiz,1),%esi
  203e00:	0f b6 d8             	movzbl %al,%ebx
  203e03:	83 c1 01             	add    $0x1,%ecx
  203e06:	83 c0 01             	add    $0x1,%eax
  203e09:	88 14 1e             	mov    %dl,(%esi,%ebx,1)
  203e0c:	0f b6 11             	movzbl (%ecx),%edx
  203e0f:	84 d2                	test   %dl,%dl
  203e11:	75 ed                	jne    203e00 <create_access_desc_str+0xd0>
  203e13:	0f b6 c0             	movzbl %al,%eax
  203e16:	ba 0a 00 00 00       	mov    $0xa,%edx
  203e1b:	66 89 14 06          	mov    %dx,(%esi,%eax,1)
  203e1f:	83 c4 48             	add    $0x48,%esp
  203e22:	5b                   	pop    %ebx
  203e23:	5e                   	pop    %esi
  203e24:	5f                   	pop    %edi
  203e25:	5d                   	pop    %ebp
  203e26:	c3                   	ret
  203e27:	8b 55 14             	mov    0x14(%ebp),%edx
  203e2a:	8b 45 10             	mov    0x10(%ebp),%eax
  203e2d:	c6 45 b0 05          	movb   $0x5,-0x50(%ebp)
  203e31:	8d 7d c0             	lea    -0x40(%ebp),%edi
  203e34:	89 55 c0             	mov    %edx,-0x40(%ebp)
  203e37:	8b 55 18             	mov    0x18(%ebp),%edx
  203e3a:	89 c1                	mov    %eax,%ecx
  203e3c:	0f b6 19             	movzbl (%ecx),%ebx
  203e3f:	89 45 bc             	mov    %eax,-0x44(%ebp)
  203e42:	89 55 c4             	mov    %edx,-0x3c(%ebp)
  203e45:	8b 55 1c             	mov    0x1c(%ebp),%edx
  203e48:	89 55 c8             	mov    %edx,-0x38(%ebp)
  203e4b:	8b 55 20             	mov    0x20(%ebp),%edx
  203e4e:	89 55 cc             	mov    %edx,-0x34(%ebp)
  203e51:	8b 55 24             	mov    0x24(%ebp),%edx
  203e54:	89 55 d0             	mov    %edx,-0x30(%ebp)
  203e57:	80 fb 7b             	cmp    $0x7b,%bl
  203e5a:	0f 85 fc fe ff ff    	jne    203d5c <create_access_desc_str+0x2c>
  203e60:	89 f2                	mov    %esi,%edx
  203e62:	b8 01 00 00 00       	mov    $0x1,%eax
  203e67:	e9 12 ff ff ff       	jmp    203d7e <create_access_desc_str+0x4e>
  203e6c:	8b 55 14             	mov    0x14(%ebp),%edx
  203e6f:	8b 45 10             	mov    0x10(%ebp),%eax
  203e72:	c6 45 b0 07          	movb   $0x7,-0x50(%ebp)
  203e76:	8d 7d d8             	lea    -0x28(%ebp),%edi
  203e79:	89 55 d8             	mov    %edx,-0x28(%ebp)
  203e7c:	8b 55 18             	mov    0x18(%ebp),%edx
  203e7f:	89 c1                	mov    %eax,%ecx
  203e81:	89 45 d4             	mov    %eax,-0x2c(%ebp)
  203e84:	89 55 dc             	mov    %edx,-0x24(%ebp)
  203e87:	8b 55 1c             	mov    0x1c(%ebp),%edx
  203e8a:	89 55 e0             	mov    %edx,-0x20(%ebp)
  203e8d:	8b 55 20             	mov    0x20(%ebp),%edx
  203e90:	89 55 e4             	mov    %edx,-0x1c(%ebp)
  203e93:	8b 55 24             	mov    0x24(%ebp),%edx
  203e96:	89 55 e8             	mov    %edx,-0x18(%ebp)
  203e99:	8b 55 28             	mov    0x28(%ebp),%edx
  203e9c:	89 55 ec             	mov    %edx,-0x14(%ebp)
  203e9f:	8b 55 2c             	mov    0x2c(%ebp),%edx
  203ea2:	89 55 f0             	mov    %edx,-0x10(%ebp)
  203ea5:	e9 a6 fe ff ff       	jmp    203d50 <create_access_desc_str+0x20>
  203eaa:	8d b6 00 00 00 00    	lea    0x0(%esi),%esi

00203eb0 <interpret_access>:
  203eb0:	55                   	push   %ebp
  203eb1:	31 c9                	xor    %ecx,%ecx
  203eb3:	89 e5                	mov    %esp,%ebp
  203eb5:	57                   	push   %edi
  203eb6:	56                   	push   %esi
  203eb7:	53                   	push   %ebx
  203eb8:	81 ec a8 00 00 00    	sub    $0xa8,%esp
  203ebe:	8b 55 08             	mov    0x8(%ebp),%edx
  203ec1:	c7 85 74 ff ff ff 41 	movl   $0x65636341,-0x8c(%ebp)
  203ec8:	63 63 65 
  203ecb:	c7 85 78 ff ff ff 73 	movl   $0x3d207373,-0x88(%ebp)
  203ed2:	73 20 3d 
  203ed5:	89 d0                	mov    %edx,%eax
  203ed7:	89 d3                	mov    %edx,%ebx
  203ed9:	c7 85 7c ff ff ff 20 	movl   $0x7d7b20,-0x84(%ebp)
  203ee0:	7b 7d 00 
  203ee3:	c0 e8 05             	shr    $0x5,%al
  203ee6:	c0 eb 07             	shr    $0x7,%bl
  203ee9:	c7 45 80 70 72 65 73 	movl   $0x73657270,-0x80(%ebp)
  203ef0:	83 e0 03             	and    $0x3,%eax
  203ef3:	c7 45 84 65 6e 74 20 	movl   $0x20746e65,-0x7c(%ebp)
  203efa:	0f b6 fb             	movzbl %bl,%edi
  203efd:	89 c6                	mov    %eax,%esi
  203eff:	89 d0                	mov    %edx,%eax
  203f01:	c7 45 88 3d 20 25 00 	movl   $0x25203d,-0x78(%ebp)
  203f08:	c0 e8 04             	shr    $0x4,%al
  203f0b:	88 85 5c ff ff ff    	mov    %al,-0xa4(%ebp)
  203f11:	89 d0                	mov    %edx,%eax
  203f13:	c0 e8 02             	shr    $0x2,%al
  203f16:	88 85 58 ff ff ff    	mov    %al,-0xa8(%ebp)
  203f1c:	89 d0                	mov    %edx,%eax
  203f1e:	d0 e8                	shr    $1,%al
  203f20:	88 85 54 ff ff ff    	mov    %al,-0xac(%ebp)
  203f26:	8d 45 80             	lea    -0x80(%ebp),%eax
  203f29:	89 85 4c ff ff ff    	mov    %eax,-0xb4(%ebp)
  203f2f:	f6 c2 08             	test   $0x8,%dl
  203f32:	0f 84 c9 02 00 00    	je     204201 <interpret_access+0x351>
  203f38:	2e 8d b4 26 00 00 00 	lea    %cs:0x0(%esi,%eiz,1),%esi
  203f3f:	00 
  203f40:	0f b6 58 01          	movzbl 0x1(%eax),%ebx
  203f44:	83 c0 01             	add    $0x1,%eax
  203f47:	84 db                	test   %bl,%bl
  203f49:	74 21                	je     203f6c <interpret_access+0xbc>
  203f4b:	80 fb 25             	cmp    $0x25,%bl
  203f4e:	75 f0                	jne    203f40 <interpret_access+0x90>
  203f50:	80 f9 07             	cmp    $0x7,%cl
  203f53:	77 17                	ja     203f6c <interpret_access+0xbc>
  203f55:	89 fb                	mov    %edi,%ebx
  203f57:	83 c0 01             	add    $0x1,%eax
  203f5a:	d3 fb                	sar    %cl,%ebx
  203f5c:	83 c1 01             	add    $0x1,%ecx
  203f5f:	83 c3 30             	add    $0x30,%ebx
  203f62:	88 58 ff             	mov    %bl,-0x1(%eax)
  203f65:	0f b6 18             	movzbl (%eax),%ebx
  203f68:	84 db                	test   %bl,%bl
  203f6a:	75 df                	jne    203f4b <interpret_access+0x9b>
  203f6c:	8d 85 6b ff ff ff    	lea    -0x95(%ebp),%eax
  203f72:	c6 85 73 ff ff ff 00 	movb   $0x0,-0x8d(%ebp)
  203f79:	89 f1                	mov    %esi,%ecx
  203f7b:	31 db                	xor    %ebx,%ebx
  203f7d:	c7 85 6b ff ff ff 64 	movl   $0x206c7064,-0x95(%ebp)
  203f84:	70 6c 20 
  203f87:	0f b6 f1             	movzbl %cl,%esi
  203f8a:	c7 85 6f ff ff ff 3d 	movl   $0x2525203d,-0x91(%ebp)
  203f91:	20 25 25 
  203f94:	89 85 50 ff ff ff    	mov    %eax,-0xb0(%ebp)
  203f9a:	8d b6 00 00 00 00    	lea    0x0(%esi),%esi
  203fa0:	0f b6 48 01          	movzbl 0x1(%eax),%ecx
  203fa4:	83 c0 01             	add    $0x1,%eax
  203fa7:	84 c9                	test   %cl,%cl
  203fa9:	74 23                	je     203fce <interpret_access+0x11e>
  203fab:	80 f9 25             	cmp    $0x25,%cl
  203fae:	75 f0                	jne    203fa0 <interpret_access+0xf0>
  203fb0:	80 fb 07             	cmp    $0x7,%bl
  203fb3:	77 19                	ja     203fce <interpret_access+0x11e>
  203fb5:	0f a3 de             	bt     %ebx,%esi
  203fb8:	0f 92 c1             	setb   %cl
  203fbb:	83 c0 01             	add    $0x1,%eax
  203fbe:	83 c3 01             	add    $0x1,%ebx
  203fc1:	83 c1 30             	add    $0x30,%ecx
  203fc4:	88 48 ff             	mov    %cl,-0x1(%eax)
  203fc7:	0f b6 08             	movzbl (%eax),%ecx
  203fca:	84 c9                	test   %cl,%cl
  203fcc:	75 dd                	jne    203fab <interpret_access+0xfb>
  203fce:	8d 45 99             	lea    -0x67(%ebp),%eax
  203fd1:	c7 45 a1 65 6d 20 3d 	movl   $0x3d206d65,-0x5f(%ebp)
  203fd8:	31 c9                	xor    %ecx,%ecx
  203fda:	8b bd 5c ff ff ff    	mov    -0xa4(%ebp),%edi
  203fe0:	c7 45 99 4e 6f 74 20 	movl   $0x20746f4e,-0x67(%ebp)
  203fe7:	c7 45 9d 53 79 73 74 	movl   $0x74737953,-0x63(%ebp)
  203fee:	83 e7 01             	and    $0x1,%edi
  203ff1:	c7 45 a4 3d 20 25 00 	movl   $0x25203d,-0x5c(%ebp)
  203ff8:	89 85 60 ff ff ff    	mov    %eax,-0xa0(%ebp)
  203ffe:	66 90                	xchg   %ax,%ax
  204000:	0f b6 58 01          	movzbl 0x1(%eax),%ebx
  204004:	83 c0 01             	add    $0x1,%eax
  204007:	84 db                	test   %bl,%bl
  204009:	74 21                	je     20402c <interpret_access+0x17c>
  20400b:	80 fb 25             	cmp    $0x25,%bl
  20400e:	75 f0                	jne    204000 <interpret_access+0x150>
  204010:	80 f9 07             	cmp    $0x7,%cl
  204013:	77 17                	ja     20402c <interpret_access+0x17c>
  204015:	89 fb                	mov    %edi,%ebx
  204017:	83 c0 01             	add    $0x1,%eax
  20401a:	d3 fb                	sar    %cl,%ebx
  20401c:	83 c1 01             	add    $0x1,%ecx
  20401f:	83 c3 30             	add    $0x30,%ebx
  204022:	88 58 ff             	mov    %bl,-0x1(%eax)
  204025:	0f b6 18             	movzbl (%eax),%ebx
  204028:	84 db                	test   %bl,%bl
  20402a:	75 df                	jne    20400b <interpret_access+0x15b>
  20402c:	8d 45 a8             	lea    -0x58(%ebp),%eax
  20402f:	8b b5 58 ff ff ff    	mov    -0xa8(%ebp),%esi
  204035:	31 c9                	xor    %ecx,%ecx
  204037:	c7 45 b4 6e 67 20 3d 	movl   $0x3d20676e,-0x4c(%ebp)
  20403e:	c7 85 66 ff ff ff 43 	movl   $0x65646f43,-0x9a(%ebp)
  204045:	6f 64 65 
  204048:	c6 85 6a ff ff ff 00 	movb   $0x0,-0x96(%ebp)
  20404f:	83 e6 01             	and    $0x1,%esi
  204052:	c7 45 a8 4e 6f 6e 20 	movl   $0x206e6f4e,-0x58(%ebp)
  204059:	c7 45 ac 43 6f 6e 66 	movl   $0x666e6f43,-0x54(%ebp)
  204060:	c7 45 b0 6f 72 6d 69 	movl   $0x696d726f,-0x50(%ebp)
  204067:	c7 45 b7 3d 20 25 00 	movl   $0x25203d,-0x49(%ebp)
  20406e:	89 85 5c ff ff ff    	mov    %eax,-0xa4(%ebp)
  204074:	2e 8d b4 26 00 00 00 	lea    %cs:0x0(%esi,%eiz,1),%esi
  20407b:	00 
  20407c:	8d 74 26 00          	lea    0x0(%esi,%eiz,1),%esi
  204080:	0f b6 58 01          	movzbl 0x1(%eax),%ebx
  204084:	83 c0 01             	add    $0x1,%eax
  204087:	84 db                	test   %bl,%bl
  204089:	74 21                	je     2040ac <interpret_access+0x1fc>
  20408b:	80 fb 25             	cmp    $0x25,%bl
  20408e:	75 f0                	jne    204080 <interpret_access+0x1d0>
  204090:	80 f9 07             	cmp    $0x7,%cl
  204093:	77 17                	ja     2040ac <interpret_access+0x1fc>
  204095:	89 f3                	mov    %esi,%ebx
  204097:	83 c0 01             	add    $0x1,%eax
  20409a:	d3 fb                	sar    %cl,%ebx
  20409c:	83 c1 01             	add    $0x1,%ecx
  20409f:	83 c3 30             	add    $0x30,%ebx
  2040a2:	88 58 ff             	mov    %bl,-0x1(%eax)
  2040a5:	0f b6 18             	movzbl (%eax),%ebx
  2040a8:	84 db                	test   %bl,%bl
  2040aa:	75 df                	jne    20408b <interpret_access+0x1db>
  2040ac:	8b b5 54 ff ff ff    	mov    -0xac(%ebp),%esi
  2040b2:	c7 45 bb 52 65 61 64 	movl   $0x64616552,-0x45(%ebp)
  2040b9:	31 ff                	xor    %edi,%edi
  2040bb:	8d 5d bb             	lea    -0x45(%ebp),%ebx
  2040be:	c7 45 bf 20 50 65 72 	movl   $0x72655020,-0x41(%ebp)
  2040c5:	89 d8                	mov    %ebx,%eax
  2040c7:	c7 45 c3 6d 69 73 73 	movl   $0x7373696d,-0x3d(%ebp)
  2040ce:	83 e6 01             	and    $0x1,%esi
  2040d1:	c7 45 c7 69 6f 6e 20 	movl   $0x206e6f69,-0x39(%ebp)
  2040d8:	c7 45 cb 3d 20 25 00 	movl   $0x25203d,-0x35(%ebp)
  2040df:	89 95 58 ff ff ff    	mov    %edx,-0xa8(%ebp)
  2040e5:	2e 8d b4 26 00 00 00 	lea    %cs:0x0(%esi,%eiz,1),%esi
  2040ec:	00 
  2040ed:	8d 76 00             	lea    0x0(%esi),%esi
  2040f0:	0f b6 48 01          	movzbl 0x1(%eax),%ecx
  2040f4:	83 c0 01             	add    $0x1,%eax
  2040f7:	84 c9                	test   %cl,%cl
  2040f9:	74 23                	je     20411e <interpret_access+0x26e>
  2040fb:	80 f9 25             	cmp    $0x25,%cl
  2040fe:	75 f0                	jne    2040f0 <interpret_access+0x240>
  204100:	89 f9                	mov    %edi,%ecx
  204102:	80 f9 07             	cmp    $0x7,%cl
  204105:	77 17                	ja     20411e <interpret_access+0x26e>
  204107:	89 f2                	mov    %esi,%edx
  204109:	83 c0 01             	add    $0x1,%eax
  20410c:	83 c7 01             	add    $0x1,%edi
  20410f:	d3 fa                	sar    %cl,%edx
  204111:	8d 4a 30             	lea    0x30(%edx),%ecx
  204114:	88 48 ff             	mov    %cl,-0x1(%eax)
  204117:	0f b6 08             	movzbl (%eax),%ecx
  20411a:	84 c9                	test   %cl,%cl
  20411c:	75 dd                	jne    2040fb <interpret_access+0x24b>
  20411e:	8b 95 58 ff ff ff    	mov    -0xa8(%ebp),%edx
  204124:	c6 45 98 00          	movb   $0x0,-0x68(%ebp)
  204128:	8d 75 8c             	lea    -0x74(%ebp),%esi
  20412b:	31 c9                	xor    %ecx,%ecx
  20412d:	c7 45 8c 61 63 63 65 	movl   $0x65636361,-0x74(%ebp)
  204134:	89 f0                	mov    %esi,%eax
  204136:	c7 45 90 73 73 65 64 	movl   $0x64657373,-0x70(%ebp)
  20413d:	83 e2 01             	and    $0x1,%edx
  204140:	c7 45 94 20 3d 20 25 	movl   $0x25203d20,-0x6c(%ebp)
  204147:	89 d7                	mov    %edx,%edi
  204149:	8d b4 26 00 00 00 00 	lea    0x0(%esi,%eiz,1),%esi
  204150:	0f b6 50 01          	movzbl 0x1(%eax),%edx
  204154:	83 c0 01             	add    $0x1,%eax
  204157:	84 d2                	test   %dl,%dl
  204159:	74 21                	je     20417c <interpret_access+0x2cc>
  20415b:	80 fa 25             	cmp    $0x25,%dl
  20415e:	75 f0                	jne    204150 <interpret_access+0x2a0>
  204160:	80 f9 07             	cmp    $0x7,%cl
  204163:	77 17                	ja     20417c <interpret_access+0x2cc>
  204165:	89 fa                	mov    %edi,%edx
  204167:	83 c0 01             	add    $0x1,%eax
  20416a:	d3 fa                	sar    %cl,%edx
  20416c:	83 c1 01             	add    $0x1,%ecx
  20416f:	83 c2 30             	add    $0x30,%edx
  204172:	88 50 ff             	mov    %dl,-0x1(%eax)
  204175:	0f b6 10             	movzbl (%eax),%edx
  204178:	84 d2                	test   %dl,%dl
  20417a:	75 df                	jne    20415b <interpret_access+0x2ab>
  20417c:	8b 95 60 ff ff ff    	mov    -0xa0(%ebp),%edx
  204182:	8d 85 74 ff ff ff    	lea    -0x8c(%ebp),%eax
  204188:	8b bd 4c ff ff ff    	mov    -0xb4(%ebp),%edi
  20418e:	89 5d ec             	mov    %ebx,-0x14(%ebp)
  204191:	8b 8d 50 ff ff ff    	mov    -0xb0(%ebp),%ecx
  204197:	89 45 d4             	mov    %eax,-0x2c(%ebp)
  20419a:	8b 85 5c ff ff ff    	mov    -0xa4(%ebp),%eax
  2041a0:	89 55 e0             	mov    %edx,-0x20(%ebp)
  2041a3:	8d 95 66 ff ff ff    	lea    -0x9a(%ebp),%edx
  2041a9:	89 7d d8             	mov    %edi,-0x28(%ebp)
  2041ac:	89 4d dc             	mov    %ecx,-0x24(%ebp)
  2041af:	89 55 e4             	mov    %edx,-0x1c(%ebp)
  2041b2:	89 45 e8             	mov    %eax,-0x18(%ebp)
  2041b5:	89 75 f0             	mov    %esi,-0x10(%ebp)
  2041b8:	c7 45 d0 00 00 00 00 	movl   $0x0,-0x30(%ebp)
  2041bf:	56                   	push   %esi
  2041c0:	53                   	push   %ebx
  2041c1:	50                   	push   %eax
  2041c2:	8d 85 74 ff ff ff    	lea    -0x8c(%ebp),%eax
  2041c8:	52                   	push   %edx
  2041c9:	ff b5 60 ff ff ff    	push   -0xa0(%ebp)
  2041cf:	51                   	push   %ecx
  2041d0:	57                   	push   %edi
  2041d1:	50                   	push   %eax
  2041d2:	6a 00                	push   $0x0
  2041d4:	ff 75 0c             	push   0xc(%ebp)
  2041d7:	e8 54 fb ff ff       	call   203d30 <create_access_desc_str>
  2041dc:	83 c4 28             	add    $0x28,%esp
  2041df:	8d 65 f4             	lea    -0xc(%ebp),%esp
  2041e2:	5b                   	pop    %ebx
  2041e3:	5e                   	pop    %esi
  2041e4:	5f                   	pop    %edi
  2041e5:	5d                   	pop    %ebp
  2041e6:	c3                   	ret
  2041e7:	2e 8d b4 26 00 00 00 	lea    %cs:0x0(%esi,%eiz,1),%esi
  2041ee:	00 
  2041ef:	90                   	nop
  2041f0:	80 f9 07             	cmp    $0x7,%cl
  2041f3:	77 27                	ja     20421c <interpret_access+0x36c>
  2041f5:	89 fb                	mov    %edi,%ebx
  2041f7:	d3 fb                	sar    %cl,%ebx
  2041f9:	83 c1 01             	add    $0x1,%ecx
  2041fc:	83 c3 30             	add    $0x30,%ebx
  2041ff:	88 18                	mov    %bl,(%eax)
  204201:	0f b6 58 01          	movzbl 0x1(%eax),%ebx
  204205:	83 c0 01             	add    $0x1,%eax
  204208:	84 db                	test   %bl,%bl
  20420a:	74 10                	je     20421c <interpret_access+0x36c>
  20420c:	80 fb 25             	cmp    $0x25,%bl
  20420f:	74 df                	je     2041f0 <interpret_access+0x340>
  204211:	0f b6 58 01          	movzbl 0x1(%eax),%ebx
  204215:	83 c0 01             	add    $0x1,%eax
  204218:	84 db                	test   %bl,%bl
  20421a:	75 f0                	jne    20420c <interpret_access+0x35c>
  20421c:	8d 85 6b ff ff ff    	lea    -0x95(%ebp),%eax
  204222:	c6 85 73 ff ff ff 00 	movb   $0x0,-0x8d(%ebp)
  204229:	89 f1                	mov    %esi,%ecx
  20422b:	31 db                	xor    %ebx,%ebx
  20422d:	c7 85 6b ff ff ff 64 	movl   $0x206c7064,-0x95(%ebp)
  204234:	70 6c 20 
  204237:	0f b6 f1             	movzbl %cl,%esi
  20423a:	c7 85 6f ff ff ff 3d 	movl   $0x2525203d,-0x91(%ebp)
  204241:	20 25 25 
  204244:	89 85 50 ff ff ff    	mov    %eax,-0xb0(%ebp)
  20424a:	8d b6 00 00 00 00    	lea    0x0(%esi),%esi
  204250:	0f b6 48 01          	movzbl 0x1(%eax),%ecx
  204254:	83 c0 01             	add    $0x1,%eax
  204257:	84 c9                	test   %cl,%cl
  204259:	74 23                	je     20427e <interpret_access+0x3ce>
  20425b:	80 f9 25             	cmp    $0x25,%cl
  20425e:	75 f0                	jne    204250 <interpret_access+0x3a0>
  204260:	80 fb 07             	cmp    $0x7,%bl
  204263:	77 19                	ja     20427e <interpret_access+0x3ce>
  204265:	0f a3 de             	bt     %ebx,%esi
  204268:	0f 92 c1             	setb   %cl
  20426b:	83 c0 01             	add    $0x1,%eax
  20426e:	83 c3 01             	add    $0x1,%ebx
  204271:	83 c1 30             	add    $0x30,%ecx
  204274:	88 48 ff             	mov    %cl,-0x1(%eax)
  204277:	0f b6 08             	movzbl (%eax),%ecx
  20427a:	84 c9                	test   %cl,%cl
  20427c:	75 dd                	jne    20425b <interpret_access+0x3ab>
  20427e:	8d 45 99             	lea    -0x67(%ebp),%eax
  204281:	c7 45 a1 65 6d 20 3d 	movl   $0x3d206d65,-0x5f(%ebp)
  204288:	31 c9                	xor    %ecx,%ecx
  20428a:	8b bd 5c ff ff ff    	mov    -0xa4(%ebp),%edi
  204290:	c7 45 99 4e 6f 74 20 	movl   $0x20746f4e,-0x67(%ebp)
  204297:	c7 45 9d 53 79 73 74 	movl   $0x74737953,-0x63(%ebp)
  20429e:	83 e7 01             	and    $0x1,%edi
  2042a1:	c7 45 a4 3d 20 25 00 	movl   $0x25203d,-0x5c(%ebp)
  2042a8:	89 85 60 ff ff ff    	mov    %eax,-0xa0(%ebp)
  2042ae:	66 90                	xchg   %ax,%ax
  2042b0:	0f b6 58 01          	movzbl 0x1(%eax),%ebx
  2042b4:	83 c0 01             	add    $0x1,%eax
  2042b7:	84 db                	test   %bl,%bl
  2042b9:	74 21                	je     2042dc <interpret_access+0x42c>
  2042bb:	80 fb 25             	cmp    $0x25,%bl
  2042be:	75 f0                	jne    2042b0 <interpret_access+0x400>
  2042c0:	80 f9 07             	cmp    $0x7,%cl
  2042c3:	77 17                	ja     2042dc <interpret_access+0x42c>
  2042c5:	89 fb                	mov    %edi,%ebx
  2042c7:	83 c0 01             	add    $0x1,%eax
  2042ca:	d3 fb                	sar    %cl,%ebx
  2042cc:	83 c1 01             	add    $0x1,%ecx
  2042cf:	83 c3 30             	add    $0x30,%ebx
  2042d2:	88 58 ff             	mov    %bl,-0x1(%eax)
  2042d5:	0f b6 18             	movzbl (%eax),%ebx
  2042d8:	84 db                	test   %bl,%bl
  2042da:	75 df                	jne    2042bb <interpret_access+0x40b>
  2042dc:	8d 45 a8             	lea    -0x58(%ebp),%eax
  2042df:	8b b5 58 ff ff ff    	mov    -0xa8(%ebp),%esi
  2042e5:	31 c9                	xor    %ecx,%ecx
  2042e7:	c7 85 66 ff ff ff 44 	movl   $0x61746144,-0x9a(%ebp)
  2042ee:	61 74 61 
  2042f1:	c6 85 6a ff ff ff 00 	movb   $0x0,-0x96(%ebp)
  2042f8:	c7 45 a8 45 78 70 61 	movl   $0x61707845,-0x58(%ebp)
  2042ff:	83 e6 01             	and    $0x1,%esi
  204302:	c7 45 ac 6e 64 20 44 	movl   $0x4420646e,-0x54(%ebp)
  204309:	c7 45 b0 6f 77 6e 20 	movl   $0x206e776f,-0x50(%ebp)
  204310:	c7 45 b4 3d 20 25 00 	movl   $0x25203d,-0x4c(%ebp)
  204317:	89 85 5c ff ff ff    	mov    %eax,-0xa4(%ebp)
  20431d:	8d 76 00             	lea    0x0(%esi),%esi
  204320:	0f b6 58 01          	movzbl 0x1(%eax),%ebx
  204324:	83 c0 01             	add    $0x1,%eax
  204327:	84 db                	test   %bl,%bl
  204329:	74 21                	je     20434c <interpret_access+0x49c>
  20432b:	80 fb 25             	cmp    $0x25,%bl
  20432e:	75 f0                	jne    204320 <interpret_access+0x470>
  204330:	80 f9 07             	cmp    $0x7,%cl
  204333:	77 17                	ja     20434c <interpret_access+0x49c>
  204335:	89 f3                	mov    %esi,%ebx
  204337:	83 c0 01             	add    $0x1,%eax
  20433a:	d3 fb                	sar    %cl,%ebx
  20433c:	83 c1 01             	add    $0x1,%ecx
  20433f:	83 c3 30             	add    $0x30,%ebx
  204342:	88 58 ff             	mov    %bl,-0x1(%eax)
  204345:	0f b6 18             	movzbl (%eax),%ebx
  204348:	84 db                	test   %bl,%bl
  20434a:	75 df                	jne    20432b <interpret_access+0x47b>
  20434c:	8b b5 54 ff ff ff    	mov    -0xac(%ebp),%esi
  204352:	c7 45 bb 57 72 69 74 	movl   $0x74697257,-0x45(%ebp)
  204359:	31 ff                	xor    %edi,%edi
  20435b:	8d 5d bb             	lea    -0x45(%ebp),%ebx
  20435e:	c7 45 bf 65 20 50 65 	movl   $0x65502065,-0x41(%ebp)
  204365:	89 d8                	mov    %ebx,%eax
  204367:	c7 45 c3 72 6d 69 73 	movl   $0x73696d72,-0x3d(%ebp)
  20436e:	83 e6 01             	and    $0x1,%esi
  204371:	c7 45 c7 73 69 6f 6e 	movl   $0x6e6f6973,-0x39(%ebp)
  204378:	c7 45 cb 20 3d 20 25 	movl   $0x25203d20,-0x35(%ebp)
  20437f:	c6 45 cf 00          	movb   $0x0,-0x31(%ebp)
  204383:	89 95 58 ff ff ff    	mov    %edx,-0xa8(%ebp)
  204389:	8d b4 26 00 00 00 00 	lea    0x0(%esi,%eiz,1),%esi
  204390:	0f b6 48 01          	movzbl 0x1(%eax),%ecx
  204394:	83 c0 01             	add    $0x1,%eax
  204397:	84 c9                	test   %cl,%cl
  204399:	74 23                	je     2043be <interpret_access+0x50e>
  20439b:	80 f9 25             	cmp    $0x25,%cl
  20439e:	75 f0                	jne    204390 <interpret_access+0x4e0>
  2043a0:	89 f9                	mov    %edi,%ecx
  2043a2:	80 f9 07             	cmp    $0x7,%cl
  2043a5:	77 17                	ja     2043be <interpret_access+0x50e>
  2043a7:	89 f2                	mov    %esi,%edx
  2043a9:	83 c0 01             	add    $0x1,%eax
  2043ac:	83 c7 01             	add    $0x1,%edi
  2043af:	d3 fa                	sar    %cl,%edx
  2043b1:	8d 4a 30             	lea    0x30(%edx),%ecx
  2043b4:	88 48 ff             	mov    %cl,-0x1(%eax)
  2043b7:	0f b6 08             	movzbl (%eax),%ecx
  2043ba:	84 c9                	test   %cl,%cl
  2043bc:	75 dd                	jne    20439b <interpret_access+0x4eb>
  2043be:	8b 95 58 ff ff ff    	mov    -0xa8(%ebp),%edx
  2043c4:	c6 45 98 00          	movb   $0x0,-0x68(%ebp)
  2043c8:	8d 75 8c             	lea    -0x74(%ebp),%esi
  2043cb:	31 c9                	xor    %ecx,%ecx
  2043cd:	c7 45 8c 61 63 63 65 	movl   $0x65636361,-0x74(%ebp)
  2043d4:	89 f0                	mov    %esi,%eax
  2043d6:	c7 45 90 73 73 65 64 	movl   $0x64657373,-0x70(%ebp)
  2043dd:	83 e2 01             	and    $0x1,%edx
  2043e0:	c7 45 94 20 3d 20 25 	movl   $0x25203d20,-0x6c(%ebp)
  2043e7:	89 d7                	mov    %edx,%edi
  2043e9:	8d b4 26 00 00 00 00 	lea    0x0(%esi,%eiz,1),%esi
  2043f0:	0f b6 50 01          	movzbl 0x1(%eax),%edx
  2043f4:	83 c0 01             	add    $0x1,%eax
  2043f7:	84 d2                	test   %dl,%dl
  2043f9:	0f 84 7d fd ff ff    	je     20417c <interpret_access+0x2cc>
  2043ff:	80 fa 25             	cmp    $0x25,%dl
  204402:	75 ec                	jne    2043f0 <interpret_access+0x540>
  204404:	80 f9 07             	cmp    $0x7,%cl
  204407:	0f 87 6f fd ff ff    	ja     20417c <interpret_access+0x2cc>
  20440d:	89 fa                	mov    %edi,%edx
  20440f:	d3 fa                	sar    %cl,%edx
  204411:	83 c1 01             	add    $0x1,%ecx
  204414:	83 c2 30             	add    $0x30,%edx
  204417:	88 10                	mov    %dl,(%eax)
  204419:	eb d5                	jmp    2043f0 <interpret_access+0x540>
  20441b:	2e 8d 74 26 00       	lea    %cs:0x0(%esi,%eiz,1),%esi

00204420 <printAccess>:
  204420:	55                   	push   %ebp
  204421:	89 e5                	mov    %esp,%ebp
  204423:	56                   	push   %esi
  204424:	53                   	push   %ebx
  204425:	8d 9d 78 ff ff ff    	lea    -0x88(%ebp),%ebx
  20442b:	81 ec 84 00 00 00    	sub    $0x84,%esp
  204431:	8b 45 08             	mov    0x8(%ebp),%eax
  204434:	6a 08                	push   $0x8
  204436:	68 f0 56 20 00       	push   $0x2056f0
  20443b:	0f b6 70 05          	movzbl 0x5(%eax),%esi
  20443f:	56                   	push   %esi
  204440:	e8 7b ca ff ff       	call   200ec0 <printBinarySize>
  204445:	58                   	pop    %eax
  204446:	5a                   	pop    %edx
  204447:	53                   	push   %ebx
  204448:	56                   	push   %esi
  204449:	e8 62 fa ff ff       	call   203eb0 <interpret_access>
  20444e:	89 1c 24             	mov    %ebx,(%esp)
  204451:	e8 fa d3 ff ff       	call   201850 <terminal_writestring>
  204456:	83 c4 10             	add    $0x10,%esp
  204459:	8d 65 f8             	lea    -0x8(%ebp),%esp
  20445c:	5b                   	pop    %ebx
  20445d:	5e                   	pop    %esi
  20445e:	5d                   	pop    %ebp
  20445f:	c3                   	ret

00204460 <interpret_flags>:
  204460:	55                   	push   %ebp
  204461:	89 e5                	mov    %esp,%ebp
  204463:	57                   	push   %edi
  204464:	56                   	push   %esi
  204465:	53                   	push   %ebx
  204466:	81 ec 88 00 00 00    	sub    $0x88,%esp
  20446c:	8b 45 08             	mov    0x8(%ebp),%eax
  20446f:	c7 85 70 ff ff ff 40 	movl   $0x40,-0x90(%ebp)
  204476:	00 00 00 
  204479:	89 c1                	mov    %eax,%ecx
  20447b:	89 c3                	mov    %eax,%ebx
  20447d:	89 c2                	mov    %eax,%edx
  20447f:	c0 e9 05             	shr    $0x5,%cl
  204482:	c0 eb 07             	shr    $0x7,%bl
  204485:	89 cf                	mov    %ecx,%edi
  204487:	89 c1                	mov    %eax,%ecx
  204489:	c0 ea 06             	shr    $0x6,%dl
  20448c:	c0 e9 04             	shr    $0x4,%cl
  20448f:	88 8d 6c ff ff ff    	mov    %cl,-0x94(%ebp)
  204495:	a8 20                	test   $0x20,%al
  204497:	75 15                	jne    2044ae <interpret_flags+0x4e>
  204499:	89 d0                	mov    %edx,%eax
  20449b:	83 e0 01             	and    $0x1,%eax
  20449e:	3c 01                	cmp    $0x1,%al
  2044a0:	19 c0                	sbb    %eax,%eax
  2044a2:	83 e0 f0             	and    $0xfffffff0,%eax
  2044a5:	83 c0 20             	add    $0x20,%eax
  2044a8:	89 85 70 ff ff ff    	mov    %eax,-0x90(%ebp)
  2044ae:	c7 45 85 46 6c 61 67 	movl   $0x67616c46,-0x7b(%ebp)
  2044b5:	8d 45 ac             	lea    -0x54(%ebp),%eax
  2044b8:	31 c9                	xor    %ecx,%ecx
  2044ba:	0f b6 f3             	movzbl %bl,%esi
  2044bd:	c7 45 89 73 20 3d 20 	movl   $0x203d2073,-0x77(%ebp)
  2044c4:	c7 45 8d 7b 7d 0a 00 	movl   $0xa7d7b,-0x73(%ebp)
  2044cb:	c7 45 ac 67 72 61 6e 	movl   $0x6e617267,-0x54(%ebp)
  2044d2:	c7 45 b0 75 6c 61 72 	movl   $0x72616c75,-0x50(%ebp)
  2044d9:	c7 45 b4 69 74 79 20 	movl   $0x20797469,-0x4c(%ebp)
  2044e0:	c7 45 b8 3d 20 25 00 	movl   $0x25203d,-0x48(%ebp)
  2044e7:	2e 8d b4 26 00 00 00 	lea    %cs:0x0(%esi,%eiz,1),%esi
  2044ee:	00 
  2044ef:	90                   	nop
  2044f0:	0f b6 58 01          	movzbl 0x1(%eax),%ebx
  2044f4:	83 c0 01             	add    $0x1,%eax
  2044f7:	84 db                	test   %bl,%bl
  2044f9:	74 21                	je     20451c <interpret_flags+0xbc>
  2044fb:	80 fb 25             	cmp    $0x25,%bl
  2044fe:	75 f0                	jne    2044f0 <interpret_flags+0x90>
  204500:	80 f9 07             	cmp    $0x7,%cl
  204503:	77 17                	ja     20451c <interpret_flags+0xbc>
  204505:	89 f3                	mov    %esi,%ebx
  204507:	83 c0 01             	add    $0x1,%eax
  20450a:	d3 fb                	sar    %cl,%ebx
  20450c:	83 c1 01             	add    $0x1,%ecx
  20450f:	83 c3 30             	add    $0x30,%ebx
  204512:	88 58 ff             	mov    %bl,-0x1(%eax)
  204515:	0f b6 18             	movzbl (%eax),%ebx
  204518:	84 db                	test   %bl,%bl
  20451a:	75 df                	jne    2044fb <interpret_flags+0x9b>
  20451c:	c7 45 91 6f 70 73 69 	movl   $0x6973706f,-0x6f(%ebp)
  204523:	8d 45 91             	lea    -0x6f(%ebp),%eax
  204526:	31 c9                	xor    %ecx,%ecx
  204528:	83 e2 01             	and    $0x1,%edx
  20452b:	c7 45 95 7a 65 33 32 	movl   $0x3233657a,-0x6b(%ebp)
  204532:	c7 45 99 20 3d 20 25 	movl   $0x25203d20,-0x67(%ebp)
  204539:	c6 45 9d 00          	movb   $0x0,-0x63(%ebp)
  20453d:	8d 76 00             	lea    0x0(%esi),%esi
  204540:	0f b6 58 01          	movzbl 0x1(%eax),%ebx
  204544:	83 c0 01             	add    $0x1,%eax
  204547:	84 db                	test   %bl,%bl
  204549:	74 21                	je     20456c <interpret_flags+0x10c>
  20454b:	80 fb 25             	cmp    $0x25,%bl
  20454e:	75 f0                	jne    204540 <interpret_flags+0xe0>
  204550:	80 f9 07             	cmp    $0x7,%cl
  204553:	77 17                	ja     20456c <interpret_flags+0x10c>
  204555:	89 d3                	mov    %edx,%ebx
  204557:	83 c0 01             	add    $0x1,%eax
  20455a:	d3 fb                	sar    %cl,%ebx
  20455c:	83 c1 01             	add    $0x1,%ecx
  20455f:	83 c3 30             	add    $0x30,%ebx
  204562:	88 58 ff             	mov    %bl,-0x1(%eax)
  204565:	0f b6 18             	movzbl (%eax),%ebx
  204568:	84 db                	test   %bl,%bl
  20456a:	75 df                	jne    20454b <interpret_flags+0xeb>
  20456c:	ba 25 00 00 00       	mov    $0x25,%edx
  204571:	8d 75 9e             	lea    -0x62(%ebp),%esi
  204574:	31 c9                	xor    %ecx,%ecx
  204576:	83 e7 01             	and    $0x1,%edi
  204579:	c7 45 9e 6c 6f 6e 67 	movl   $0x676e6f6c,-0x62(%ebp)
  204580:	89 f0                	mov    %esi,%eax
  204582:	c7 45 a2 5f 6d 6f 64 	movl   $0x646f6d5f,-0x5e(%ebp)
  204589:	c7 45 a6 65 20 3d 20 	movl   $0x203d2065,-0x5a(%ebp)
  204590:	66 89 55 aa          	mov    %dx,-0x56(%ebp)
  204594:	2e 8d b4 26 00 00 00 	lea    %cs:0x0(%esi,%eiz,1),%esi
  20459b:	00 
  20459c:	8d 74 26 00          	lea    0x0(%esi,%eiz,1),%esi
  2045a0:	0f b6 50 01          	movzbl 0x1(%eax),%edx
  2045a4:	83 c0 01             	add    $0x1,%eax
  2045a7:	84 d2                	test   %dl,%dl
  2045a9:	74 21                	je     2045cc <interpret_flags+0x16c>
  2045ab:	80 fa 25             	cmp    $0x25,%dl
  2045ae:	75 f0                	jne    2045a0 <interpret_flags+0x140>
  2045b0:	80 f9 07             	cmp    $0x7,%cl
  2045b3:	77 17                	ja     2045cc <interpret_flags+0x16c>
  2045b5:	89 fa                	mov    %edi,%edx
  2045b7:	83 c0 01             	add    $0x1,%eax
  2045ba:	d3 fa                	sar    %cl,%edx
  2045bc:	83 c1 01             	add    $0x1,%ecx
  2045bf:	83 c2 30             	add    $0x30,%edx
  2045c2:	88 50 ff             	mov    %dl,-0x1(%eax)
  2045c5:	0f b6 10             	movzbl (%eax),%edx
  2045c8:	84 d2                	test   %dl,%dl
  2045ca:	75 df                	jne    2045ab <interpret_flags+0x14b>
  2045cc:	8b 9d 6c ff ff ff    	mov    -0x94(%ebp),%ebx
  2045d2:	b8 25 00 00 00       	mov    $0x25,%eax
  2045d7:	8d bd 7b ff ff ff    	lea    -0x85(%ebp),%edi
  2045dd:	31 c9                	xor    %ecx,%ecx
  2045df:	c7 85 7b ff ff ff 61 	movl   $0x69617661,-0x85(%ebp)
  2045e6:	76 61 69 
  2045e9:	c7 85 7f ff ff ff 6c 	movl   $0x203d206c,-0x81(%ebp)
  2045f0:	20 3d 20 
  2045f3:	83 e3 01             	and    $0x1,%ebx
  2045f6:	66 89 45 83          	mov    %ax,-0x7d(%ebp)
  2045fa:	89 f8                	mov    %edi,%eax
  2045fc:	8d 74 26 00          	lea    0x0(%esi,%eiz,1),%esi
  204600:	0f b6 50 01          	movzbl 0x1(%eax),%edx
  204604:	83 c0 01             	add    $0x1,%eax
  204607:	84 d2                	test   %dl,%dl
  204609:	74 21                	je     20462c <interpret_flags+0x1cc>
  20460b:	80 fa 25             	cmp    $0x25,%dl
  20460e:	75 f0                	jne    204600 <interpret_flags+0x1a0>
  204610:	80 f9 07             	cmp    $0x7,%cl
  204613:	77 17                	ja     20462c <interpret_flags+0x1cc>
  204615:	89 da                	mov    %ebx,%edx
  204617:	83 c0 01             	add    $0x1,%eax
  20461a:	d3 fa                	sar    %cl,%edx
  20461c:	83 c1 01             	add    $0x1,%ecx
  20461f:	83 c2 30             	add    $0x30,%edx
  204622:	88 50 ff             	mov    %dl,-0x1(%eax)
  204625:	0f b6 10             	movzbl (%eax),%edx
  204628:	84 d2                	test   %dl,%dl
  20462a:	75 df                	jne    20460b <interpret_flags+0x1ab>
  20462c:	8d 5d bc             	lea    -0x44(%ebp),%ebx
  20462f:	c7 45 bc 5f 5f 5f 72 	movl   $0x725f5f5f,-0x44(%ebp)
  204636:	c7 45 c0 65 61 6c 5f 	movl   $0x5f6c6165,-0x40(%ebp)
  20463d:	c7 45 c4 6f 70 73 69 	movl   $0x6973706f,-0x3c(%ebp)
  204644:	c7 45 c8 7a 65 20 3d 	movl   $0x3d20657a,-0x38(%ebp)
  20464b:	c7 45 cc 20 25 25 00 	movl   $0x252520,-0x34(%ebp)
  204652:	ff b5 70 ff ff ff    	push   -0x90(%ebp)
  204658:	53                   	push   %ebx
  204659:	e8 32 f6 ff ff       	call   203c90 <modify_string_opsize>
  20465e:	ff 75 f0             	push   -0x10(%ebp)
  204661:	8d 45 85             	lea    -0x7b(%ebp),%eax
  204664:	ff 75 ec             	push   -0x14(%ebp)
  204667:	53                   	push   %ebx
  204668:	57                   	push   %edi
  204669:	56                   	push   %esi
  20466a:	8d 75 91             	lea    -0x6f(%ebp),%esi
  20466d:	56                   	push   %esi
  20466e:	8d 75 ac             	lea    -0x54(%ebp),%esi
  204671:	56                   	push   %esi
  204672:	50                   	push   %eax
  204673:	6a 01                	push   $0x1
  204675:	ff 75 0c             	push   0xc(%ebp)
  204678:	e8 b3 f6 ff ff       	call   203d30 <create_access_desc_str>
  20467d:	8d 65 f4             	lea    -0xc(%ebp),%esp
  204680:	5b                   	pop    %ebx
  204681:	5e                   	pop    %esi
  204682:	5f                   	pop    %edi
  204683:	5d                   	pop    %ebp
  204684:	c3                   	ret
  204685:	2e 8d b4 26 00 00 00 	lea    %cs:0x0(%esi,%eiz,1),%esi
  20468c:	00 
  20468d:	8d 76 00             	lea    0x0(%esi),%esi

00204690 <printFlags>:
  204690:	55                   	push   %ebp
  204691:	89 e5                	mov    %esp,%ebp
  204693:	56                   	push   %esi
  204694:	53                   	push   %ebx
  204695:	8d b5 78 ff ff ff    	lea    -0x88(%ebp),%esi
  20469b:	81 ec 84 00 00 00    	sub    $0x84,%esp
  2046a1:	8b 45 08             	mov    0x8(%ebp),%eax
  2046a4:	0f b6 58 06          	movzbl 0x6(%eax),%ebx
  2046a8:	6a 04                	push   $0x4
  2046aa:	68 f7 56 20 00       	push   $0x2056f7
  2046af:	c0 eb 04             	shr    $0x4,%bl
  2046b2:	0f b6 db             	movzbl %bl,%ebx
  2046b5:	53                   	push   %ebx
  2046b6:	e8 05 c8 ff ff       	call   200ec0 <printBinarySize>
  2046bb:	58                   	pop    %eax
  2046bc:	5a                   	pop    %edx
  2046bd:	56                   	push   %esi
  2046be:	53                   	push   %ebx
  2046bf:	e8 9c fd ff ff       	call   204460 <interpret_flags>
  2046c4:	89 34 24             	mov    %esi,(%esp)
  2046c7:	e8 84 d1 ff ff       	call   201850 <terminal_writestring>
  2046cc:	83 c4 10             	add    $0x10,%esp
  2046cf:	8d 65 f8             	lea    -0x8(%ebp),%esp
  2046d2:	5b                   	pop    %ebx
  2046d3:	5e                   	pop    %esi
  2046d4:	5d                   	pop    %ebp
  2046d5:	c3                   	ret
  2046d6:	2e 8d b4 26 00 00 00 	lea    %cs:0x0(%esi,%eiz,1),%esi
  2046dd:	00 
  2046de:	66 90                	xchg   %ax,%ax

002046e0 <interpret_test>:
  2046e0:	55                   	push   %ebp
  2046e1:	89 e5                	mov    %esp,%ebp
  2046e3:	53                   	push   %ebx
  2046e4:	8d 9d 7c ff ff ff    	lea    -0x84(%ebp),%ebx
  2046ea:	83 c4 80             	add    $0xffffff80,%esp
  2046ed:	53                   	push   %ebx
  2046ee:	68 9b 00 00 00       	push   $0x9b
  2046f3:	e8 b8 f7 ff ff       	call   203eb0 <interpret_access>
  2046f8:	53                   	push   %ebx
  2046f9:	68 93 00 00 00       	push   $0x93
  2046fe:	e8 ad f7 ff ff       	call   203eb0 <interpret_access>
  204703:	53                   	push   %ebx
  204704:	68 80 00 00 00       	push   $0x80
  204709:	e8 52 fd ff ff       	call   204460 <interpret_flags>
  20470e:	8b 5d fc             	mov    -0x4(%ebp),%ebx
  204711:	83 c4 18             	add    $0x18,%esp
  204714:	c9                   	leave
  204715:	c3                   	ret
  204716:	66 90                	xchg   %ax,%ax
  204718:	66 90                	xchg   %ax,%ax
  20471a:	66 90                	xchg   %ax,%ax
  20471c:	66 90                	xchg   %ax,%ax
  20471e:	66 90                	xchg   %ax,%ax

00204720 <get_gdt_root>:
  204720:	55                   	push   %ebp
  204721:	89 e5                	mov    %esp,%ebp
  204723:	83 ec 10             	sub    $0x10,%esp
  204726:	8b 45 08             	mov    0x8(%ebp),%eax
  204729:	0f 01 45 f8          	sgdtl  -0x8(%ebp)
  20472d:	8b 55 f8             	mov    -0x8(%ebp),%edx
  204730:	8b 4d fc             	mov    -0x4(%ebp),%ecx
  204733:	89 10                	mov    %edx,(%eax)
  204735:	89 48 04             	mov    %ecx,0x4(%eax)
  204738:	c9                   	leave
  204739:	c2 04 00             	ret    $0x4
  20473c:	8d 74 26 00          	lea    0x0(%esi,%eiz,1),%esi

00204740 <min>:
  204740:	55                   	push   %ebp
  204741:	89 e5                	mov    %esp,%ebp
  204743:	8b 45 08             	mov    0x8(%ebp),%eax
  204746:	8b 55 0c             	mov    0xc(%ebp),%edx
  204749:	5d                   	pop    %ebp
  20474a:	39 d0                	cmp    %edx,%eax
  20474c:	0f 47 c2             	cmova  %edx,%eax
  20474f:	c3                   	ret

00204750 <print_args16>:
  204750:	55                   	push   %ebp
  204751:	89 e5                	mov    %esp,%ebp
  204753:	53                   	push   %ebx
  204754:	83 ec 10             	sub    $0x10,%esp
  204757:	8b 5d 08             	mov    0x8(%ebp),%ebx
  20475a:	68 fd 56 20 00       	push   $0x2056fd
  20475f:	e8 ec d0 ff ff       	call   201850 <terminal_writestring>
  204764:	c7 04 24 18 57 20 00 	movl   $0x205718,(%esp)
  20476b:	e8 e0 d0 ff ff       	call   201850 <terminal_writestring>
  204770:	83 c4 0c             	add    $0xc,%esp
  204773:	6a 08                	push   $0x8
  204775:	68 23 57 20 00       	push   $0x205723
  20477a:	0f b7 03             	movzwl (%ebx),%eax
  20477d:	50                   	push   %eax
  20477e:	e8 3d c7 ff ff       	call   200ec0 <printBinarySize>
  204783:	83 c4 0c             	add    $0xc,%esp
  204786:	6a 20                	push   $0x20
  204788:	68 2e 57 20 00       	push   $0x20572e
  20478d:	ff 73 02             	push   0x2(%ebx)
  204790:	e8 2b c7 ff ff       	call   200ec0 <printBinarySize>
  204795:	c7 04 24 22 54 20 00 	movl   $0x205422,(%esp)
  20479c:	e8 af d0 ff ff       	call   201850 <terminal_writestring>
  2047a1:	8b 43 02             	mov    0x2(%ebx),%eax
  2047a4:	83 c4 10             	add    $0x10,%esp
  2047a7:	85 c0                	test   %eax,%eax
  2047a9:	74 60                	je     20480b <print_args16+0xbb>
  2047ab:	83 ec 04             	sub    $0x4,%esp
  2047ae:	6a 20                	push   $0x20
  2047b0:	68 f8 59 20 00       	push   $0x2059f8
  2047b5:	ff 70 10             	push   0x10(%eax)
  2047b8:	e8 03 c7 ff ff       	call   200ec0 <printBinarySize>
  2047bd:	83 c4 0c             	add    $0xc,%esp
  2047c0:	6a 20                	push   $0x20
  2047c2:	68 20 5a 20 00       	push   $0x205a20
  2047c7:	8b 43 02             	mov    0x2(%ebx),%eax
  2047ca:	ff 70 14             	push   0x14(%eax)
  2047cd:	e8 ee c6 ff ff       	call   200ec0 <printBinarySize>
  2047d2:	83 c4 0c             	add    $0xc,%esp
  2047d5:	6a 20                	push   $0x20
  2047d7:	68 4c 5a 20 00       	push   $0x205a4c
  2047dc:	8b 43 02             	mov    0x2(%ebx),%eax
  2047df:	ff 70 18             	push   0x18(%eax)
  2047e2:	e8 d9 c6 ff ff       	call   200ec0 <printBinarySize>
  2047e7:	83 c4 0c             	add    $0xc,%esp
  2047ea:	6a 20                	push   $0x20
  2047ec:	68 74 5a 20 00       	push   $0x205a74
  2047f1:	8b 43 02             	mov    0x2(%ebx),%eax
  2047f4:	ff 70 1c             	push   0x1c(%eax)
  2047f7:	e8 c4 c6 ff ff       	call   200ec0 <printBinarySize>
  2047fc:	c7 04 24 22 54 20 00 	movl   $0x205422,(%esp)
  204803:	e8 48 d0 ff ff       	call   201850 <terminal_writestring>
  204808:	83 c4 10             	add    $0x10,%esp
  20480b:	83 ec 08             	sub    $0x8,%esp
  20480e:	ff 73 08             	push   0x8(%ebx)
  204811:	68 43 57 20 00       	push   $0x205743
  204816:	e8 b5 da ff ff       	call   2022d0 <terminal_write_hex>
  20481b:	c7 04 24 22 54 20 00 	movl   $0x205422,(%esp)
  204822:	e8 29 d0 ff ff       	call   201850 <terminal_writestring>
  204827:	58                   	pop    %eax
  204828:	0f b7 43 10          	movzwl 0x10(%ebx),%eax
  20482c:	5a                   	pop    %edx
  20482d:	50                   	push   %eax
  20482e:	68 49 57 20 00       	push   $0x205749
  204833:	e8 88 d9 ff ff       	call   2021c0 <terminal_write_uint>
  204838:	59                   	pop    %ecx
  204839:	58                   	pop    %eax
  20483a:	0f b7 43 12          	movzwl 0x12(%ebx),%eax
  20483e:	50                   	push   %eax
  20483f:	68 50 57 20 00       	push   $0x205750
  204844:	e8 77 d9 ff ff       	call   2021c0 <terminal_write_uint>
  204849:	c7 04 24 22 54 20 00 	movl   $0x205422,(%esp)
  204850:	e8 fb cf ff ff       	call   201850 <terminal_writestring>
  204855:	58                   	pop    %eax
  204856:	0f b7 43 14          	movzwl 0x14(%ebx),%eax
  20485a:	5a                   	pop    %edx
  20485b:	50                   	push   %eax
  20485c:	68 a0 5a 20 00       	push   $0x205aa0
  204861:	e8 6a da ff ff       	call   2022d0 <terminal_write_hex>
  204866:	59                   	pop    %ecx
  204867:	58                   	pop    %eax
  204868:	0f b7 43 16          	movzwl 0x16(%ebx),%eax
  20486c:	50                   	push   %eax
  20486d:	68 c0 5a 20 00       	push   $0x205ac0
  204872:	e8 59 da ff ff       	call   2022d0 <terminal_write_hex>
  204877:	c7 04 24 22 54 20 00 	movl   $0x205422,(%esp)
  20487e:	e8 cd cf ff ff       	call   201850 <terminal_writestring>
  204883:	58                   	pop    %eax
  204884:	0f b7 43 18          	movzwl 0x18(%ebx),%eax
  204888:	5a                   	pop    %edx
  204889:	50                   	push   %eax
  20488a:	68 57 57 20 00       	push   $0x205757
  20488f:	e8 2c d9 ff ff       	call   2021c0 <terminal_write_uint>
  204894:	c7 04 24 22 54 20 00 	movl   $0x205422,(%esp)
  20489b:	e8 b0 cf ff ff       	call   201850 <terminal_writestring>
  2048a0:	c7 04 24 5e 57 20 00 	movl   $0x20575e,(%esp)
  2048a7:	e8 a4 cf ff ff       	call   201850 <terminal_writestring>
  2048ac:	0f b7 43 18          	movzwl 0x18(%ebx),%eax
  2048b0:	83 c4 10             	add    $0x10,%esp
  2048b3:	66 85 c0             	test   %ax,%ax
  2048b6:	75 18                	jne    2048d0 <print_args16+0x180>
  2048b8:	c7 45 08 73 57 20 00 	movl   $0x205773,0x8(%ebp)
  2048bf:	8b 5d fc             	mov    -0x4(%ebp),%ebx
  2048c2:	c9                   	leave
  2048c3:	e9 88 cf ff ff       	jmp    201850 <terminal_writestring>
  2048c8:	2e 8d b4 26 00 00 00 	lea    %cs:0x0(%esi,%eiz,1),%esi
  2048cf:	00 
  2048d0:	ba 0c 00 00 00       	mov    $0xc,%edx
  2048d5:	83 ec 04             	sub    $0x4,%esp
  2048d8:	39 d0                	cmp    %edx,%eax
  2048da:	0f 47 c2             	cmova  %edx,%eax
  2048dd:	83 c3 1a             	add    $0x1a,%ebx
  2048e0:	50                   	push   %eax
  2048e1:	68 7a 57 20 00       	push   $0x20577a
  2048e6:	53                   	push   %ebx
  2048e7:	e8 f4 d2 ff ff       	call   201be0 <terminal_write_uint16_array_newlines>
  2048ec:	8b 5d fc             	mov    -0x4(%ebp),%ebx
  2048ef:	83 c4 10             	add    $0x10,%esp
  2048f2:	c9                   	leave
  2048f3:	c3                   	ret
  2048f4:	2e 8d b4 26 00 00 00 	lea    %cs:0x0(%esi,%eiz,1),%esi
  2048fb:	00 
  2048fc:	8d 74 26 00          	lea    0x0(%esi,%eiz,1),%esi

00204900 <print_args16_more>:
  204900:	55                   	push   %ebp
  204901:	89 e5                	mov    %esp,%ebp
  204903:	53                   	push   %ebx
  204904:	8d 5d c8             	lea    -0x38(%ebp),%ebx
  204907:	83 ec 40             	sub    $0x40,%esp
  20490a:	68 20 b0 00 00       	push   $0xb020
  20490f:	e8 3c fe ff ff       	call   204750 <print_args16>
  204914:	83 c4 0c             	add    $0xc,%esp
  204917:	6a 30                	push   $0x30
  204919:	68 20 b0 00 00       	push   $0xb020
  20491e:	53                   	push   %ebx
  20491f:	e8 bc bc ff ff       	call   2005e0 <memcpy>
  204924:	c7 04 24 82 57 20 00 	movl   $0x205782,(%esp)
  20492b:	e8 20 cf ff ff       	call   201850 <terminal_writestring>
  204930:	83 c4 0c             	add    $0xc,%esp
  204933:	6a 18                	push   $0x18
  204935:	68 96 57 20 00       	push   $0x205796
  20493a:	53                   	push   %ebx
  20493b:	e8 a0 d2 ff ff       	call   201be0 <terminal_write_uint16_array_newlines>
  204940:	8b 5d fc             	mov    -0x4(%ebp),%ebx
  204943:	31 c0                	xor    %eax,%eax
  204945:	c9                   	leave
  204946:	c3                   	ret
  204947:	2e 8d b4 26 00 00 00 	lea    %cs:0x0(%esi,%eiz,1),%esi
  20494e:	00 
  20494f:	90                   	nop

00204950 <get_realmode_function_address>:
  204950:	55                   	push   %ebp
  204951:	89 e5                	mov    %esp,%ebp
  204953:	8b 45 0c             	mov    0xc(%ebp),%eax
  204956:	8b 55 08             	mov    0x8(%ebp),%edx
  204959:	3d ff ff 0f 00       	cmp    $0xfffff,%eax
  20495e:	77 18                	ja     204978 <get_realmode_function_address+0x28>
  204960:	89 c1                	mov    %eax,%ecx
  204962:	c1 e8 10             	shr    $0x10,%eax
  204965:	66 89 42 02          	mov    %ax,0x2(%edx)
  204969:	89 d0                	mov    %edx,%eax
  20496b:	66 89 0a             	mov    %cx,(%edx)
  20496e:	5d                   	pop    %ebp
  20496f:	c2 04 00             	ret    $0x4
  204972:	8d b6 00 00 00 00    	lea    0x0(%esi),%esi
  204978:	b8 ff ff ff ff       	mov    $0xffffffff,%eax
  20497d:	b9 ff ff ff ff       	mov    $0xffffffff,%ecx
  204982:	66 89 42 02          	mov    %ax,0x2(%edx)
  204986:	89 d0                	mov    %edx,%eax
  204988:	66 89 0a             	mov    %cx,(%edx)
  20498b:	5d                   	pop    %ebp
  20498c:	c2 04 00             	ret    $0x4
  20498f:	90                   	nop

00204990 <call_real_mode_function_with_argc>:
  204990:	55                   	push   %ebp
  204991:	89 e5                	mov    %esp,%ebp
  204993:	83 ec 08             	sub    $0x8,%esp
  204996:	8b 45 0c             	mov    0xc(%ebp),%eax
  204999:	8b 4d 08             	mov    0x8(%ebp),%ecx
  20499c:	3d ff ff 0f 00       	cmp    $0xfffff,%eax
  2049a1:	77 5d                	ja     204a00 <call_real_mode_function_with_argc+0x70>
  2049a3:	89 c2                	mov    %eax,%edx
  2049a5:	c1 e8 10             	shr    $0x10,%eax
  2049a8:	66 a3 36 b0 00 00    	mov    %ax,0xb036
  2049ae:	8d 41 ff             	lea    -0x1(%ecx),%eax
  2049b1:	66 89 15 34 b0 00 00 	mov    %dx,0xb034
  2049b8:	66 a3 38 b0 00 00    	mov    %ax,0xb038
  2049be:	85 c9                	test   %ecx,%ecx
  2049c0:	74 31                	je     2049f3 <call_real_mode_function_with_argc+0x63>
  2049c2:	31 c0                	xor    %eax,%eax
  2049c4:	eb 1a                	jmp    2049e0 <call_real_mode_function_with_argc+0x50>
  2049c6:	2e 8d b4 26 00 00 00 	lea    %cs:0x0(%esi,%eiz,1),%esi
  2049cd:	00 
  2049ce:	2e 8d b4 26 00 00 00 	lea    %cs:0x0(%esi,%eiz,1),%esi
  2049d5:	00 
  2049d6:	2e 8d b4 26 00 00 00 	lea    %cs:0x0(%esi,%eiz,1),%esi
  2049dd:	00 
  2049de:	66 90                	xchg   %ax,%ax
  2049e0:	8b 54 85 10          	mov    0x10(%ebp,%eax,4),%edx
  2049e4:	66 89 94 00 3a b0 00 	mov    %dx,0xb03a(%eax,%eax,1)
  2049eb:	00 
  2049ec:	83 c0 01             	add    $0x1,%eax
  2049ef:	39 c1                	cmp    %eax,%ecx
  2049f1:	75 ed                	jne    2049e0 <call_real_mode_function_with_argc+0x50>
  2049f3:	e8 68 66 e0 ff       	call   b060 <pm32_to_pm16>
  2049f8:	c9                   	leave
  2049f9:	c3                   	ret
  2049fa:	8d b6 00 00 00 00    	lea    0x0(%esi),%esi
  204a00:	b8 ff ff ff ff       	mov    $0xffffffff,%eax
  204a05:	ba ff ff ff ff       	mov    $0xffffffff,%edx
  204a0a:	eb 9c                	jmp    2049a8 <call_real_mode_function_with_argc+0x18>

Disassembly of section .rodata:

00205000 <CSWTCH.17-0xa0>:
  205000:	10 25 20 00 70 25    	adc    %ah,0x25700020
  205006:	20 00                	and    %al,(%eax)
  205008:	20 25 20 00 f0 24    	and    %ah,0x24f00020
  20500e:	20 00                	and    %al,(%eax)
  205010:	30 25 20 00 f0 24    	xor    %ah,0x24f00020
  205016:	20 00                	and    %al,(%eax)
  205018:	40                   	inc    %eax
  205019:	25 20 00 f0 24       	and    $0x24f00020,%eax
  20501e:	20 00                	and    %al,(%eax)
  205020:	f0 24 20             	lock and $0x20,%al
  205023:	00 f0                	add    %dh,%al
  205025:	24 20                	and    $0x20,%al
  205027:	00 f0                	add    %dh,%al
  205029:	24 20                	and    $0x20,%al
  20502b:	00 f0                	add    %dh,%al
  20502d:	24 20                	and    $0x20,%al
  20502f:	00 f0                	add    %dh,%al
  205031:	24 20                	and    $0x20,%al
  205033:	00 f0                	add    %dh,%al
  205035:	24 20                	and    $0x20,%al
  205037:	00 f0                	add    %dh,%al
  205039:	24 20                	and    $0x20,%al
  20503b:	00 f0                	add    %dh,%al
  20503d:	24 20                	and    $0x20,%al
  20503f:	00 f0                	add    %dh,%al
  205041:	24 20                	and    $0x20,%al
  205043:	00 50 25             	add    %dl,0x25(%eax)
  205046:	20 00                	and    %al,(%eax)
  205048:	f0 24 20             	lock and $0x20,%al
  20504b:	00 00                	add    %al,(%eax)
  20504d:	25 20 00 fa 2a       	and    $0x2afa0020,%eax
  205052:	20 00                	and    %al,(%eax)
  205054:	d5 2a                	aad    $0x2a
  205056:	20 00                	and    %al,(%eax)
  205058:	b2 2a                	mov    $0x2a,%dl
  20505a:	20 00                	and    %al,(%eax)
  20505c:	e0 29                	loopne 205087 <call_real_mode_function_with_argc+0x6f7>
  20505e:	20 00                	and    %al,(%eax)
  205060:	83 2a 20             	subl   $0x20,(%edx)
  205063:	00 e0                	add    %ah,%al
  205065:	29 20                	sub    %esp,(%eax)
  205067:	00 b1 29 20 00 e0    	add    %dh,-0x1fffdfd7(%ecx)
  20506d:	29 20                	sub    %esp,(%eax)
  20506f:	00 e0                	add    %ah,%al
  205071:	29 20                	sub    %esp,(%eax)
  205073:	00 e0                	add    %ah,%al
  205075:	29 20                	sub    %esp,(%eax)
  205077:	00 e0                	add    %ah,%al
  205079:	29 20                	sub    %esp,(%eax)
  20507b:	00 e0                	add    %ah,%al
  20507d:	29 20                	sub    %esp,(%eax)
  20507f:	00 e0                	add    %ah,%al
  205081:	29 20                	sub    %esp,(%eax)
  205083:	00 e0                	add    %ah,%al
  205085:	29 20                	sub    %esp,(%eax)
  205087:	00 e0                	add    %ah,%al
  205089:	29 20                	sub    %esp,(%eax)
  20508b:	00 e0                	add    %ah,%al
  20508d:	29 20                	sub    %esp,(%eax)
  20508f:	00 e0                	add    %ah,%al
  205091:	29 20                	sub    %esp,(%eax)
  205093:	00 60 2a             	add    %ah,0x2a(%eax)
  205096:	20 00                	and    %al,(%eax)
  205098:	e0 29                	loopne 2050c3 <CSWTCH.17+0x23>
  20509a:	20 00                	and    %al,(%eax)
  20509c:	40                   	inc    %eax
  20509d:	2a 20                	sub    (%eax),%ah
	...

002050a0 <CSWTCH.17>:
  2050a0:	62 00                	bound  %eax,(%eax)
  2050a2:	00 00                	add    %al,(%eax)
  2050a4:	63 00                	arpl   %eax,(%eax)
  2050a6:	00 00                	add    %al,(%eax)
  2050a8:	64 00 00             	add    %al,%fs:(%eax)
  2050ab:	00 00                	add    %al,(%eax)
  2050ad:	00 00                	add    %al,(%eax)
  2050af:	00 66 00             	add    %ah,0x0(%esi)
  2050b2:	00 00                	add    %al,(%eax)
  2050b4:	00 00                	add    %al,(%eax)
  2050b6:	00 00                	add    %al,(%eax)
  2050b8:	68 00 00 00 00       	push   $0x0
	...
  2050e1:	00 00                	add    %al,(%eax)
  2050e3:	00 73 00             	add    %dh,0x0(%ebx)
  2050e6:	00 00                	add    %al,(%eax)
  2050e8:	00 00                	add    %al,(%eax)
  2050ea:	00 00                	add    %al,(%eax)
  2050ec:	75 00                	jne    2050ee <CSWTCH.17+0x4e>
	...

002050f0 <argc>:
  2050f0:	02 00                	add    (%eax),%al
	...

002050f4 <interrupt_printf_fmt>:
  2050f4:	49                   	dec    %ecx
  2050f5:	6e                   	outsb  %ds:(%esi),(%dx)
  2050f6:	20 49 6e             	and    %cl,0x6e(%ecx)
  2050f9:	74 65                	je     205160 <interrupt_69_fmt+0x51>
  2050fb:	72 72                	jb     20516f <interrupt_69_fmt+0x60>
  2050fd:	75 70                	jne    20516f <interrupt_69_fmt+0x60>
  2050ff:	74 20                	je     205121 <interrupt_69_fmt+0x12>
  205101:	68 61 6e 64 6c       	push   $0x6c646e61
  205106:	65 72 3a             	gs jb  205143 <interrupt_69_fmt+0x34>
  205109:	20 25 64 0a 0a 00    	and    %ah,0xa0a64

0020510f <interrupt_69_fmt>:
  20510f:	0a 48 65             	or     0x65(%eax),%cl
  205112:	6c                   	insb   (%dx),%es:(%edi)
  205113:	6c                   	insb   (%dx),%es:(%edi)
  205114:	6f                   	outsl  %ds:(%esi),(%dx)
  205115:	20 66 72             	and    %ah,0x72(%esi)
  205118:	6f                   	outsl  %ds:(%esi),(%dx)
  205119:	6d                   	insl   (%dx),%es:(%edi)
  20511a:	20 49 6e             	and    %cl,0x6e(%ecx)
  20511d:	73 69                	jae    205188 <interrupt_69_fmt+0x79>
  20511f:	64 65 20 74 68 65    	fs and %dh,%gs:0x65(%eax,%ebp,2)
  205125:	20 49 6e             	and    %cl,0x6e(%ecx)
  205128:	74 65                	je     20518f <interrupt_69_fmt+0x80>
  20512a:	72 72                	jb     20519e <interrupt_69_fmt+0x8f>
  20512c:	75 70                	jne    20519e <interrupt_69_fmt+0x8f>
  20512e:	74 20                	je     205150 <interrupt_69_fmt+0x41>
  205130:	68 61 6e 64 6c       	push   $0x6c646e61
  205135:	65 72 20             	gs jb  205158 <interrupt_69_fmt+0x49>
  205138:	25 64 2c 20 6e       	and    $0x6e202c64,%eax
  20513d:	69 63 65 21 0a 0a 00 	imul   $0xa0a21,0x65(%ebx),%esp

Disassembly of section .rodata.str1.1:

00205144 <.rodata.str1.1>:
  205144:	68 69 67 68 65       	push   $0x65686769
  205149:	72 00                	jb     20514b <interrupt_69_fmt+0x3c>
  20514b:	6c                   	insb   (%dx),%es:(%edi)
  20514c:	6f                   	outsl  %ds:(%esi),(%dx)
  20514d:	77 65                	ja     2051b4 <interrupt_69_fmt+0xa5>
  20514f:	72 00                	jb     205151 <interrupt_69_fmt+0x42>
  205151:	2d 2d 2d 2d 2d       	sub    $0x2d2d2d2d,%eax
  205156:	20 50 61             	and    %dl,0x61(%eax)
  205159:	72 73                	jb     2051ce <interrupt_69_fmt+0xbf>
  20515b:	65 64 20 46 69       	gs and %al,%fs:0x69(%esi)
  205160:	65 6c                	gs insb (%dx),%es:(%edi)
  205162:	64 73 20             	fs jae 205185 <interrupt_69_fmt+0x76>
  205165:	2d 2d 2d 2d 2d       	sub    $0x2d2d2d2d,%eax
  20516a:	0a 00                	or     (%eax),%al
  20516c:	42                   	inc    %edx
  20516d:	61                   	popa
  20516e:	73 65                	jae    2051d5 <interrupt_69_fmt+0xc6>
  205170:	20 41 64             	and    %al,0x64(%ecx)
  205173:	64 72 65             	fs jb  2051db <interrupt_69_fmt+0xcc>
  205176:	73 73                	jae    2051eb <interrupt_69_fmt+0xdc>
  205178:	00 53 65             	add    %dl,0x65(%ebx)
  20517b:	67 6d                	insl   (%dx),%es:(%di)
  20517d:	65 6e                	outsb  %gs:(%esi),(%dx)
  20517f:	74 4c                	je     2051cd <interrupt_69_fmt+0xbe>
  205181:	69 6d 69 74 20 28 62 	imul   $0x62282074,0x69(%ebp),%ebp
  205188:	69 74 73 20 30 2d 31 	imul   $0x39312d30,0x20(%ebx,%esi,2),%esi
  20518f:	39 
  205190:	29 00                	sub    %eax,(%eax)
  205192:	47                   	inc    %edi
  205193:	72 61                	jb     2051f6 <interrupt_69_fmt+0xe7>
  205195:	6e                   	outsb  %ds:(%esi),(%dx)
  205196:	75 6c                	jne    205204 <interrupt_69_fmt+0xf5>
  205198:	61                   	popa
  205199:	72 69                	jb     205204 <interrupt_69_fmt+0xf5>
  20519b:	74 79                	je     205216 <interrupt_69_fmt+0x107>
  20519d:	20 3d 20 00 44 65    	and    %bh,0x65440020
  2051a3:	66 61                	popaw
  2051a5:	75 6c                	jne    205213 <interrupt_69_fmt+0x104>
  2051a7:	74 4f                	je     2051f8 <interrupt_69_fmt+0xe9>
  2051a9:	70 65                	jo     205210 <interrupt_69_fmt+0x101>
  2051ab:	72 61                	jb     20520e <interrupt_69_fmt+0xff>
  2051ad:	74 69                	je     205218 <interrupt_69_fmt+0x109>
  2051af:	6f                   	outsl  %ds:(%esi),(%dx)
  2051b0:	6e                   	outsb  %ds:(%esi),(%dx)
  2051b1:	53                   	push   %ebx
  2051b2:	69 7a 65 20 3d 20 00 	imul   $0x203d20,0x65(%edx),%edi
  2051b9:	4c                   	dec    %esp
  2051ba:	6f                   	outsl  %ds:(%esi),(%dx)
  2051bb:	6e                   	outsb  %ds:(%esi),(%dx)
  2051bc:	67 4d                	addr16 dec %ebp
  2051be:	6f                   	outsl  %ds:(%esi),(%dx)
  2051bf:	64 65 20 3d 20 00 41 	fs and %bh,%gs:0x56410020
  2051c6:	56 
  2051c7:	4c                   	dec    %esp
  2051c8:	20 3d 20 00 50 72    	and    %bh,0x72500020
  2051ce:	65 73 65             	gs jae 205236 <interrupt_69_fmt+0x127>
  2051d1:	6e                   	outsb  %ds:(%esi),(%dx)
  2051d2:	74 20                	je     2051f4 <interrupt_69_fmt+0xe5>
  2051d4:	3d 20 00 44 50       	cmp    $0x50440020,%eax
  2051d9:	4c                   	dec    %esp
  2051da:	20 28                	and    %ch,(%eax)
  2051dc:	62 69 74             	bound  %ebp,0x74(%ecx)
  2051df:	73 20                	jae    205201 <interrupt_69_fmt+0xf2>
  2051e1:	31 33                	xor    %esi,(%ebx)
  2051e3:	2d 31 34 29 00       	sub    $0x293431,%eax
  2051e8:	44                   	inc    %esp
  2051e9:	65 73 63             	gs jae 20524f <interrupt_69_fmt+0x140>
  2051ec:	72 69                	jb     205257 <interrupt_69_fmt+0x148>
  2051ee:	70 74                	jo     205264 <interrupt_69_fmt+0x155>
  2051f0:	6f                   	outsl  %ds:(%esi),(%dx)
  2051f1:	72 54                	jb     205247 <interrupt_69_fmt+0x138>
  2051f3:	79 70                	jns    205265 <interrupt_69_fmt+0x156>
  2051f5:	65 53                	gs push %ebx
  2051f7:	20 3d 20 00 54 79    	and    %bh,0x79540020
  2051fd:	70 65                	jo     205264 <interrupt_69_fmt+0x155>
  2051ff:	20 28                	and    %ch,(%eax)
  205201:	62 69 74             	bound  %ebp,0x74(%ecx)
  205204:	73 20                	jae    205226 <interrupt_69_fmt+0x117>
  205206:	38 2d 31 31 29 00    	cmp    %ch,0x293131
  20520c:	42                   	inc    %edx
  20520d:	65 66 6f             	outsw  %gs:(%esi),(%dx)
  205210:	72 65                	jb     205277 <interrupt_69_fmt+0x168>
  205212:	20 74 68 65          	and    %dh,0x65(%eax,%ebp,2)
  205216:	20 6d 61             	and    %ch,0x61(%ebp)
  205219:	69 6e 20 65 78 65 63 	imul   $0x63657865,0x20(%esi),%ebp
  205220:	75 74                	jne    205296 <interrupt_69_fmt+0x187>
  205222:	69 6f 6e 0a 00 54 68 	imul   $0x6854000a,0x6e(%edi),%ebp
  205229:	65 20 61 64          	and    %ah,%gs:0x64(%ecx)
  20522d:	64 72 65             	fs jb  205295 <interrupt_69_fmt+0x186>
  205230:	73 73                	jae    2052a5 <interrupt_69_fmt+0x196>
  205232:	20 6f 66             	and    %ch,0x66(%edi)
  205235:	20 73 74             	and    %dh,0x74(%ebx)
  205238:	61                   	popa
  205239:	63 6b 31             	arpl   %ebp,0x31(%ebx)
  20523c:	36 5f                	ss pop %edi
  20523e:	65 6e                	outsb  %gs:(%esi),(%dx)
  205240:	64 3a 20             	cmp    %fs:(%eax),%ah
  205243:	00 54 68 65          	add    %dl,0x65(%eax,%ebp,2)
  205247:	20 61 64             	and    %ah,0x64(%ecx)
  20524a:	64 72 65             	fs jb  2052b2 <interrupt_69_fmt+0x1a3>
  20524d:	73 73                	jae    2052c2 <interrupt_69_fmt+0x1b3>
  20524f:	20 6f 66             	and    %ch,0x66(%edi)
  205252:	20 61 72             	and    %ah,0x72(%ecx)
  205255:	67 73 31             	addr16 jae 205289 <interrupt_69_fmt+0x17a>
  205258:	36 5f                	ss pop %edi
  20525a:	73 74                	jae    2052d0 <interrupt_69_fmt+0x1c1>
  20525c:	61                   	popa
  20525d:	72 74                	jb     2052d3 <interrupt_69_fmt+0x1c4>
  20525f:	3a 20                	cmp    (%eax),%ah
  205261:	00 54 68 65          	add    %dl,0x65(%eax,%ebp,2)
  205265:	20 61 64             	and    %ah,0x64(%ecx)
  205268:	64 72 65             	fs jb  2052d0 <interrupt_69_fmt+0x1c1>
  20526b:	73 73                	jae    2052e0 <interrupt_69_fmt+0x1d1>
  20526d:	20 6f 66             	and    %ch,0x66(%edi)
  205270:	20 61 72             	and    %ah,0x72(%ecx)
  205273:	67 73 31             	addr16 jae 2052a7 <interrupt_69_fmt+0x198>
  205276:	36 5f                	ss pop %edi
  205278:	65 6e                	outsb  %gs:(%esi),(%dx)
  20527a:	64 3a 20             	cmp    %fs:(%eax),%ah
  20527d:	00 54 68 65          	add    %dl,0x65(%eax,%ebp,2)
  205281:	20 61 64             	and    %ah,0x64(%ecx)
  205284:	64 72 65             	fs jb  2052ec <interrupt_69_fmt+0x1dd>
  205287:	73 73                	jae    2052fc <interrupt_69_fmt+0x1ed>
  205289:	20 6f 66             	and    %ch,0x66(%edi)
  20528c:	20 70 6d             	and    %dh,0x6d(%eax)
  20528f:	33 32                	xor    (%edx),%esi
  205291:	5f                   	pop    %edi
  205292:	74 6f                	je     205303 <interrupt_69_fmt+0x1f4>
  205294:	5f                   	pop    %edi
  205295:	70 6d                	jo     205304 <interrupt_69_fmt+0x1f5>
  205297:	31 36                	xor    %esi,(%esi)
  205299:	3a 20                	cmp    (%eax),%ah
  20529b:	00 54 68 65          	add    %dl,0x65(%eax,%ebp,2)
  20529f:	20 61 64             	and    %ah,0x64(%ecx)
  2052a2:	64 72 65             	fs jb  20530a <interrupt_69_fmt+0x1fb>
  2052a5:	73 73                	jae    20531a <interrupt_69_fmt+0x20b>
  2052a7:	20 6f 66             	and    %ch,0x66(%edi)
  2052aa:	20 61 64             	and    %ah,0x64(%ecx)
  2052ad:	64 31 36             	xor    %esi,%fs:(%esi)
  2052b0:	3a 20                	cmp    (%eax),%ah
  2052b2:	00 54 68 65          	add    %dl,0x65(%eax,%ebp,2)
  2052b6:	20 61 64             	and    %ah,0x64(%ecx)
  2052b9:	64 72 65             	fs jb  205321 <interrupt_69_fmt+0x212>
  2052bc:	73 73                	jae    205331 <interrupt_69_fmt+0x222>
  2052be:	20 6f 66             	and    %ch,0x66(%edi)
  2052c1:	20 72 65             	and    %dh,0x65(%edx)
  2052c4:	73 75                	jae    20533b <interrupt_69_fmt+0x22c>
  2052c6:	6d                   	insl   (%dx),%es:(%edi)
  2052c7:	65 33 32             	xor    %gs:(%edx),%esi
  2052ca:	3a 20                	cmp    (%eax),%ah
  2052cc:	00 54 68 65          	add    %dl,0x65(%eax,%ebp,2)
  2052d0:	20 61 64             	and    %ah,0x64(%ecx)
  2052d3:	64 72 65             	fs jb  20533b <interrupt_69_fmt+0x22c>
  2052d6:	73 73                	jae    20534b <interrupt_69_fmt+0x23c>
  2052d8:	20 6f 66             	and    %ch,0x66(%edi)
  2052db:	20 72 65             	and    %dh,0x65(%edx)
  2052de:	73 75                	jae    205355 <interrupt_69_fmt+0x246>
  2052e0:	6d                   	insl   (%dx),%es:(%edi)
  2052e1:	65 33 32             	xor    %gs:(%edx),%esi
  2052e4:	5f                   	pop    %edi
  2052e5:	65 6e                	outsb  %gs:(%esi),(%dx)
  2052e7:	64 3a 20             	cmp    %fs:(%eax),%ah
  2052ea:	00 54 68 65          	add    %dl,0x65(%eax,%ebp,2)
  2052ee:	20 61 64             	and    %ah,0x64(%ecx)
  2052f1:	64 72 65             	fs jb  205359 <interrupt_69_fmt+0x24a>
  2052f4:	73 73                	jae    205369 <interrupt_69_fmt+0x25a>
  2052f6:	20 6f 66             	and    %ch,0x66(%edi)
  2052f9:	20 6d 69             	and    %ch,0x69(%ebp)
  2052fc:	73 63                	jae    205361 <interrupt_69_fmt+0x252>
  2052fe:	33 32                	xor    (%edx),%esi
  205300:	5f                   	pop    %edi
  205301:	73 31                	jae    205334 <interrupt_69_fmt+0x225>
  205303:	3a 20                	cmp    (%eax),%ah
  205305:	00 54 68 65          	add    %dl,0x65(%eax,%ebp,2)
  205309:	20 61 64             	and    %ah,0x64(%ecx)
  20530c:	64 72 65             	fs jb  205374 <interrupt_69_fmt+0x265>
  20530f:	73 73                	jae    205384 <interrupt_69_fmt+0x275>
  205311:	20 6f 66             	and    %ch,0x66(%edi)
  205314:	20 6d 69             	and    %ch,0x69(%ebp)
  205317:	73 63                	jae    20537c <interrupt_69_fmt+0x26d>
  205319:	33 32                	xor    (%edx),%esi
  20531b:	5f                   	pop    %edi
  20531c:	73 32                	jae    205350 <interrupt_69_fmt+0x241>
  20531e:	3a 20                	cmp    (%eax),%ah
  205320:	00 0a                	add    %cl,(%edx)
  205322:	54                   	push   %esp
  205323:	68 65 20 76 61       	push   $0x61762065
  205328:	6c                   	insb   (%dx),%es:(%edi)
  205329:	75 65                	jne    205390 <interrupt_69_fmt+0x281>
  20532b:	20 6f 66             	and    %ch,0x66(%edi)
  20532e:	20 63 73             	and    %ah,0x73(%ebx)
  205331:	3a 20                	cmp    (%eax),%ah
  205333:	00 0a                	add    %cl,(%edx)
  205335:	54                   	push   %esp
  205336:	68 65 20 76 61       	push   $0x61762065
  20533b:	6c                   	insb   (%dx),%es:(%edi)
  20533c:	75 65                	jne    2053a3 <interrupt_69_fmt+0x294>
  20533e:	20 6f 66             	and    %ch,0x66(%edi)
  205341:	20 73 73             	and    %dh,0x73(%ebx)
  205344:	3a 20                	cmp    (%eax),%ah
  205346:	00 0a                	add    %cl,(%edx)
  205348:	54                   	push   %esp
  205349:	68 65 20 76 61       	push   $0x61762065
  20534e:	6c                   	insb   (%dx),%es:(%edi)
  20534f:	75 65                	jne    2053b6 <interrupt_69_fmt+0x2a7>
  205351:	20 6f 66             	and    %ch,0x66(%edi)
  205354:	20 64 73 3a          	and    %ah,0x3a(%ebx,%esi,2)
  205358:	20 00                	and    %al,(%eax)
  20535a:	0a 54 68 65          	or     0x65(%eax,%ebp,2),%dl
  20535e:	20 76 61             	and    %dh,0x61(%esi)
  205361:	6c                   	insb   (%dx),%es:(%edi)
  205362:	75 65                	jne    2053c9 <interrupt_69_fmt+0x2ba>
  205364:	20 6f 66             	and    %ch,0x66(%edi)
  205367:	20 65 73             	and    %ah,0x73(%ebp)
  20536a:	3a 20                	cmp    (%eax),%ah
  20536c:	00 0a                	add    %cl,(%edx)
  20536e:	54                   	push   %esp
  20536f:	68 65 20 76 61       	push   $0x61762065
  205374:	6c                   	insb   (%dx),%es:(%edi)
  205375:	75 65                	jne    2053dc <interrupt_69_fmt+0x2cd>
  205377:	20 6f 66             	and    %ch,0x66(%edi)
  20537a:	20 66 73             	and    %ah,0x73(%esi)
  20537d:	3a 20                	cmp    (%eax),%ah
  20537f:	00 0a                	add    %cl,(%edx)
  205381:	54                   	push   %esp
  205382:	68 65 20 76 61       	push   $0x61762065
  205387:	6c                   	insb   (%dx),%es:(%edi)
  205388:	75 65                	jne    2053ef <interrupt_69_fmt+0x2e0>
  20538a:	20 6f 66             	and    %ch,0x66(%edi)
  20538d:	20 67 73             	and    %ah,0x73(%edi)
  205390:	3a 20                	cmp    (%eax),%ah
  205392:	00 67 64             	add    %ah,0x64(%edi)
  205395:	74 20                	je     2053b7 <interrupt_69_fmt+0x2a8>
  205397:	62 61 73             	bound  %esp,0x73(%ecx)
  20539a:	65 20 61 64          	and    %ah,%gs:0x64(%ecx)
  20539e:	64 72 65             	fs jb  205406 <interrupt_69_fmt+0x2f7>
  2053a1:	73 73                	jae    205416 <interrupt_69_fmt+0x307>
  2053a3:	20 3d 20 00 67 64    	and    %bh,0x64670020
  2053a9:	74 20                	je     2053cb <interrupt_69_fmt+0x2bc>
  2053ab:	73 69                	jae    205416 <interrupt_69_fmt+0x307>
  2053ad:	7a 65                	jp     205414 <interrupt_69_fmt+0x305>
  2053af:	20 6c 69 6d          	and    %ch,0x6d(%ecx,%ebp,2)
  2053b3:	69 74 20 3d 20 00 47 	imul   $0x44470020,0x3d(%eax,%eiz,1),%esi
  2053ba:	44 
  2053bb:	54                   	push   %esp
  2053bc:	31 36                	xor    %esi,(%esi)
  2053be:	5f                   	pop    %edi
  2053bf:	44                   	inc    %esp
  2053c0:	45                   	inc    %ebp
  2053c1:	53                   	push   %ebx
  2053c2:	43                   	inc    %ebx
  2053c3:	52                   	push   %edx
  2053c4:	49                   	dec    %ecx
  2053c5:	50                   	push   %eax
  2053c6:	54                   	push   %esp
  2053c7:	4f                   	dec    %edi
  2053c8:	52                   	push   %edx
  2053c9:	20 3d 20 00 47 44    	and    %bh,0x44470020
  2053cf:	54                   	push   %esp
  2053d0:	31 36                	xor    %esi,(%esi)
  2053d2:	20 3d 20 00 0a 2d    	and    %bh,0x2d0a0020
  2053d8:	2d 2d 2d 2d 2d       	sub    $0x2d2d2d2d,%eax
  2053dd:	2d 43 6f 64 65       	sub    $0x65646f43,%eax
  2053e2:	20 53 65             	and    %dl,0x65(%ebx)
  2053e5:	67 6d                	insl   (%dx),%es:(%di)
  2053e7:	65 6e                	outsb  %gs:(%esi),(%dx)
  2053e9:	74 3a                	je     205425 <interrupt_69_fmt+0x316>
  2053eb:	20 0a                	and    %cl,(%edx)
  2053ed:	00 0a                	add    %cl,(%edx)
  2053ef:	2d 2d 2d 2d 2d       	sub    $0x2d2d2d2d,%eax
  2053f4:	2d 2d 44 61 74       	sub    $0x7461442d,%eax
  2053f9:	61                   	popa
  2053fa:	20 53 65             	and    %dl,0x65(%ebx)
  2053fd:	67 6d                	insl   (%dx),%es:(%di)
  2053ff:	65 6e                	outsb  %gs:(%esi),(%dx)
  205401:	74 3a                	je     20543d <interrupt_69_fmt+0x32e>
  205403:	20 0a                	and    %cl,(%edx)
  205405:	00 0a                	add    %cl,(%edx)
  205407:	3d 3d 3d 3d 3d       	cmp    $0x3d3d3d3d,%eax
  20540c:	3d 20 45 6e 64       	cmp    $0x646e4520,%eax
  205411:	20 6f 66             	and    %ch,0x66(%edi)
  205414:	20 47 44             	and    %al,0x44(%edi)
  205417:	54                   	push   %esp
  205418:	33 32                	xor    (%edx),%esi
  20541a:	20 3d 3d 3d 3d 3d    	and    %bh,0x3d3d3d3d
  205420:	3d 0a 0a 00 0a       	cmp    $0xa000a0a,%eax
  205425:	3d 3d 3d 3d 3d       	cmp    $0x3d3d3d3d,%eax
  20542a:	3d 20 45 6e 64       	cmp    $0x646e4520,%eax
  20542f:	20 6f 66             	and    %ch,0x66(%edi)
  205432:	20 47 44             	and    %al,0x44(%edi)
  205435:	54                   	push   %esp
  205436:	31 36                	xor    %esi,(%esi)
  205438:	20 3d 3d 3d 3d 3d    	and    %bh,0x3d3d3d3d
  20543e:	3d 0a 0a 00 0a       	cmp    $0xa000a0a,%eax
  205443:	3d 3d 3d 3d 6f       	cmp    $0x6f3d3d3d,%eax
  205448:	6b 3d 3d 3d 3d 0a 00 	imul   $0x0,0xa3d3d3d,%edi
  20544f:	30 31                	xor    %dh,(%ecx)
  205451:	32 33                	xor    (%ebx),%dh
  205453:	34 35                	xor    $0x35,%al
  205455:	36 37                	ss aaa
  205457:	38 39                	cmp    %bh,(%ecx)
  205459:	41                   	inc    %ecx
  20545a:	42                   	inc    %edx
  20545b:	43                   	inc    %ebx
  20545c:	44                   	inc    %esp
  20545d:	45                   	inc    %ebp
  20545e:	46                   	inc    %esi
  20545f:	00 30                	add    %dh,(%eax)
  205461:	31 32                	xor    %esi,(%edx)
  205463:	33 34 35 36 37 38 39 	xor    0x39383736(,%esi,1),%esi
  20546a:	61                   	popa
  20546b:	62 63 64             	bound  %esp,0x64(%ebx)
  20546e:	65 66 00 41 73       	data16 add %al,%gs:0x73(%ecx)
  205473:	73 65                	jae    2054da <interrupt_69_fmt+0x3cb>
  205475:	72 74                	jb     2054eb <interrupt_69_fmt+0x3dc>
  205477:	69 6f 6e 20 46 61 69 	imul   $0x69614620,0x6e(%edi),%ebp
  20547e:	6c                   	insb   (%dx),%es:(%edi)
  20547f:	65 64 0a 00          	gs or  %fs:(%eax),%al
  205483:	73 74                	jae    2054f9 <interrupt_69_fmt+0x3ea>
  205485:	64 69 6f 2f 62 69 74 	imul   $0x5f746962,%fs:0x2f(%edi),%ebp
  20548c:	5f 
  20548d:	68 65 78 5f 73       	push   $0x735f7865
  205492:	74 72                	je     205506 <interrupt_69_fmt+0x3f7>
  205494:	69 6e 67 2e 63 00 25 	imul   $0x2500632e,0x67(%esi),%ebp
  20549b:	73 0a                	jae    2054a7 <interrupt_69_fmt+0x398>
  20549d:	46                   	inc    %esi
  20549e:	69 6c 65 3a 20 25 73 	imul   $0x2c732520,0x3a(%ebp,%eiz,2),%ebp
  2054a5:	2c 
  2054a6:	20 4c 69 6e          	and    %cl,0x6e(%ecx,%ebp,2)
  2054aa:	65 3a 20             	cmp    %gs:(%eax),%ah
  2054ad:	25 64 0a 00 41       	and    $0x41000a64,%eax
  2054b2:	42                   	inc    %edx
  2054b3:	4f                   	dec    %edi
  2054b4:	52                   	push   %edx
  2054b5:	54                   	push   %esp
  2054b6:	45                   	inc    %ebp
  2054b7:	44                   	inc    %esp
  2054b8:	0a 00                	or     (%eax),%al
  2054ba:	20 7c 20 00          	and    %bh,0x0(%eax,%eiz,1)
  2054be:	30 78 00             	xor    %bh,0x0(%eax)
  2054c1:	5d                   	pop    %ebp
  2054c2:	0a 00                	or     (%eax),%al
  2054c4:	2c 20                	sub    $0x20,%al
  2054c6:	00 20                	add    %ah,(%eax)
  2054c8:	3d 20 5b 00 5d       	cmp    $0x5d005b20,%eax
  2054cd:	20 3d 20 00 46 4d    	and    %bh,0x4d460020
  2054d3:	54                   	push   %esp
  2054d4:	5f                   	pop    %edi
  2054d5:	4f                   	dec    %edi
  2054d6:	50                   	push   %eax
  2054d7:	54                   	push   %esp
  2054d8:	49                   	dec    %ecx
  2054d9:	4f                   	dec    %edi
  2054da:	4e                   	dec    %esi
  2054db:	5f                   	pop    %edi
  2054dc:	4e                   	dec    %esi
  2054dd:	4f                   	dec    %edi
  2054de:	54                   	push   %esp
  2054df:	5f                   	pop    %edi
  2054e0:	49                   	dec    %ecx
  2054e1:	4d                   	dec    %ebp
  2054e2:	50                   	push   %eax
  2054e3:	4c                   	dec    %esp
  2054e4:	45                   	inc    %ebp
  2054e5:	4d                   	dec    %ebp
  2054e6:	45                   	inc    %ebp
  2054e7:	4e                   	dec    %esi
  2054e8:	54                   	push   %esp
  2054e9:	45                   	inc    %ebp
  2054ea:	44                   	inc    %esp
  2054eb:	00 46 4d             	add    %al,0x4d(%esi)
  2054ee:	54                   	push   %esp
  2054ef:	5f                   	pop    %edi
  2054f0:	4f                   	dec    %edi
  2054f1:	50                   	push   %eax
  2054f2:	54                   	push   %esp
  2054f3:	49                   	dec    %ecx
  2054f4:	4f                   	dec    %edi
  2054f5:	4e                   	dec    %esi
  2054f6:	5f                   	pop    %edi
  2054f7:	4e                   	dec    %esi
  2054f8:	4f                   	dec    %edi
  2054f9:	4e                   	dec    %esi
  2054fa:	45                   	inc    %ebp
  2054fb:	00 46 4d             	add    %al,0x4d(%esi)
  2054fe:	54                   	push   %esp
  2054ff:	5f                   	pop    %edi
  205500:	4f                   	dec    %edi
  205501:	50                   	push   %eax
  205502:	54                   	push   %esp
  205503:	49                   	dec    %ecx
  205504:	4f                   	dec    %edi
  205505:	4e                   	dec    %esi
  205506:	5f                   	pop    %edi
  205507:	43                   	inc    %ebx
  205508:	4f                   	dec    %edi
  205509:	55                   	push   %ebp
  20550a:	4c                   	dec    %esp
  20550b:	44                   	inc    %esp
  20550c:	5f                   	pop    %edi
  20550d:	4e                   	dec    %esi
  20550e:	4f                   	dec    %edi
  20550f:	54                   	push   %esp
  205510:	5f                   	pop    %edi
  205511:	43                   	inc    %ebx
  205512:	4f                   	dec    %edi
  205513:	4e                   	dec    %esi
  205514:	56                   	push   %esi
  205515:	45                   	inc    %ebp
  205516:	52                   	push   %edx
  205517:	54                   	push   %esp
  205518:	00 46 4d             	add    %al,0x4d(%esi)
  20551b:	54                   	push   %esp
  20551c:	5f                   	pop    %edi
  20551d:	4f                   	dec    %edi
  20551e:	50                   	push   %eax
  20551f:	54                   	push   %esp
  205520:	49                   	dec    %ecx
  205521:	4f                   	dec    %edi
  205522:	4e                   	dec    %esi
  205523:	5f                   	pop    %edi
  205524:	50                   	push   %eax
  205525:	41                   	inc    %ecx
  205526:	44                   	inc    %esp
  205527:	00 46 4d             	add    %al,0x4d(%esi)
  20552a:	54                   	push   %esp
  20552b:	5f                   	pop    %edi
  20552c:	4f                   	dec    %edi
  20552d:	50                   	push   %eax
  20552e:	54                   	push   %esp
  20552f:	49                   	dec    %ecx
  205530:	4f                   	dec    %edi
  205531:	4e                   	dec    %esi
  205532:	5f                   	pop    %edi
  205533:	50                   	push   %eax
  205534:	52                   	push   %edx
  205535:	45                   	inc    %ebp
  205536:	43                   	inc    %ebx
  205537:	49                   	dec    %ecx
  205538:	53                   	push   %ebx
  205539:	49                   	dec    %ecx
  20553a:	4f                   	dec    %edi
  20553b:	4e                   	dec    %esi
  20553c:	00 46 4d             	add    %al,0x4d(%esi)
  20553f:	54                   	push   %esp
  205540:	5f                   	pop    %edi
  205541:	44                   	inc    %esp
  205542:	45                   	inc    %ebp
  205543:	46                   	inc    %esi
  205544:	41                   	inc    %ecx
  205545:	55                   	push   %ebp
  205546:	4c                   	dec    %esp
  205547:	54                   	push   %esp
  205548:	00 50 52             	add    %dl,0x52(%eax)
  20554b:	49                   	dec    %ecx
  20554c:	4e                   	dec    %esi
  20554d:	54                   	push   %esp
  20554e:	46                   	inc    %esi
  20554f:	5f                   	pop    %edi
  205550:	54                   	push   %esp
  205551:	41                   	inc    %ecx
  205552:	47                   	inc    %edi
  205553:	5f                   	pop    %edi
  205554:	43                   	inc    %ebx
  205555:	48                   	dec    %eax
  205556:	41                   	inc    %ecx
  205557:	52                   	push   %edx
  205558:	00 50 52             	add    %dl,0x52(%eax)
  20555b:	49                   	dec    %ecx
  20555c:	4e                   	dec    %esi
  20555d:	54                   	push   %esp
  20555e:	46                   	inc    %esi
  20555f:	5f                   	pop    %edi
  205560:	54                   	push   %esp
  205561:	41                   	inc    %ecx
  205562:	47                   	inc    %edi
  205563:	5f                   	pop    %edi
  205564:	55                   	push   %ebp
  205565:	4e                   	dec    %esi
  205566:	4b                   	dec    %ebx
  205567:	4e                   	dec    %esi
  205568:	4f                   	dec    %edi
  205569:	57                   	push   %edi
  20556a:	4e                   	dec    %esi
  20556b:	00 50 52             	add    %dl,0x52(%eax)
  20556e:	49                   	dec    %ecx
  20556f:	4e                   	dec    %esi
  205570:	54                   	push   %esp
  205571:	46                   	inc    %esi
  205572:	5f                   	pop    %edi
  205573:	54                   	push   %esp
  205574:	41                   	inc    %ecx
  205575:	47                   	inc    %edi
  205576:	5f                   	pop    %edi
  205577:	49                   	dec    %ecx
  205578:	4e                   	dec    %esi
  205579:	54                   	push   %esp
  20557a:	00 50 52             	add    %dl,0x52(%eax)
  20557d:	49                   	dec    %ecx
  20557e:	4e                   	dec    %esi
  20557f:	54                   	push   %esp
  205580:	46                   	inc    %esi
  205581:	5f                   	pop    %edi
  205582:	54                   	push   %esp
  205583:	41                   	inc    %ecx
  205584:	47                   	inc    %edi
  205585:	5f                   	pop    %edi
  205586:	55                   	push   %ebp
  205587:	49                   	dec    %ecx
  205588:	4e                   	dec    %esi
  205589:	54                   	push   %esp
  20558a:	33 32                	xor    (%edx),%esi
  20558c:	5f                   	pop    %edi
  20558d:	54                   	push   %esp
  20558e:	00 50 52             	add    %dl,0x52(%eax)
  205591:	49                   	dec    %ecx
  205592:	4e                   	dec    %esi
  205593:	54                   	push   %esp
  205594:	46                   	inc    %esi
  205595:	5f                   	pop    %edi
  205596:	54                   	push   %esp
  205597:	41                   	inc    %ecx
  205598:	47                   	inc    %edi
  205599:	5f                   	pop    %edi
  20559a:	46                   	inc    %esi
  20559b:	4c                   	dec    %esp
  20559c:	4f                   	dec    %edi
  20559d:	41                   	inc    %ecx
  20559e:	54                   	push   %esp
  20559f:	00 50 52             	add    %dl,0x52(%eax)
  2055a2:	49                   	dec    %ecx
  2055a3:	4e                   	dec    %esi
  2055a4:	54                   	push   %esp
  2055a5:	46                   	inc    %esi
  2055a6:	5f                   	pop    %edi
  2055a7:	54                   	push   %esp
  2055a8:	41                   	inc    %ecx
  2055a9:	47                   	inc    %edi
  2055aa:	5f                   	pop    %edi
  2055ab:	48                   	dec    %eax
  2055ac:	45                   	inc    %ebp
  2055ad:	58                   	pop    %eax
  2055ae:	00 50 52             	add    %dl,0x52(%eax)
  2055b1:	49                   	dec    %ecx
  2055b2:	4e                   	dec    %esi
  2055b3:	54                   	push   %esp
  2055b4:	46                   	inc    %esi
  2055b5:	5f                   	pop    %edi
  2055b6:	54                   	push   %esp
  2055b7:	41                   	inc    %ecx
  2055b8:	47                   	inc    %edi
  2055b9:	5f                   	pop    %edi
  2055ba:	42                   	inc    %edx
  2055bb:	49                   	dec    %ecx
  2055bc:	4e                   	dec    %esi
  2055bd:	41                   	inc    %ecx
  2055be:	52                   	push   %edx
  2055bf:	59                   	pop    %ecx
  2055c0:	00 50 52             	add    %dl,0x52(%eax)
  2055c3:	49                   	dec    %ecx
  2055c4:	4e                   	dec    %esi
  2055c5:	54                   	push   %esp
  2055c6:	46                   	inc    %esi
  2055c7:	5f                   	pop    %edi
  2055c8:	54                   	push   %esp
  2055c9:	41                   	inc    %ecx
  2055ca:	47                   	inc    %edi
  2055cb:	5f                   	pop    %edi
  2055cc:	49                   	dec    %ecx
  2055cd:	4e                   	dec    %esi
  2055ce:	56                   	push   %esi
  2055cf:	41                   	inc    %ecx
  2055d0:	4c                   	dec    %esp
  2055d1:	49                   	dec    %ecx
  2055d2:	44                   	inc    %esp
  2055d3:	00 50 52             	add    %dl,0x52(%eax)
  2055d6:	49                   	dec    %ecx
  2055d7:	4e                   	dec    %esi
  2055d8:	54                   	push   %esp
  2055d9:	46                   	inc    %esi
  2055da:	5f                   	pop    %edi
  2055db:	54                   	push   %esp
  2055dc:	41                   	inc    %ecx
  2055dd:	47                   	inc    %edi
  2055de:	5f                   	pop    %edi
  2055df:	53                   	push   %ebx
  2055e0:	54                   	push   %esp
  2055e1:	52                   	push   %edx
  2055e2:	49                   	dec    %ecx
  2055e3:	4e                   	dec    %esi
  2055e4:	47                   	inc    %edi
  2055e5:	00 54 79 70          	add    %dl,0x70(%ecx,%edi,2)
  2055e9:	65 20 3d 20 00 4f 70 	and    %bh,%gs:0x704f0020
  2055f0:	74 69                	je     20565b <interrupt_69_fmt+0x54c>
  2055f2:	6f                   	outsl  %ds:(%esi),(%dx)
  2055f3:	6e                   	outsb  %ds:(%esi),(%dx)
  2055f4:	20 3d 20 00 4f 70    	and    %bh,0x704f0020
  2055fa:	74 69                	je     205665 <interrupt_69_fmt+0x556>
  2055fc:	6f                   	outsl  %ds:(%esi),(%dx)
  2055fd:	6e                   	outsb  %ds:(%esi),(%dx)
  2055fe:	20 6e 75             	and    %ch,0x75(%esi)
  205601:	6d                   	insl   (%dx),%es:(%edi)
  205602:	20 3d 20 00 6c 65    	and    %bh,0x656c0020
  205608:	6e                   	outsb  %ds:(%esi),(%dx)
  205609:	20 3d 20 00 70 6f    	and    %bh,0x6f700020
  20560f:	73 20                	jae    205631 <interrupt_69_fmt+0x522>
  205611:	3d 20 00 6c 65       	cmp    $0x656c0020,%eax
  205616:	6e                   	outsb  %ds:(%esi),(%dx)
  205617:	20 63 68             	and    %ah,0x68(%ebx)
  20561a:	65 63 6b 20          	arpl   %ebp,%gs:0x20(%ebx)
  20561e:	66 61                	popaw
  205620:	69 6c 65 64 0a 00 6c 	imul   $0x656c000a,0x64(%ebp,%eiz,2),%ebp
  205627:	65 
  205628:	6e                   	outsb  %ds:(%esi),(%dx)
  205629:	5f                   	pop    %edi
  20562a:	63 68 65             	arpl   %ebp,0x65(%eax)
  20562d:	63 6b 20             	arpl   %ebp,0x20(%ebx)
  205630:	3d 20 00 73 74       	cmp    $0x74730020,%eax
  205635:	64 69 6f 2f 73 74 64 	imul   $0x69647473,%fs:0x2f(%edi),%ebp
  20563c:	69 
  20563d:	6f                   	outsl  %ds:(%esi),(%dx)
  20563e:	2e 63 00             	arpl   %eax,%cs:(%eax)
  205641:	61                   	popa
  205642:	62 6f 72             	bound  %ebp,0x72(%edi)
  205645:	74 20                	je     205667 <interrupt_69_fmt+0x558>
  205647:	63 61 6c             	arpl   %esp,0x6c(%ecx)
  20564a:	6c                   	insb   (%dx),%es:(%edi)
  20564b:	65 64 00 70 65       	gs add %dh,%fs:0x65(%eax)
  205650:	72 63                	jb     2056b5 <interrupt_69_fmt+0x5a6>
  205652:	65 6e                	outsb  %gs:(%esi),(%dx)
  205654:	74 5f                	je     2056b5 <interrupt_69_fmt+0x5a6>
  205656:	63 6f 75             	arpl   %ebp,0x75(%edi)
  205659:	6e                   	outsb  %ds:(%esi),(%dx)
  20565a:	74 20                	je     20567c <interrupt_69_fmt+0x56d>
  20565c:	3d 20 00 69 64       	cmp    $0x64690020,%eax
  205661:	74 2f                	je     205692 <interrupt_69_fmt+0x583>
  205663:	69 64 74 2e 63 00 47 	imul   $0x61470063,0x2e(%esp,%esi,2),%esp
  20566a:	61 
  20566b:	74 65                	je     2056d2 <interrupt_69_fmt+0x5c3>
  20566d:	20 74 79 70          	and    %dh,0x70(%ecx,%edi,2)
  205671:	65 20 69 73          	and    %ch,%gs:0x73(%ecx)
  205675:	20 6e 6f             	and    %ch,0x6f(%esi)
  205678:	74 20                	je     20569a <interrupt_69_fmt+0x58b>
  20567a:	76 61                	jbe    2056dd <interrupt_69_fmt+0x5ce>
  20567c:	6c                   	insb   (%dx),%es:(%edi)
  20567d:	69 64 00 5b 45 52 52 	imul   $0x4f525245,0x5b(%eax,%eax,1),%esp
  205684:	4f 
  205685:	52                   	push   %edx
  205686:	5d                   	pop    %ebp
  205687:	3a 20                	cmp    (%eax),%ah
  205689:	62 69 67             	bound  %ebp,0x67(%ecx)
  20568c:	20 3e                	and    %bh,(%esi)
  20568e:	3d 20 73 6d 61       	cmp    $0x616d7320,%eax
  205693:	6c                   	insb   (%dx),%es:(%edi)
  205694:	6c                   	insb   (%dx),%es:(%edi)
  205695:	20 00                	and    %al,(%eax)
  205697:	74 79                	je     205712 <interrupt_69_fmt+0x603>
  205699:	70 65                	jo     205700 <interrupt_69_fmt+0x5f1>
  20569b:	00 64 65 73          	add    %ah,0x73(%ebp,%eiz,2)
  20569f:	63 72 69             	arpl   %esi,0x69(%edx)
  2056a2:	70 74                	jo     205718 <interrupt_69_fmt+0x609>
  2056a4:	6f                   	outsl  %ds:(%esi),(%dx)
  2056a5:	72 54                	jb     2056fb <interrupt_69_fmt+0x5ec>
  2056a7:	79 70                	jns    205719 <interrupt_69_fmt+0x60a>
  2056a9:	65 53                	gs push %ebx
  2056ab:	00 70 72             	add    %dh,0x72(%eax)
  2056ae:	69 76 69 6c 65 64 67 	imul   $0x6764656c,0x69(%esi),%esi
  2056b5:	65 44                	gs inc %esp
  2056b7:	50                   	push   %eax
  2056b8:	4c                   	dec    %esp
  2056b9:	00 70 72             	add    %dh,0x72(%eax)
  2056bc:	65 73 65             	gs jae 205724 <interrupt_69_fmt+0x615>
  2056bf:	6e                   	outsb  %ds:(%esi),(%dx)
  2056c0:	74 50                	je     205712 <interrupt_69_fmt+0x603>
  2056c2:	00 73 65             	add    %dh,0x65(%ebx)
  2056c5:	67 6d                	insl   (%dx),%es:(%di)
  2056c7:	65 6e                	outsb  %gs:(%esi),(%dx)
  2056c9:	74 4c                	je     205717 <interrupt_69_fmt+0x608>
  2056cb:	69 6d 69 74 00 61 76 	imul   $0x76610074,0x69(%ebp),%ebp
  2056d2:	6c                   	insb   (%dx),%es:(%edi)
  2056d3:	00 44 73 42          	add    %al,0x42(%ebx,%esi,2)
  2056d7:	00 67 72             	add    %ah,0x72(%edi)
  2056da:	61                   	popa
  2056db:	6e                   	outsb  %ds:(%esi),(%dx)
  2056dc:	75 6c                	jne    20574a <interrupt_69_fmt+0x63b>
  2056de:	61                   	popa
  2056df:	72 69                	jb     20574a <interrupt_69_fmt+0x63b>
  2056e1:	74 79                	je     20575c <interrupt_69_fmt+0x64d>
  2056e3:	00 62 61             	add    %ah,0x61(%edx)
  2056e6:	73 65                	jae    20574d <interrupt_69_fmt+0x63e>
  2056e8:	41                   	inc    %ecx
  2056e9:	64 64 72 65          	fs fs jb 205752 <interrupt_69_fmt+0x643>
  2056ed:	73 73                	jae    205762 <interrupt_69_fmt+0x653>
  2056ef:	00 61 63             	add    %ah,0x63(%ecx)
  2056f2:	63 65 73             	arpl   %esp,0x73(%ebp)
  2056f5:	73 00                	jae    2056f7 <interrupt_69_fmt+0x5e8>
  2056f7:	66 6c                	data16 insb (%dx),%es:(%edi)
  2056f9:	61                   	popa
  2056fa:	67 73 00             	addr16 jae 2056fd <interrupt_69_fmt+0x5ee>
  2056fd:	3d 3d 3d 3d 20       	cmp    $0x203d3d3d,%eax
  205702:	41                   	inc    %ecx
  205703:	72 67                	jb     20576c <interrupt_69_fmt+0x65d>
  205705:	73 31                	jae    205738 <interrupt_69_fmt+0x629>
  205707:	36 20 43 6f          	and    %al,%ss:0x6f(%ebx)
  20570b:	6e                   	outsb  %ds:(%esi),(%dx)
  20570c:	74 65                	je     205773 <interrupt_69_fmt+0x664>
  20570e:	6e                   	outsb  %ds:(%esi),(%dx)
  20570f:	74 73                	je     205784 <interrupt_69_fmt+0x675>
  205711:	20 3d 3d 3d 3d 0a    	and    %bh,0xa3d3d3d
  205717:	00 47 44             	add    %al,0x44(%edi)
  20571a:	54                   	push   %esp
  20571b:	20 52 6f             	and    %dl,0x6f(%edx)
  20571e:	6f                   	outsl  %ds:(%esi),(%dx)
  20571f:	74 3a                	je     20575b <interrupt_69_fmt+0x64c>
  205721:	0a 00                	or     (%eax),%al
  205723:	47                   	inc    %edi
  205724:	44                   	inc    %esp
  205725:	54                   	push   %esp
  205726:	20 53 69             	and    %dl,0x69(%ebx)
  205729:	7a 65                	jp     205790 <interrupt_69_fmt+0x681>
  20572b:	3a 20                	cmp    (%eax),%ah
  20572d:	00 47 44             	add    %al,0x44(%edi)
  205730:	54                   	push   %esp
  205731:	20 42 61             	and    %al,0x61(%edx)
  205734:	73 65                	jae    20579b <interrupt_69_fmt+0x68c>
  205736:	20 28                	and    %ch,(%eax)
  205738:	62 69 74             	bound  %ebp,0x74(%ecx)
  20573b:	73 20                	jae    20575d <interrupt_69_fmt+0x64e>
  20573d:	30 2d 33 32 29 00    	xor    %ch,0x293233
  205743:	45                   	inc    %ebp
  205744:	53                   	push   %ebx
  205745:	50                   	push   %eax
  205746:	3a 20                	cmp    (%eax),%ah
  205748:	00 52 65             	add    %dl,0x65(%edx)
  20574b:	74 31                	je     20577e <interrupt_69_fmt+0x66f>
  20574d:	3a 20                	cmp    (%eax),%ah
  20574f:	00 52 65             	add    %dl,0x65(%edx)
  205752:	74 32                	je     205786 <interrupt_69_fmt+0x677>
  205754:	3a 20                	cmp    (%eax),%ah
  205756:	00 41 72             	add    %al,0x72(%ecx)
  205759:	67 63 3a             	arpl   %edi,(%bp,%si)
  20575c:	20 00                	and    %al,(%eax)
  20575e:	46                   	inc    %esi
  20575f:	75 6e                	jne    2057cf <interrupt_69_fmt+0x6c0>
  205761:	63 74 69 6f          	arpl   %esi,0x6f(%ecx,%ebp,2)
  205765:	6e                   	outsb  %ds:(%esi),(%dx)
  205766:	20 41 72             	and    %al,0x72(%ecx)
  205769:	67 75 6d             	addr16 jne 2057d9 <interrupt_69_fmt+0x6ca>
  20576c:	65 6e                	outsb  %gs:(%esi),(%dx)
  20576e:	74 73                	je     2057e3 <interrupt_69_fmt+0x6d4>
  205770:	3a 0a                	cmp    (%edx),%cl
  205772:	00 09                	add    %cl,(%ecx)
  205774:	4e                   	dec    %esi
  205775:	6f                   	outsl  %ds:(%esi),(%dx)
  205776:	6e                   	outsb  %ds:(%esi),(%dx)
  205777:	65 0a 00             	or     %gs:(%eax),%al
  20577a:	20 20                	and    %ah,(%eax)
  20577c:	20 20                	and    %ah,(%eax)
  20577e:	61                   	popa
  20577f:	72 67                	jb     2057e8 <interrupt_69_fmt+0x6d9>
  205781:	00 0a                	add    %cl,(%edx)
  205783:	54                   	push   %esp
  205784:	68 65 20 72 61       	push   $0x61722065
  205789:	77 20                	ja     2057ab <interrupt_69_fmt+0x69c>
  20578b:	76 65                	jbe    2057f2 <interrupt_69_fmt+0x6e3>
  20578d:	72 73                	jb     205802 <interrupt_69_fmt+0x6f3>
  20578f:	69 6f 6e 3a 20 0a 00 	imul   $0xa203a,0x6e(%edi),%ebp
  205796:	61                   	popa
  205797:	72 67                	jb     205800 <interrupt_69_fmt+0x6f1>
  205799:	73 31                	jae    2057cc <interrupt_69_fmt+0x6bd>
  20579b:	36 5f                	ss pop %edi
  20579d:	72 61                	jb     205800 <interrupt_69_fmt+0x6f1>
  20579f:	77 00                	ja     2057a1 <interrupt_69_fmt+0x692>

Disassembly of section .rodata.str1.4:

002057a4 <.rodata.str1.4>:
  2057a4:	54                   	push   %esp
  2057a5:	68 65 20 76 61       	push   $0x61762065
  2057aa:	6c                   	insb   (%dx),%es:(%edi)
  2057ab:	75 65                	jne    205812 <interrupt_69_fmt+0x703>
  2057ad:	20 6f 66             	and    %ch,0x66(%edi)
  2057b0:	20 63 6f             	and    %ah,0x6f(%ebx)
  2057b3:	64 65 20 61 74       	fs and %ah,%gs:0x74(%ecx)
  2057b8:	20 70 6d             	and    %dh,0x6d(%eax)
  2057bb:	31 36                	xor    %esi,(%esi)
  2057bd:	5f                   	pop    %edi
  2057be:	74 6f                	je     20582f <interrupt_69_fmt+0x720>
  2057c0:	5f                   	pop    %edi
  2057c1:	72 65                	jb     205828 <interrupt_69_fmt+0x719>
  2057c3:	61                   	popa
  2057c4:	6c                   	insb   (%dx),%es:(%edi)
  2057c5:	31 36                	xor    %esi,(%esi)
  2057c7:	5f                   	pop    %edi
  2057c8:	61                   	popa
  2057c9:	64 64 72 65          	fs fs jb 205832 <interrupt_69_fmt+0x723>
  2057cd:	73 73                	jae    205842 <interrupt_69_fmt+0x733>
  2057cf:	3a 20                	cmp    (%eax),%ah
  2057d1:	0a 00                	or     (%eax),%al
  2057d3:	00 00                	add    %al,(%eax)
  2057d5:	00 00                	add    %al,(%eax)
  2057d7:	00 54 68 65          	add    %dl,0x65(%eax,%ebp,2)
  2057db:	20 76 61             	and    %dh,0x61(%esi)
  2057de:	6c                   	insb   (%dx),%es:(%edi)
  2057df:	75 65                	jne    205846 <interrupt_69_fmt+0x737>
  2057e1:	20 6f 66             	and    %ch,0x66(%edi)
  2057e4:	20 74 68 65          	and    %dh,0x65(%eax,%ebp,2)
  2057e8:	20 63 6f             	and    %ah,0x6f(%ebx)
  2057eb:	64 65 20 61 74       	fs and %ah,%gs:0x74(%ecx)
  2057f0:	20 63 61             	and    %ah,0x61(%ebx)
  2057f3:	6c                   	insb   (%dx),%es:(%edi)
  2057f4:	6c                   	insb   (%dx),%es:(%edi)
  2057f5:	5f                   	pop    %edi
  2057f6:	72 65                	jb     20585d <interrupt_69_fmt+0x74e>
  2057f8:	61                   	popa
  2057f9:	6c                   	insb   (%dx),%es:(%edi)
  2057fa:	31 36                	xor    %esi,(%esi)
  2057fc:	5f                   	pop    %edi
  2057fd:	66 75 6e             	data16 jne 20586e <interrupt_69_fmt+0x75f>
  205800:	63 74 69 6f          	arpl   %esi,0x6f(%ecx,%ebp,2)
  205804:	6e                   	outsb  %ds:(%esi),(%dx)
  205805:	5f                   	pop    %edi
  205806:	61                   	popa
  205807:	64 64 72 65          	fs fs jb 205870 <interrupt_69_fmt+0x761>
  20580b:	73 73                	jae    205880 <interrupt_69_fmt+0x771>
  20580d:	3a 20                	cmp    (%eax),%ah
  20580f:	0a 00                	or     (%eax),%al
  205811:	00 00                	add    %al,(%eax)
  205813:	00 54 68 65          	add    %dl,0x65(%eax,%ebp,2)
  205817:	20 76 61             	and    %dh,0x61(%esi)
  20581a:	6c                   	insb   (%dx),%es:(%edi)
  20581b:	75 65                	jne    205882 <interrupt_69_fmt+0x773>
  20581d:	20 6f 66             	and    %ch,0x66(%edi)
  205820:	20 74 68 65          	and    %dh,0x65(%eax,%ebp,2)
  205824:	20 63 6f             	and    %ah,0x6f(%ebx)
  205827:	64 65 20 61 74       	fs and %ah,%gs:0x74(%ecx)
  20582c:	20 30                	and    %dh,(%eax)
  20582e:	78 42                	js     205872 <interrupt_69_fmt+0x763>
  205830:	30 41 38             	xor    %al,0x38(%ecx)
  205833:	3a 20                	cmp    (%eax),%ah
  205835:	0a 00                	or     (%eax),%al
  205837:	00 0a                	add    %cl,(%edx)
  205839:	0a 3d 3d 3d 3d 3d    	or     0x3d3d3d3d,%bh
  20583f:	20 53 74             	and    %dl,0x74(%ebx)
  205842:	61                   	popa
  205843:	72 74                	jb     2058b9 <interrupt_69_fmt+0x7aa>
  205845:	20 6f 66             	and    %ch,0x66(%edi)
  205848:	20 4b 65             	and    %cl,0x65(%ebx)
  20584b:	72 6e                	jb     2058bb <interrupt_69_fmt+0x7ac>
  20584d:	65 6c                	gs insb (%dx),%es:(%edi)
  20584f:	20 54 65 73          	and    %dl,0x73(%ebp,%eiz,2)
  205853:	74 3d                	je     205892 <interrupt_69_fmt+0x783>
  205855:	3d 3d 3d 3d 0a       	cmp    $0xa3d3d3d,%eax
  20585a:	0a 00                	or     (%eax),%al
  20585c:	69 6e 74 20 3d 20 25 	imul   $0x25203d20,0x74(%esi),%ebp
  205863:	64 2c 20             	fs sub $0x20,%al
  205866:	75 69                	jne    2058d1 <interrupt_69_fmt+0x7c2>
  205868:	6e                   	outsb  %ds:(%esi),(%dx)
  205869:	74 20                	je     20588b <interrupt_69_fmt+0x77c>
  20586b:	3d 20 25 75 2c       	cmp    $0x2c752520,%eax
  205870:	20 66 6c             	and    %ah,0x6c(%esi)
  205873:	6f                   	outsl  %ds:(%esi),(%dx)
  205874:	61                   	popa
  205875:	74 20                	je     205897 <interrupt_69_fmt+0x788>
  205877:	3d 20 25 66 2e       	cmp    $0x2e662520,%eax
  20587c:	32 2c 20             	xor    (%eax,%eiz,1),%ch
  20587f:	62 69 6e             	bound  %ebp,0x6e(%ecx)
  205882:	20 3d 20 25 62 3a    	and    %bh,0x3a622520
  205888:	37                   	aaa
  205889:	2c 20                	sub    $0x20,%al
  20588b:	68 65 78 20 3d       	push   $0x3d207865
  205890:	20 25 68 3a 39 2d    	and    %ah,0x2d393a68
  205896:	66 69 6e 61 6c 20    	imul   $0x206c,0x61(%esi),%bp
  20589c:	74 65                	je     205903 <interrupt_69_fmt+0x7f4>
  20589e:	78 74                	js     205914 <interrupt_69_fmt+0x805>
  2058a0:	7c 0a                	jl     2058ac <interrupt_69_fmt+0x79d>
  2058a2:	0a 00                	or     (%eax),%al
  2058a4:	54                   	push   %esp
  2058a5:	68 65 20 61 64       	push   $0x64612065
  2058aa:	64 72 65             	fs jb  205912 <interrupt_69_fmt+0x803>
  2058ad:	73 73                	jae    205922 <interrupt_69_fmt+0x813>
  2058af:	20 6f 66             	and    %ch,0x66(%edi)
  2058b2:	20 73 74             	and    %dh,0x74(%ebx)
  2058b5:	61                   	popa
  2058b6:	63 6b 31             	arpl   %ebp,0x31(%ebx)
  2058b9:	36 5f                	ss pop %edi
  2058bb:	73 74                	jae    205931 <interrupt_69_fmt+0x822>
  2058bd:	61                   	popa
  2058be:	72 74                	jb     205934 <interrupt_69_fmt+0x825>
  2058c0:	3a 20                	cmp    (%eax),%ah
  2058c2:	00 00                	add    %al,(%eax)
  2058c4:	54                   	push   %esp
  2058c5:	68 65 20 61 64       	push   $0x64612065
  2058ca:	64 72 65             	fs jb  205932 <interrupt_69_fmt+0x823>
  2058cd:	73 73                	jae    205942 <interrupt_69_fmt+0x833>
  2058cf:	20 6f 66             	and    %ch,0x66(%edi)
  2058d2:	20 74 68 65          	and    %dh,0x65(%eax,%ebp,2)
  2058d6:	20 6e 69             	and    %ch,0x69(%esi)
  2058d9:	63 65 20             	arpl   %esp,0x20(%ebp)
  2058dc:	77 72                	ja     205950 <interrupt_69_fmt+0x841>
  2058de:	61                   	popa
  2058df:	70 70                	jo     205951 <interrupt_69_fmt+0x842>
  2058e1:	65 72 20             	gs jb  205904 <interrupt_69_fmt+0x7f5>
  2058e4:	28 3e                	sub    %bh,(%esi)
  2058e6:	32 4d 42             	xor    0x42(%ebp),%cl
  2058e9:	29 3a                	sub    %edi,(%edx)
  2058eb:	20 00                	and    %al,(%eax)
  2058ed:	00 00                	add    %al,(%eax)
  2058ef:	00 54 68 65          	add    %dl,0x65(%eax,%ebp,2)
  2058f3:	20 61 64             	and    %ah,0x64(%ecx)
  2058f6:	64 72 65             	fs jb  20595e <interrupt_69_fmt+0x84f>
  2058f9:	73 73                	jae    20596e <interrupt_69_fmt+0x85f>
  2058fb:	20 6f 66             	and    %ch,0x66(%edi)
  2058fe:	20 70 6d             	and    %dh,0x6d(%eax)
  205901:	31 36                	xor    %esi,(%esi)
  205903:	5f                   	pop    %edi
  205904:	74 6f                	je     205975 <interrupt_69_fmt+0x866>
  205906:	5f                   	pop    %edi
  205907:	72 65                	jb     20596e <interrupt_69_fmt+0x85f>
  205909:	61                   	popa
  20590a:	6c                   	insb   (%dx),%es:(%edi)
  20590b:	31 36                	xor    %esi,(%esi)
  20590d:	3a 20                	cmp    (%eax),%ah
  20590f:	00 54 68 65          	add    %dl,0x65(%eax,%ebp,2)
  205913:	20 61 64             	and    %ah,0x64(%ecx)
  205916:	64 72 65             	fs jb  20597e <interrupt_69_fmt+0x86f>
  205919:	73 73                	jae    20598e <interrupt_69_fmt+0x87f>
  20591b:	20 6f 66             	and    %ch,0x66(%edi)
  20591e:	20 63 61             	and    %ah,0x61(%ebx)
  205921:	6c                   	insb   (%dx),%es:(%edi)
  205922:	6c                   	insb   (%dx),%es:(%edi)
  205923:	5f                   	pop    %edi
  205924:	72 65                	jb     20598b <interrupt_69_fmt+0x87c>
  205926:	61                   	popa
  205927:	6c                   	insb   (%dx),%es:(%edi)
  205928:	31 36                	xor    %esi,(%esi)
  20592a:	5f                   	pop    %edi
  20592b:	66 75 6e             	data16 jne 20599c <interrupt_69_fmt+0x88d>
  20592e:	63 74 69 6f          	arpl   %esi,0x6f(%ecx,%ebp,2)
  205932:	6e                   	outsb  %ds:(%esi),(%dx)
  205933:	5f                   	pop    %edi
  205934:	61                   	popa
  205935:	64 64 72 65          	fs fs jb 20599e <interrupt_69_fmt+0x88f>
  205939:	73 73                	jae    2059ae <interrupt_69_fmt+0x89f>
  20593b:	3a 20                	cmp    (%eax),%ah
  20593d:	00 00                	add    %al,(%eax)
  20593f:	00 0a                	add    %cl,(%edx)
  205941:	0a 3d 3d 3d 3d 3d    	or     0x3d3d3d3d,%bh
  205947:	3d 20 53 74 61       	cmp    $0x61745320,%eax
  20594c:	72 74                	jb     2059c2 <interrupt_69_fmt+0x8b3>
  20594e:	20 6f 66             	and    %ch,0x66(%edi)
  205951:	20 47 44             	and    %al,0x44(%edi)
  205954:	54                   	push   %esp
  205955:	33 32                	xor    (%edx),%esi
  205957:	20 3d 3d 3d 3d 3d    	and    %bh,0x3d3d3d3d
  20595d:	3d 0a 00 0a 0a       	cmp    $0xa0a000a,%eax
  205962:	3d 3d 3d 3d 3d       	cmp    $0x3d3d3d3d,%eax
  205967:	3d 20 53 74 61       	cmp    $0x61745320,%eax
  20596c:	72 74                	jb     2059e2 <interrupt_69_fmt+0x8d3>
  20596e:	20 6f 66             	and    %ch,0x66(%edi)
  205971:	20 47 44             	and    %al,0x44(%edi)
  205974:	54                   	push   %esp
  205975:	31 36                	xor    %esi,(%esi)
  205977:	20 3d 3d 3d 3d 3d    	and    %bh,0x3d3d3d3d
  20597d:	3d 0a 00 0a 3d       	cmp    $0x3d0a000a,%eax
  205982:	3d 3d 3d 6b 65       	cmp    $0x656b3d3d,%eax
  205987:	72 6e                	jb     2059f7 <interrupt_69_fmt+0x8e8>
  205989:	65 6c                	gs insb (%dx),%es:(%edi)
  20598b:	20 6d 61             	and    %ch,0x61(%ebp)
  20598e:	69 6e 20 65 6e 74 65 	imul   $0x65746e65,0x20(%esi),%ebp
  205995:	72 69                	jb     205a00 <interrupt_69_fmt+0x8f1>
  205997:	6e                   	outsb  %ds:(%esi),(%dx)
  205998:	67 20 6c 6f          	and    %ch,0x6f(%si)
  20599c:	6f                   	outsl  %ds:(%esi),(%dx)
  20599d:	70 3d                	jo     2059dc <interrupt_69_fmt+0x8cd>
  20599f:	3d 3d 3d 0a 00       	cmp    $0xa3d3d,%eax
  2059a4:	4e                   	dec    %esi
  2059a5:	6f                   	outsl  %ds:(%esi),(%dx)
  2059a6:	74 20                	je     2059c8 <interrupt_69_fmt+0x8b9>
  2059a8:	64 65 73 69          	fs gs jae 205a15 <interrupt_69_fmt+0x906>
  2059ac:	67 6e                	outsb  %ds:(%si),(%dx)
  2059ae:	65 64 20 66 6f       	gs and %ah,%fs:0x6f(%esi)
  2059b3:	72 20                	jb     2059d5 <interrupt_69_fmt+0x8c6>
  2059b5:	74 6f                	je     205a26 <interrupt_69_fmt+0x917>
  2059b7:	6f                   	outsl  %ds:(%esi),(%dx)
  2059b8:	20 62 69             	and    %ah,0x69(%edx)
  2059bb:	67 20 68 65          	and    %ch,0x65(%bx,%si)
  2059bf:	78 20                	js     2059e1 <interrupt_69_fmt+0x8d2>
  2059c1:	28 42 6f             	sub    %al,0x6f(%edx)
  2059c4:	75 6e                	jne    205a34 <interrupt_69_fmt+0x925>
  2059c6:	64 65 64 29 00       	fs gs sub %eax,%fs:(%eax)
  2059cb:	00 49 66             	add    %cl,0x66(%ecx)
  2059ce:	20 68 65             	and    %ch,0x65(%eax)
  2059d1:	78 53                	js     205a26 <interrupt_69_fmt+0x917>
  2059d3:	69 7a 65 20 69 73 6e 	imul   $0x6e736920,0x65(%edx),%edi
  2059da:	27                   	daa
  2059db:	74 20                	je     2059fd <interrupt_69_fmt+0x8ee>
  2059dd:	6c                   	insb   (%dx),%es:(%edi)
  2059de:	65 6e                	outsb  %gs:(%esi),(%dx)
  2059e0:	2c 20                	sub    $0x20,%al
  2059e2:	74 68                	je     205a4c <interrupt_69_fmt+0x93d>
  2059e4:	65 6e                	outsb  %gs:(%esi),(%dx)
  2059e6:	20 77 65             	and    %dh,0x65(%edi)
  2059e9:	20 61 72             	and    %ah,0x72(%ecx)
  2059ec:	65 20 66 75          	and    %ah,%gs:0x75(%esi)
  2059f0:	63 6b 65             	arpl   %ebp,0x65(%ebx)
  2059f3:	64 21 0a             	and    %ecx,%fs:(%edx)
  2059f6:	00 00                	add    %al,(%eax)
  2059f8:	43                   	inc    %ebx
  2059f9:	6f                   	outsl  %ds:(%esi),(%dx)
  2059fa:	64 65 20 42 61       	fs and %al,%gs:0x61(%edx)
  2059ff:	73 65                	jae    205a66 <interrupt_69_fmt+0x957>
  205a01:	20 44 65 73          	and    %al,0x73(%ebp,%eiz,2)
  205a05:	63 72 69             	arpl   %esi,0x69(%edx)
  205a08:	70 74                	jo     205a7e <interrupt_69_fmt+0x96f>
  205a0a:	6f                   	outsl  %ds:(%esi),(%dx)
  205a0b:	72 20                	jb     205a2d <interrupt_69_fmt+0x91e>
  205a0d:	4c                   	dec    %esp
  205a0e:	6f                   	outsl  %ds:(%esi),(%dx)
  205a0f:	77 65                	ja     205a76 <interrupt_69_fmt+0x967>
  205a11:	72 20                	jb     205a33 <interrupt_69_fmt+0x924>
  205a13:	28 62 69             	sub    %ah,0x69(%edx)
  205a16:	74 73                	je     205a8b <interrupt_69_fmt+0x97c>
  205a18:	20 30                	and    %dh,(%eax)
  205a1a:	2d 33 32 29 00       	sub    $0x293233,%eax
  205a1f:	00 43 6f             	add    %al,0x6f(%ebx)
  205a22:	64 65 20 42 61       	fs and %al,%gs:0x61(%edx)
  205a27:	73 65                	jae    205a8e <interrupt_69_fmt+0x97f>
  205a29:	20 44 65 73          	and    %al,0x73(%ebp,%eiz,2)
  205a2d:	63 72 69             	arpl   %esi,0x69(%edx)
  205a30:	70 74                	jo     205aa6 <interrupt_69_fmt+0x997>
  205a32:	6f                   	outsl  %ds:(%esi),(%dx)
  205a33:	72 20                	jb     205a55 <interrupt_69_fmt+0x946>
  205a35:	48                   	dec    %eax
  205a36:	69 67 68 65 72 20 28 	imul   $0x28207265,0x68(%edi),%esp
  205a3d:	62 69 74             	bound  %ebp,0x74(%ecx)
  205a40:	73 20                	jae    205a62 <interrupt_69_fmt+0x953>
  205a42:	33 33                	xor    (%ebx),%esi
  205a44:	2d 36 34 29 00       	sub    $0x293436,%eax
  205a49:	00 00                	add    %al,(%eax)
  205a4b:	00 44 61 74          	add    %al,0x74(%ecx,%eiz,2)
  205a4f:	61                   	popa
  205a50:	20 42 61             	and    %al,0x61(%edx)
  205a53:	73 65                	jae    205aba <interrupt_69_fmt+0x9ab>
  205a55:	20 44 65 73          	and    %al,0x73(%ebp,%eiz,2)
  205a59:	63 72 69             	arpl   %esi,0x69(%edx)
  205a5c:	70 74                	jo     205ad2 <interrupt_69_fmt+0x9c3>
  205a5e:	6f                   	outsl  %ds:(%esi),(%dx)
  205a5f:	72 20                	jb     205a81 <interrupt_69_fmt+0x972>
  205a61:	4c                   	dec    %esp
  205a62:	6f                   	outsl  %ds:(%esi),(%dx)
  205a63:	77 65                	ja     205aca <interrupt_69_fmt+0x9bb>
  205a65:	72 20                	jb     205a87 <interrupt_69_fmt+0x978>
  205a67:	28 62 69             	sub    %ah,0x69(%edx)
  205a6a:	74 73                	je     205adf <interrupt_69_fmt+0x9d0>
  205a6c:	20 30                	and    %dh,(%eax)
  205a6e:	2d 33 32 29 00       	sub    $0x293233,%eax
  205a73:	00 44 61 74          	add    %al,0x74(%ecx,%eiz,2)
  205a77:	61                   	popa
  205a78:	20 42 61             	and    %al,0x61(%edx)
  205a7b:	73 65                	jae    205ae2 <interrupt_69_fmt+0x9d3>
  205a7d:	20 44 65 73          	and    %al,0x73(%ebp,%eiz,2)
  205a81:	63 72 69             	arpl   %esi,0x69(%edx)
  205a84:	70 74                	jo     205afa <interrupt_69_fmt+0x9eb>
  205a86:	6f                   	outsl  %ds:(%esi),(%dx)
  205a87:	72 20                	jb     205aa9 <interrupt_69_fmt+0x99a>
  205a89:	48                   	dec    %eax
  205a8a:	69 67 68 65 72 20 28 	imul   $0x28207265,0x68(%edi),%esp
  205a91:	62 69 74             	bound  %ebp,0x74(%ecx)
  205a94:	73 20                	jae    205ab6 <interrupt_69_fmt+0x9a7>
  205a96:	33 33                	xor    (%ebx),%esi
  205a98:	2d 36 34 29 00       	sub    $0x293436,%eax
  205a9d:	00 00                	add    %al,(%eax)
  205a9f:	00 46 75             	add    %al,0x75(%esi)
  205aa2:	6e                   	outsb  %ds:(%esi),(%dx)
  205aa3:	63 74 69 6f          	arpl   %esi,0x6f(%ecx,%ebp,2)
  205aa7:	6e                   	outsb  %ds:(%esi),(%dx)
  205aa8:	20 61 64             	and    %ah,0x64(%ecx)
  205aab:	64 72 65             	fs jb  205b13 <interrupt_69_fmt+0xa04>
  205aae:	73 73                	jae    205b23 <interrupt_69_fmt+0xa14>
  205ab0:	20 6f 66             	and    %ch,0x66(%edi)
  205ab3:	66 73 65             	data16 jae 205b1b <interrupt_69_fmt+0xa0c>
  205ab6:	74 20                	je     205ad8 <interrupt_69_fmt+0x9c9>
  205ab8:	28 69 70             	sub    %ch,0x70(%ecx)
  205abb:	29 3a                	sub    %edi,(%edx)
  205abd:	20 00                	and    %al,(%eax)
  205abf:	00 46 75             	add    %al,0x75(%esi)
  205ac2:	6e                   	outsb  %ds:(%esi),(%dx)
  205ac3:	63 74 69 6f          	arpl   %esi,0x6f(%ecx,%ebp,2)
  205ac7:	6e                   	outsb  %ds:(%esi),(%dx)
  205ac8:	20 61 64             	and    %ah,0x64(%ecx)
  205acb:	64 72 65             	fs jb  205b33 <interrupt_69_fmt+0xa24>
  205ace:	73 73                	jae    205b43 <interrupt_69_fmt+0xa34>
  205ad0:	20 73 65             	and    %dh,0x65(%ebx)
  205ad3:	67 6d                	insl   (%dx),%es:(%di)
  205ad5:	65 6e                	outsb  %gs:(%esi),(%dx)
  205ad7:	74 20                	je     205af9 <interrupt_69_fmt+0x9ea>
  205ad9:	28 63 73             	sub    %ah,0x73(%ebx)
  205adc:	29 3a                	sub    %edi,(%edx)
  205ade:	20 00                	and    %al,(%eax)

Disassembly of section .rodata.cst4:

00205ae0 <.rodata.cst4>:
  205ae0:	00 00                	add    %al,(%eax)
  205ae2:	20 41 18             	and    %al,0x18(%ecx)
  205ae5:	0d                   	.byte 0xd
  205ae6:	0f                   	.byte 0xf
  205ae7:	4d                   	dec    %ebp

Disassembly of section .rodata.cst2:

00205ae8 <.rodata.cst2>:
  205ae8:	0a 00                	or     (%eax),%al
  205aea:	0a 09                	or     (%ecx),%cl

Disassembly of section .data:

00206000 <GDT16_ROOT>:
  206000:	b0 b1                	mov    $0xb1,%al
	...

Disassembly of section .comment:

00000000 <.comment>:
   0:	47                   	inc    %edi
   1:	43                   	inc    %ebx
   2:	43                   	inc    %ebx
   3:	3a 20                	cmp    (%eax),%ah
   5:	28 47 4e             	sub    %al,0x4e(%edi)
   8:	55                   	push   %ebp
   9:	29 20                	sub    %esp,(%eax)
   b:	31 35 2e 32 2e 30    	xor    %esi,0x302e322e
  11:	00 47 43             	add    %al,0x43(%edi)
  14:	43                   	inc    %ebx
  15:	3a 20                	cmp    (%eax),%ah
  17:	28 47 4e             	sub    %al,0x4e(%edi)
  1a:	55                   	push   %ebp
  1b:	29 20                	sub    %esp,(%eax)
  1d:	36 2e 33 2e          	ss xor %cs:(%esi),%ebp
  21:	30 00                	xor    %al,(%eax)
