
myos.bin:     file format elf32-i386

Sections:
Idx Name          Size      VMA       LMA       File off  Algn
  0 .multiboot_start 0000000c  00007000  00007000  00001000  2**12
                  CONTENTS, ALLOC, LOAD, READONLY, DATA
  1 .stack16      00004000  00007010  00007010  0000100c  2**4
                  ALLOC
  2 .args16       00000030  0000b020  0000b020  0000100c  2**2
                  ALLOC
  3 .pm32_to_pm16_section 00000040  0000b060  0000b060  00005060  2**4
                  CONTENTS, ALLOC, LOAD, READONLY, DATA
  4 .pm16_and_real16_wrappers 0000007c  0000b0a0  0000b0a0  000050a0  2**4
                  CONTENTS, ALLOC, LOAD, READONLY, DATA
  5 .realmode16_functions 0000005d  0000b120  0000b120  00005120  2**4
                  CONTENTS, ALLOC, LOAD, READONLY, CODE
  6 .resume32     00000023  0000b180  0000b180  00005180  2**4
                  CONTENTS, ALLOC, LOAD, READONLY, DATA
  7 .misc32       00000026  0000b1b0  0000b1b0  000051b0  2**4
                  CONTENTS, ALLOC, LOAD, READONLY, DATA
  8 .text         00004d69  00200000  00200000  00006000  2**12
                  CONTENTS, ALLOC, LOAD, READONLY, CODE
  9 .rodata       00000b1f  00205000  00205000  0000b000  2**12
                  CONTENTS, ALLOC, LOAD, READONLY, DATA
 10 .data         00000004  00206000  00206000  0000c000  2**12
                  CONTENTS, ALLOC, LOAD, DATA
 11 .bss          0002e001  00207000  00207000  0000c004  2**12
                  ALLOC
 12 .debug_aranges 000001f8  00000000  00000000  0000c004  2**0
                  CONTENTS, READONLY, DEBUGGING, OCTETS
 13 .debug_info   000055f3  00000000  00000000  0000c1fc  2**0
                  CONTENTS, READONLY, DEBUGGING, OCTETS
 14 .debug_abbrev 000018a4  00000000  00000000  000117ef  2**0
                  CONTENTS, READONLY, DEBUGGING, OCTETS
 15 .debug_line   00002147  00000000  00000000  00013093  2**0
                  CONTENTS, READONLY, DEBUGGING, OCTETS
 16 .debug_frame  000015ec  00000000  00000000  000151e0  2**3
                  CONTENTS, READONLY, DEBUGGING, OCTETS
 17 .debug_str    00001bc3  00000000  00000000  000167cc  2**0
                  CONTENTS, READONLY, DEBUGGING, OCTETS
 18 .debug_line_str 0000032f  00000000  00000000  0001838f  2**0
                  CONTENTS, READONLY, DEBUGGING, OCTETS
 19 .comment      00000023  00000000  00000000  000186be  2**0
                  CONTENTS, READONLY
 20 .debug_rnglists 00000017  00000000  00000000  000186e1  2**0
                  CONTENTS, READONLY, DEBUGGING, OCTETS

Disassembly of section .multiboot_start:

00007000 <.multiboot_start>:
    7000:	02 b0 ad 1b 03 00    	add    0x31bad(%eax),%dh
    7006:	00 00                	add    %al,(%eax)
    7008:	fb                   	sti
    7009:	4f                   	dec    %edi
    700a:	52                   	push   %edx
    700b:	e4                   	.byte 0xe4

Disassembly of section .pm32_to_pm16_section:

0000b060 <pm32_to_pm16>:
    b060:	60                   	pusha
    b061:	9c                   	pushf
    b062:	1e                   	push   %ds
    b063:	06                   	push   %es
    b064:	0f a0                	push   %fs
    b066:	0f a8                	push   %gs
    b068:	0f 01 05 20 b0 00 00 	sgdtl  0xb020
    b06f:	89 25 28 b0 00 00    	mov    %esp,0xb028
    b075:	66 8c d0             	mov    %ss,%ax
    b078:	66 a3 2c b0 00 00    	mov    %ax,0xb02c
    b07e:	0e                   	push   %cs
    b07f:	66 58                	pop    %ax
    b081:	66 a3 2e b0 00 00    	mov    %ax,0xb02e
    b087:	bc 00 00 00 00       	mov    $0x0,%esp
    b08c:	bd 00 00 00 00       	mov    $0x0,%ebp
    b091:	fa                   	cli
    b092:	0f 01 15 b0 b1 00 00 	lgdtl  0xb1b0
    b099:	ea a0 b0 00 00 10 00 	ljmp   $0x10,$0xb0a0

Disassembly of section .pm16_and_real16_wrappers:

0000b0a0 <pm16_to_real16>:
    b0a0:	b8 18 00 8e d8       	mov    $0xd88e0018,%eax
    b0a5:	8e c0                	mov    %eax,%es
    b0a7:	8e e0                	mov    %eax,%fs
    b0a9:	8e e8                	mov    %eax,%gs
    b0ab:	8e d0                	mov    %eax,%ss
    b0ad:	0f 20 c0             	mov    %cr0,%eax
    b0b0:	66 83 e0 fe          	and    $0xfffe,%ax
    b0b4:	0f 22 c0             	mov    %eax,%cr0
    b0b7:	ea bc b0 00 00   	ljmp   $0xb8,$0xb0bc

0000b0bc <call_real16_function>:
    b0bc:	b8 00 00 8e d8       	mov    $0xd88e0000,%eax
    b0c1:	8e c0                	mov    %eax,%es
    b0c3:	8e e0                	mov    %eax,%fs
    b0c5:	8e e8                	mov    %eax,%gs
    b0c7:	b8 10 70 c1 e8       	mov    $0xe8c17010,%eax
    b0cc:	04 8e                	add    $0x8e,%al
    b0ce:	d0 8e d0 66 bc 00    	rorb   $1,0xbc66d0(%esi)
    b0d4:	40                   	inc    %eax
    b0d5:	00 00                	add    %al,(%eax)
    b0d7:	89 e2                	mov    %esp,%edx
    b0d9:	8b 0e                	mov    (%esi),%ecx
    b0db:	38 b0 83 f9 00 74    	cmp    %dh,0x7400f983(%eax)
    b0e1:	1c 8c                	sbb    $0x8c,%al
    b0e3:	d0 8e c0 89 e7 8d    	rorb   $1,-0x72187640(%esi)
    b0e9:	36 3a b0 d1 e1 01 ce 	cmp    %ss:-0x31fe1e2f(%eax),%dh
    b0f0:	83 ee 02             	sub    $0x2,%esi
    b0f3:	29 cc                	sub    %ecx,%esp
    b0f5:	83 c4 02             	add    $0x2,%esp
    b0f8:	d1 e9                	shr    $1,%ecx
    b0fa:	fd                   	std
    b0fb:	f3 a5                	rep movsl %ds:(%esi),%es:(%edi)
    b0fd:	fc                   	cld

0000b0fe <args_done>:
    b0fe:	a1 34 b0 ff d0       	mov    0xd0ffb034,%eax
    b103:	a3 30 b0 89 d4       	mov    %eax,0xd489b030
    b108:	0f 01 16             	lgdtl  (%esi)
    b10b:	20 b0 0f 20 c0 66    	and    %dh,0x66c0200f(%eax)
    b111:	83 c8 01             	or     $0x1,%eax
    b114:	0f 22 c0             	mov    %eax,%cr0
    b117:	ea                   	.byte 0xea
    b118:	80                   	.byte 0x80
    b119:	b1 10                	mov    $0x10,%cl
	...

Disassembly of section .realmode16_functions:

0000b120 <add16>:
    b120:	55                   	push   %ebp
    b121:	89 e5                	mov    %esp,%ebp
    b123:	55                   	push   %ebp
    b124:	89 e5                	mov    %esp,%ebp
    b126:	8b 46 04             	mov    0x4(%esi),%eax
    b129:	03 46 06             	add    0x6(%esi),%eax
    b12c:	5d                   	pop    %ebp
    b12d:	c3                   	ret
    b12e:	90                   	nop
    b12f:	89 c0                	mov    %eax,%eax
    b131:	5d                   	pop    %ebp
    b132:	16                   	push   %ss
    b133:	1f                   	pop    %ds
    b134:	c3                   	ret

0000b135 <add16_ref>:
    b135:	55                   	push   %ebp
    b136:	89 e5                	mov    %esp,%ebp
    b138:	8b 46 04             	mov    0x4(%esi),%eax
    b13b:	89 c0                	mov    %eax,%eax
    b13d:	d1 e0                	shl    $1,%eax
    b13f:	89 c2                	mov    %eax,%edx
    b141:	8b 46 06             	mov    0x6(%esi),%eax
    b144:	01 d0                	add    %edx,%eax
    b146:	89 c0                	mov    %eax,%eax
    b148:	89 c0                	mov    %eax,%eax
    b14a:	5d                   	pop    %ebp
    b14b:	16                   	push   %ss
    b14c:	1f                   	pop    %ds
    b14d:	c3                   	ret

0000b14e <complex_operation>:
    b14e:	55                   	push   %ebp
    b14f:	89 e5                	mov    %esp,%ebp
    b151:	8b 46 04             	mov    0x4(%esi),%eax
    b154:	89 c0                	mov    %eax,%eax
    b156:	d1 e0                	shl    $1,%eax
    b158:	89 c2                	mov    %eax,%edx
    b15a:	8b 46 06             	mov    0x6(%esi),%eax
    b15d:	01 c2                	add    %eax,%edx
    b15f:	8b 46 08             	mov    0x8(%esi),%eax
    b162:	29 c2                	sub    %eax,%edx
    b164:	89 d1                	mov    %edx,%ecx
    b166:	8b 56 0a             	mov    0xa(%esi),%edx
    b169:	89 d0                	mov    %edx,%eax
    b16b:	d1 e0                	shl    $1,%eax
    b16d:	89 c0                	mov    %eax,%eax
    b16f:	01 d0                	add    %edx,%eax
    b171:	01 c8                	add    %ecx,%eax
    b173:	89 c0                	mov    %eax,%eax
    b175:	89 c0                	mov    %eax,%eax
    b177:	89 c0                	mov    %eax,%eax
    b179:	5d                   	pop    %ebp
    b17a:	16                   	push   %ss
    b17b:	1f                   	pop    %ds
    b17c:	c3                   	ret

Disassembly of section .resume32:

0000b180 <resume32>:
    b180:	8b 25 28 b0 00 00    	mov    0xb028,%esp
    b186:	66 a1 2c b0 00 00    	mov    0xb02c,%ax
    b18c:	8e d0                	mov    %eax,%ss
    b18e:	8e d0                	mov    %eax,%ss
    b190:	0f a9                	pop    %gs
    b192:	0f a1                	pop    %fs
    b194:	07                   	pop    %es
    b195:	1f                   	pop    %ds
    b196:	9d                   	popf
    b197:	61                   	popa
    b198:	0f b7 05 30 b0 00 00 	movzwl 0xb030,%eax
    b19f:	c3                   	ret

0000b1a0 <halt_loop2>:
    b1a0:	f4                   	hlt
    b1a1:	eb fd                	jmp    b1a0 <halt_loop2>

Disassembly of section .misc32:

0000b1b0 <GDT16_DESCRIPTOR>:
    b1b0:	1f                   	pop    %ds
    b1b1:	00 b6 b1 00 00     	add    %dh,0xb1(%esi)

0000b1b6 <GDT16_START>:
	...

0000b1c6 <GDT16_START.CODE.limit_low>:
    b1c6:	ff                   	(bad)
    b1c7:	ff                 	incl   (%eax)

0000b1c8 <GDT16_START.CODE.base_low>:
	...

0000b1ca <GDT16_START.CODE.base_mid>:
	...

0000b1cb <GDT16_START.CODE.access>:
    b1cb:	9a       	lcall  $0x0,$0xffff0000

0000b1cc <GDT16_START.CODE.flags_LimitHigh>:
	...

0000b1cd <GDT16_START.CODE.base_high>:
	...

0000b1ce <GDT16_START.DATA.limit_low>:
    b1ce:	ff                   	(bad)
    b1cf:	ff                 	incl   (%eax)

0000b1d0 <GDT16_START.DATA.base_low>:
	...

0000b1d2 <GDT16_START.DATA.base_mid>:
	...

0000b1d3 <GDT16_START.DATA.access>:
    b1d3:	92                   	xchg   %eax,%edx

0000b1d4 <GDT16_START.DATA.flags_limitHigh>:
	...

0000b1d5 <GDT16_START.DATA.base_high>:
	...

Disassembly of section .text:

00200000 <_start>:
  200000:	b8 c0 fa ad de       	mov    $0xdeadfac0,%eax
  200005:	bc 00 b0 20 00       	mov    $0x20b000,%esp
  20000a:	e8 84 07 00 00       	call   200793 <kernel_main>

0020000f <halt_loop>:
  20000f:	fa                   	cli
  200010:	f4                   	hlt
  200011:	eb fc                	jmp    20000f <halt_loop>

00200013 <get_ss_selector>:
  200013:	55                   	push   %ebp
  200014:	89 e5                	mov    %esp,%ebp
  200016:	83 ec 10             	sub    $0x10,%esp
  200019:	66 8c d0             	mov    %ss,%ax
  20001c:	66 89 45 fe          	mov    %ax,-0x2(%ebp)
  200020:	0f b7 45 fe          	movzwl -0x2(%ebp),%eax
  200024:	c9                   	leave
  200025:	c3                   	ret

00200026 <get_cs_selector>:
  200026:	55                   	push   %ebp
  200027:	89 e5                	mov    %esp,%ebp
  200029:	83 ec 10             	sub    $0x10,%esp
  20002c:	66 8c c8             	mov    %cs,%ax
  20002f:	66 89 45 fe          	mov    %ax,-0x2(%ebp)
  200033:	0f b7 45 fe          	movzwl -0x2(%ebp),%eax
  200037:	c9                   	leave
  200038:	c3                   	ret

00200039 <get_es_selector>:
  200039:	55                   	push   %ebp
  20003a:	89 e5                	mov    %esp,%ebp
  20003c:	83 ec 10             	sub    $0x10,%esp
  20003f:	66 8c c0             	mov    %es,%ax
  200042:	66 89 45 fe          	mov    %ax,-0x2(%ebp)
  200046:	0f b7 45 fe          	movzwl -0x2(%ebp),%eax
  20004a:	c9                   	leave
  20004b:	c3                   	ret

0020004c <get_fs_selector>:
  20004c:	55                   	push   %ebp
  20004d:	89 e5                	mov    %esp,%ebp
  20004f:	83 ec 10             	sub    $0x10,%esp
  200052:	66 8c e0             	mov    %fs,%ax
  200055:	66 89 45 fe          	mov    %ax,-0x2(%ebp)
  200059:	0f b7 45 fe          	movzwl -0x2(%ebp),%eax
  20005d:	c9                   	leave
  20005e:	c3                   	ret

0020005f <get_gs_selector>:
  20005f:	55                   	push   %ebp
  200060:	89 e5                	mov    %esp,%ebp
  200062:	83 ec 10             	sub    $0x10,%esp
  200065:	66 8c e8             	mov    %gs,%ax
  200068:	66 89 45 fe          	mov    %ax,-0x2(%ebp)
  20006c:	0f b7 45 fe          	movzwl -0x2(%ebp),%eax
  200070:	c9                   	leave
  200071:	c3                   	ret

00200072 <get_ds_selector>:
  200072:	55                   	push   %ebp
  200073:	89 e5                	mov    %esp,%ebp
  200075:	83 ec 10             	sub    $0x10,%esp
  200078:	66 8c d8             	mov    %ds,%ax
  20007b:	66 89 45 fe          	mov    %ax,-0x2(%ebp)
  20007f:	0f b7 45 fe          	movzwl -0x2(%ebp),%eax
  200083:	c9                   	leave
  200084:	c3                   	ret

00200085 <gdt_analize>:
  200085:	55                   	push   %ebp
  200086:	89 e5                	mov    %esp,%ebp
  200088:	83 ec 18             	sub    $0x18,%esp
  20008b:	8b 45 0c             	mov    0xc(%ebp),%eax
  20008e:	8d 14 c5 00 00 00 00 	lea    0x0(,%eax,8),%edx
  200095:	8b 45 08             	mov    0x8(%ebp),%eax
  200098:	01 d0                	add    %edx,%eax
  20009a:	89 45 f4             	mov    %eax,-0xc(%ebp)
  20009d:	8b 45 f4             	mov    -0xc(%ebp),%eax
  2000a0:	8b 40 04             	mov    0x4(%eax),%eax
  2000a3:	83 ec 08             	sub    $0x8,%esp
  2000a6:	68 1a 50 20 00       	push   $0x20501a
  2000ab:	50                   	push   %eax
  2000ac:	e8 07 0f 00 00       	call   200fb8 <printBinary>
  2000b1:	83 c4 10             	add    $0x10,%esp
  2000b4:	8b 45 f4             	mov    -0xc(%ebp),%eax
  2000b7:	8b 00                	mov    (%eax),%eax
  2000b9:	83 ec 08             	sub    $0x8,%esp
  2000bc:	68 21 50 20 00       	push   $0x205021
  2000c1:	50                   	push   %eax
  2000c2:	e8 f1 0e 00 00       	call   200fb8 <printBinary>
  2000c7:	83 c4 10             	add    $0x10,%esp
  2000ca:	83 ec 0c             	sub    $0xc,%esp
  2000cd:	68 27 50 20 00       	push   $0x205027
  2000d2:	e8 98 18 00 00       	call   20196f <terminal_writestring>
  2000d7:	83 c4 10             	add    $0x10,%esp
  2000da:	83 ec 0c             	sub    $0xc,%esp
  2000dd:	ff 75 f4             	push   -0xc(%ebp)
  2000e0:	e8 6d 3c 00 00       	call   203d52 <getBaseAddress>
  2000e5:	83 c4 10             	add    $0x10,%esp
  2000e8:	89 45 f0             	mov    %eax,-0x10(%ebp)
  2000eb:	83 ec 08             	sub    $0x8,%esp
  2000ee:	68 42 50 20 00       	push   $0x205042
  2000f3:	ff 75 f0             	push   -0x10(%ebp)
  2000f6:	e8 bd 0e 00 00       	call   200fb8 <printBinary>
  2000fb:	83 c4 10             	add    $0x10,%esp
  2000fe:	83 ec 0c             	sub    $0xc,%esp
  200101:	ff 75 f4             	push   -0xc(%ebp)
  200104:	e8 5a 39 00 00       	call   203a63 <getSegmentLimit>
  200109:	83 c4 10             	add    $0x10,%esp
  20010c:	83 ec 04             	sub    $0x4,%esp
  20010f:	6a 14                	push   $0x14
  200111:	68 4f 50 20 00       	push   $0x20504f
  200116:	50                   	push   %eax
  200117:	e8 1f 0f 00 00       	call   20103b <printBinarySize>
  20011c:	83 c4 10             	add    $0x10,%esp
  20011f:	83 ec 0c             	sub    $0xc,%esp
  200122:	68 68 50 20 00       	push   $0x205068
  200127:	e8 43 18 00 00       	call   20196f <terminal_writestring>
  20012c:	83 c4 10             	add    $0x10,%esp
  20012f:	83 ec 0c             	sub    $0xc,%esp
  200132:	ff 75 f4             	push   -0xc(%ebp)
  200135:	e8 8d 3d 00 00       	call   203ec7 <printFlags>
  20013a:	83 c4 10             	add    $0x10,%esp
  20013d:	83 ec 0c             	sub    $0xc,%esp
  200140:	ff 75 f4             	push   -0xc(%ebp)
  200143:	e8 dc 3d 00 00       	call   203f24 <printAccess>
  200148:	83 c4 10             	add    $0x10,%esp
  20014b:	83 ec 0c             	sub    $0xc,%esp
  20014e:	68 68 50 20 00       	push   $0x205068
  200153:	e8 17 18 00 00       	call   20196f <terminal_writestring>
  200158:	83 c4 10             	add    $0x10,%esp
  20015b:	83 ec 0c             	sub    $0xc,%esp
  20015e:	ff 75 f4             	push   -0xc(%ebp)
  200161:	e8 6b 3b 00 00       	call   203cd1 <getGranularity>
  200166:	83 c4 10             	add    $0x10,%esp
  200169:	0f b6 c0             	movzbl %al,%eax
  20016c:	83 ec 08             	sub    $0x8,%esp
  20016f:	50                   	push   %eax
  200170:	68 6a 50 20 00       	push   $0x20506a
  200175:	e8 b7 1d 00 00       	call   201f31 <terminal_write_uint>
  20017a:	83 c4 10             	add    $0x10,%esp
  20017d:	83 ec 0c             	sub    $0xc,%esp
  200180:	ff 75 f4             	push   -0xc(%ebp)
  200183:	e8 c8 3a 00 00       	call   203c50 <getDefaultOperationSize>
  200188:	83 c4 10             	add    $0x10,%esp
  20018b:	0f b6 c0             	movzbl %al,%eax
  20018e:	83 ec 08             	sub    $0x8,%esp
  200191:	50                   	push   %eax
  200192:	68 79 50 20 00       	push   $0x205079
  200197:	e8 95 1d 00 00       	call   201f31 <terminal_write_uint>
  20019c:	83 c4 10             	add    $0x10,%esp
  20019f:	83 ec 0c             	sub    $0xc,%esp
  2001a2:	ff 75 f4             	push   -0xc(%ebp)
  2001a5:	e8 45 3a 00 00       	call   203bef <getLongMode>
  2001aa:	83 c4 10             	add    $0x10,%esp
  2001ad:	0f b6 c0             	movzbl %al,%eax
  2001b0:	83 ec 08             	sub    $0x8,%esp
  2001b3:	50                   	push   %eax
  2001b4:	68 91 50 20 00       	push   $0x205091
  2001b9:	e8 73 1d 00 00       	call   201f31 <terminal_write_uint>
  2001be:	83 c4 10             	add    $0x10,%esp
  2001c1:	83 ec 0c             	sub    $0xc,%esp
  2001c4:	ff 75 f4             	push   -0xc(%ebp)
  2001c7:	e8 a2 39 00 00       	call   203b6e <getAVL>
  2001cc:	83 c4 10             	add    $0x10,%esp
  2001cf:	0f b6 c0             	movzbl %al,%eax
  2001d2:	83 ec 08             	sub    $0x8,%esp
  2001d5:	50                   	push   %eax
  2001d6:	68 9d 50 20 00       	push   $0x20509d
  2001db:	e8 51 1d 00 00       	call   201f31 <terminal_write_uint>
  2001e0:	83 c4 10             	add    $0x10,%esp
  2001e3:	83 ec 0c             	sub    $0xc,%esp
  2001e6:	68 68 50 20 00       	push   $0x205068
  2001eb:	e8 7f 17 00 00       	call   20196f <terminal_writestring>
  2001f0:	83 c4 10             	add    $0x10,%esp
  2001f3:	83 ec 0c             	sub    $0xc,%esp
  2001f6:	ff 75 f4             	push   -0xc(%ebp)
  2001f9:	e8 f8 37 00 00       	call   2039f6 <getPresent>
  2001fe:	83 c4 10             	add    $0x10,%esp
  200201:	0f b6 c0             	movzbl %al,%eax
  200204:	83 ec 08             	sub    $0x8,%esp
  200207:	50                   	push   %eax
  200208:	68 a4 50 20 00       	push   $0x2050a4
  20020d:	e8 1f 1d 00 00       	call   201f31 <terminal_write_uint>
  200212:	83 c4 10             	add    $0x10,%esp
  200215:	83 ec 0c             	sub    $0xc,%esp
  200218:	ff 75 f4             	push   -0xc(%ebp)
  20021b:	e8 55 37 00 00       	call   203975 <getPriviledgeDPL>
  200220:	83 c4 10             	add    $0x10,%esp
  200223:	0f b6 c0             	movzbl %al,%eax
  200226:	83 ec 04             	sub    $0x4,%esp
  200229:	6a 02                	push   $0x2
  20022b:	68 af 50 20 00       	push   $0x2050af
  200230:	50                   	push   %eax
  200231:	e8 05 0e 00 00       	call   20103b <printBinarySize>
  200236:	83 c4 10             	add    $0x10,%esp
  200239:	83 ec 0c             	sub    $0xc,%esp
  20023c:	ff 75 f4             	push   -0xc(%ebp)
  20023f:	e8 b0 36 00 00       	call   2038f4 <getDescriptorTypeS>
  200244:	83 c4 10             	add    $0x10,%esp
  200247:	0f b6 c0             	movzbl %al,%eax
  20024a:	83 ec 08             	sub    $0x8,%esp
  20024d:	50                   	push   %eax
  20024e:	68 c0 50 20 00       	push   $0x2050c0
  200253:	e8 d9 1c 00 00       	call   201f31 <terminal_write_uint>
  200258:	83 c4 10             	add    $0x10,%esp
  20025b:	83 ec 0c             	sub    $0xc,%esp
  20025e:	ff 75 f4             	push   -0xc(%ebp)
  200261:	e8 0d 36 00 00       	call   203873 <getType>
  200266:	83 c4 10             	add    $0x10,%esp
  200269:	0f b6 c0             	movzbl %al,%eax
  20026c:	83 ec 04             	sub    $0x4,%esp
  20026f:	6a 04                	push   $0x4
  200271:	68 d3 50 20 00       	push   $0x2050d3
  200276:	50                   	push   %eax
  200277:	e8 bf 0d 00 00       	call   20103b <printBinarySize>
  20027c:	83 c4 10             	add    $0x10,%esp
  20027f:	90                   	nop
  200280:	c9                   	leave
  200281:	c3                   	ret

00200282 <analyse_code>:
  200282:	55                   	push   %ebp
  200283:	89 e5                	mov    %esp,%ebp
  200285:	83 ec 18             	sub    $0x18,%esp
  200288:	83 ec 0c             	sub    $0xc,%esp
  20028b:	68 68 50 20 00       	push   $0x205068
  200290:	e8 da 16 00 00       	call   20196f <terminal_writestring>
  200295:	83 c4 10             	add    $0x10,%esp
  200298:	83 ec 0c             	sub    $0xc,%esp
  20029b:	68 e4 50 20 00       	push   $0x2050e4
  2002a0:	e8 ca 16 00 00       	call   20196f <terminal_writestring>
  2002a5:	83 c4 10             	add    $0x10,%esp
  2002a8:	c7 45 f4 00 00 00 00 	movl   $0x0,-0xc(%ebp)
  2002af:	eb 1d                	jmp    2002ce <analyse_code+0x4c>
  2002b1:	8b 45 08             	mov    0x8(%ebp),%eax
  2002b4:	8b 55 f4             	mov    -0xc(%ebp),%edx
  2002b7:	c1 e2 02             	shl    $0x2,%edx
  2002ba:	01 d0                	add    %edx,%eax
  2002bc:	8b 00                	mov    (%eax),%eax
  2002be:	83 ec 0c             	sub    $0xc,%esp
  2002c1:	50                   	push   %eax
  2002c2:	e8 6f 19 00 00       	call   201c36 <print_hex_var>
  2002c7:	83 c4 10             	add    $0x10,%esp
  2002ca:	83 45 f4 01          	addl   $0x1,-0xc(%ebp)
  2002ce:	83 7d f4 31          	cmpl   $0x31,-0xc(%ebp)
  2002d2:	7e dd                	jle    2002b1 <analyse_code+0x2f>
  2002d4:	83 ec 0c             	sub    $0xc,%esp
  2002d7:	68 68 50 20 00       	push   $0x205068
  2002dc:	e8 8e 16 00 00       	call   20196f <terminal_writestring>
  2002e1:	83 c4 10             	add    $0x10,%esp
  2002e4:	83 ec 0c             	sub    $0xc,%esp
  2002e7:	68 e4 50 20 00       	push   $0x2050e4
  2002ec:	e8 7e 16 00 00       	call   20196f <terminal_writestring>
  2002f1:	83 c4 10             	add    $0x10,%esp
  2002f4:	c7 45 f0 00 00 00 00 	movl   $0x0,-0x10(%ebp)
  2002fb:	eb 1d                	jmp    20031a <analyse_code+0x98>
  2002fd:	8b 45 0c             	mov    0xc(%ebp),%eax
  200300:	8b 55 f0             	mov    -0x10(%ebp),%edx
  200303:	c1 e2 02             	shl    $0x2,%edx
  200306:	01 d0                	add    %edx,%eax
  200308:	8b 00                	mov    (%eax),%eax
  20030a:	83 ec 0c             	sub    $0xc,%esp
  20030d:	50                   	push   %eax
  20030e:	e8 23 19 00 00       	call   201c36 <print_hex_var>
  200313:	83 c4 10             	add    $0x10,%esp
  200316:	83 45 f0 01          	addl   $0x1,-0x10(%ebp)
  20031a:	83 7d f0 31          	cmpl   $0x31,-0x10(%ebp)
  20031e:	7e dd                	jle    2002fd <analyse_code+0x7b>
  200320:	83 ec 0c             	sub    $0xc,%esp
  200323:	68 68 50 20 00       	push   $0x205068
  200328:	e8 42 16 00 00       	call   20196f <terminal_writestring>
  20032d:	83 c4 10             	add    $0x10,%esp
  200330:	83 ec 0c             	sub    $0xc,%esp
  200333:	68 14 51 20 00       	push   $0x205114
  200338:	e8 32 16 00 00       	call   20196f <terminal_writestring>
  20033d:	83 c4 10             	add    $0x10,%esp
  200340:	c7 45 ec 00 00 00 00 	movl   $0x0,-0x14(%ebp)
  200347:	eb 1d                	jmp    200366 <analyse_code+0xe4>
  200349:	8b 45 10             	mov    0x10(%ebp),%eax
  20034c:	8b 55 ec             	mov    -0x14(%ebp),%edx
  20034f:	c1 e2 02             	shl    $0x2,%edx
  200352:	01 d0                	add    %edx,%eax
  200354:	8b 00                	mov    (%eax),%eax
  200356:	83 ec 0c             	sub    $0xc,%esp
  200359:	50                   	push   %eax
  20035a:	e8 d7 18 00 00       	call   201c36 <print_hex_var>
  20035f:	83 c4 10             	add    $0x10,%esp
  200362:	83 45 ec 01          	addl   $0x1,-0x14(%ebp)
  200366:	83 7d ec 31          	cmpl   $0x31,-0x14(%ebp)
  20036a:	7e dd                	jle    200349 <analyse_code+0xc7>
  20036c:	83 ec 0c             	sub    $0xc,%esp
  20036f:	68 68 50 20 00       	push   $0x205068
  200374:	e8 f6 15 00 00       	call   20196f <terminal_writestring>
  200379:	83 c4 10             	add    $0x10,%esp
  20037c:	83 ec 0c             	sub    $0xc,%esp
  20037f:	68 50 51 20 00       	push   $0x205150
  200384:	e8 e6 15 00 00       	call   20196f <terminal_writestring>
  200389:	83 c4 10             	add    $0x10,%esp
  20038c:	c7 45 e8 00 00 00 00 	movl   $0x0,-0x18(%ebp)
  200393:	eb 1d                	jmp    2003b2 <analyse_code+0x130>
  200395:	8b 45 18             	mov    0x18(%ebp),%eax
  200398:	8b 55 e8             	mov    -0x18(%ebp),%edx
  20039b:	c1 e2 02             	shl    $0x2,%edx
  20039e:	01 d0                	add    %edx,%eax
  2003a0:	8b 00                	mov    (%eax),%eax
  2003a2:	83 ec 0c             	sub    $0xc,%esp
  2003a5:	50                   	push   %eax
  2003a6:	e8 8b 18 00 00       	call   201c36 <print_hex_var>
  2003ab:	83 c4 10             	add    $0x10,%esp
  2003ae:	83 45 e8 01          	addl   $0x1,-0x18(%ebp)
  2003b2:	83 7d e8 31          	cmpl   $0x31,-0x18(%ebp)
  2003b6:	7e dd                	jle    200395 <analyse_code+0x113>
  2003b8:	90                   	nop
  2003b9:	90                   	nop
  2003ba:	c9                   	leave
  2003bb:	c3                   	ret

002003bc <before>:
  2003bc:	55                   	push   %ebp
  2003bd:	89 e5                	mov    %esp,%ebp
  2003bf:	83 ec 08             	sub    $0x8,%esp
  2003c2:	83 ec 0c             	sub    $0xc,%esp
  2003c5:	68 73 51 20 00       	push   $0x205173
  2003ca:	e8 a0 15 00 00       	call   20196f <terminal_writestring>
  2003cf:	83 c4 10             	add    $0x10,%esp
  2003d2:	90                   	nop
  2003d3:	c9                   	leave
  2003d4:	c3                   	ret

002003d5 <kernel_test>:
  2003d5:	55                   	push   %ebp
  2003d6:	89 e5                	mov    %esp,%ebp
  2003d8:	83 ec 38             	sub    $0x38,%esp
  2003db:	83 ec 0c             	sub    $0xc,%esp
  2003de:	68 90 51 20 00       	push   $0x205190
  2003e3:	e8 87 15 00 00       	call   20196f <terminal_writestring>
  2003e8:	83 c4 10             	add    $0x10,%esp
  2003eb:	68 cd 3b 12 00       	push   $0x123bcd
  2003f0:	6a 1b                	push   $0x1b
  2003f2:	dd 05 40 55 20 00    	fldl   0x205540
  2003f8:	8d 64 24 f8          	lea    -0x8(%esp),%esp
  2003fc:	dd 1c 24             	fstpl  (%esp)
  2003ff:	6a 02                	push   $0x2
  200401:	6a 01                	push   $0x1
  200403:	68 b4 51 20 00       	push   $0x2051b4
  200408:	6a 06                	push   $0x6
  20040a:	e8 c4 21 00 00       	call   2025d3 <kprintf_argc>
  20040f:	83 c4 20             	add    $0x20,%esp
  200412:	83 ec 08             	sub    $0x8,%esp
  200415:	68 f9 07 20 00       	push   $0x2007f9
  20041a:	68 fc 51 20 00       	push   $0x2051fc
  20041f:	e8 ce 1a 00 00       	call   201ef2 <print_extern_address>
  200424:	83 c4 10             	add    $0x10,%esp
  200427:	83 ec 08             	sub    $0x8,%esp
  20042a:	68 03 08 20 00       	push   $0x200803
  20042f:	68 1b 52 20 00       	push   $0x20521b
  200434:	e8 b9 1a 00 00       	call   201ef2 <print_extern_address>
  200439:	83 c4 10             	add    $0x10,%esp
  20043c:	83 ec 08             	sub    $0x8,%esp
  20043f:	68 0d 08 20 00       	push   $0x20080d
  200444:	68 38 52 20 00       	push   $0x205238
  200449:	e8 a4 1a 00 00       	call   201ef2 <print_extern_address>
  20044e:	83 c4 10             	add    $0x10,%esp
  200451:	83 ec 08             	sub    $0x8,%esp
  200454:	68 17 08 20 00       	push   $0x200817
  200459:	68 56 52 20 00       	push   $0x205256
  20045e:	e8 8f 1a 00 00       	call   201ef2 <print_extern_address>
  200463:	83 c4 10             	add    $0x10,%esp
  200466:	83 ec 08             	sub    $0x8,%esp
  200469:	68 5d 08 20 00       	push   $0x20085d
  20046e:	68 74 52 20 00       	push   $0x205274
  200473:	e8 7a 1a 00 00       	call   201ef2 <print_extern_address>
  200478:	83 c4 10             	add    $0x10,%esp
  20047b:	83 ec 08             	sub    $0x8,%esp
  20047e:	68 67 08 20 00       	push   $0x200867
  200483:	68 9d 52 20 00       	push   $0x20529d
  200488:	e8 65 1a 00 00       	call   201ef2 <print_extern_address>
  20048d:	83 c4 10             	add    $0x10,%esp
  200490:	89 45 f4             	mov    %eax,-0xc(%ebp)
  200493:	83 ec 08             	sub    $0x8,%esp
  200496:	68 3f 08 20 00       	push   $0x20083f
  20049b:	68 bc 52 20 00       	push   $0x2052bc
  2004a0:	e8 4d 1a 00 00       	call   201ef2 <print_extern_address>
  2004a5:	83 c4 10             	add    $0x10,%esp
  2004a8:	89 45 f0             	mov    %eax,-0x10(%ebp)
  2004ab:	83 ec 08             	sub    $0x8,%esp
  2004ae:	68 49 08 20 00       	push   $0x200849
  2004b3:	68 dc 52 20 00       	push   $0x2052dc
  2004b8:	e8 35 1a 00 00       	call   201ef2 <print_extern_address>
  2004bd:	83 c4 10             	add    $0x10,%esp
  2004c0:	89 45 ec             	mov    %eax,-0x14(%ebp)
  2004c3:	83 ec 08             	sub    $0x8,%esp
  2004c6:	68 71 08 20 00       	push   $0x200871
  2004cb:	68 0a 53 20 00       	push   $0x20530a
  2004d0:	e8 1d 1a 00 00       	call   201ef2 <print_extern_address>
  2004d5:	83 c4 10             	add    $0x10,%esp
  2004d8:	89 45 e8             	mov    %eax,-0x18(%ebp)
  2004db:	83 ec 08             	sub    $0x8,%esp
  2004de:	68 53 08 20 00       	push   $0x200853
  2004e3:	68 21 53 20 00       	push   $0x205321
  2004e8:	e8 05 1a 00 00       	call   201ef2 <print_extern_address>
  2004ed:	83 c4 10             	add    $0x10,%esp
  2004f0:	89 45 e4             	mov    %eax,-0x1c(%ebp)
  2004f3:	83 ec 08             	sub    $0x8,%esp
  2004f6:	68 35 08 20 00       	push   $0x200835
  2004fb:	68 3b 53 20 00       	push   $0x20533b
  200500:	e8 ed 19 00 00       	call   201ef2 <print_extern_address>
  200505:	83 c4 10             	add    $0x10,%esp
  200508:	89 45 e0             	mov    %eax,-0x20(%ebp)
  20050b:	83 ec 08             	sub    $0x8,%esp
  20050e:	68 21 08 20 00       	push   $0x200821
  200513:	68 59 53 20 00       	push   $0x205359
  200518:	e8 d5 19 00 00       	call   201ef2 <print_extern_address>
  20051d:	83 c4 10             	add    $0x10,%esp
  200520:	83 ec 08             	sub    $0x8,%esp
  200523:	68 2b 08 20 00       	push   $0x20082b
  200528:	68 74 53 20 00       	push   $0x205374
  20052d:	e8 c0 19 00 00       	call   201ef2 <print_extern_address>
  200532:	83 c4 10             	add    $0x10,%esp
  200535:	83 ec 08             	sub    $0x8,%esp
  200538:	68 26 00 20 00       	push   $0x200026
  20053d:	68 8f 53 20 00       	push   $0x20538f
  200542:	e8 7e 1a 00 00       	call   201fc5 <print_extern_address16>
  200547:	83 c4 10             	add    $0x10,%esp
  20054a:	83 ec 08             	sub    $0x8,%esp
  20054d:	68 13 00 20 00       	push   $0x200013
  200552:	68 a2 53 20 00       	push   $0x2053a2
  200557:	e8 69 1a 00 00       	call   201fc5 <print_extern_address16>
  20055c:	83 c4 10             	add    $0x10,%esp
  20055f:	83 ec 08             	sub    $0x8,%esp
  200562:	68 72 00 20 00       	push   $0x200072
  200567:	68 b5 53 20 00       	push   $0x2053b5
  20056c:	e8 54 1a 00 00       	call   201fc5 <print_extern_address16>
  200571:	83 c4 10             	add    $0x10,%esp
  200574:	83 ec 08             	sub    $0x8,%esp
  200577:	68 4c 00 20 00       	push   $0x20004c
  20057c:	68 c8 53 20 00       	push   $0x2053c8
  200581:	e8 3f 1a 00 00       	call   201fc5 <print_extern_address16>
  200586:	83 c4 10             	add    $0x10,%esp
  200589:	83 ec 08             	sub    $0x8,%esp
  20058c:	68 4c 00 20 00       	push   $0x20004c
  200591:	68 db 53 20 00       	push   $0x2053db
  200596:	e8 2a 1a 00 00       	call   201fc5 <print_extern_address16>
  20059b:	83 c4 10             	add    $0x10,%esp
  20059e:	83 ec 08             	sub    $0x8,%esp
  2005a1:	68 5f 00 20 00       	push   $0x20005f
  2005a6:	68 ee 53 20 00       	push   $0x2053ee
  2005ab:	e8 15 1a 00 00       	call   201fc5 <print_extern_address16>
  2005b0:	83 c4 10             	add    $0x10,%esp
  2005b3:	8d 45 c8             	lea    -0x38(%ebp),%eax
  2005b6:	83 ec 0c             	sub    $0xc,%esp
  2005b9:	50                   	push   %eax
  2005ba:	e8 e7 43 00 00       	call   2049a6 <get_gdt_root>
  2005bf:	83 c4 0c             	add    $0xc,%esp
  2005c2:	8b 45 ca             	mov    -0x36(%ebp),%eax
  2005c5:	89 45 dc             	mov    %eax,-0x24(%ebp)
  2005c8:	8b 45 ca             	mov    -0x36(%ebp),%eax
  2005cb:	83 ec 08             	sub    $0x8,%esp
  2005ce:	50                   	push   %eax
  2005cf:	68 01 54 20 00       	push   $0x205401
  2005d4:	e8 c7 19 00 00       	call   201fa0 <terminal_write_ptr>
  2005d9:	83 c4 10             	add    $0x10,%esp
  2005dc:	0f b7 45 c8          	movzwl -0x38(%ebp),%eax
  2005e0:	0f b7 c0             	movzwl %ax,%eax
  2005e3:	83 ec 08             	sub    $0x8,%esp
  2005e6:	50                   	push   %eax
  2005e7:	68 15 54 20 00       	push   $0x205415
  2005ec:	e8 40 19 00 00       	call   201f31 <terminal_write_uint>
  2005f1:	83 c4 10             	add    $0x10,%esp
  2005f4:	a1 b2 b1 00 00       	mov    0xb1b2,%eax
  2005f9:	89 45 d8             	mov    %eax,-0x28(%ebp)
  2005fc:	0f b7 05 b0 b1 00 00 	movzwl 0xb1b0,%eax
  200603:	66 89 45 d6          	mov    %ax,-0x2a(%ebp)
  200607:	a1 00 60 20 00       	mov    0x206000,%eax
  20060c:	83 ec 08             	sub    $0x8,%esp
  20060f:	50                   	push   %eax
  200610:	68 27 54 20 00       	push   $0x205427
  200615:	e8 86 19 00 00       	call   201fa0 <terminal_write_ptr>
  20061a:	83 c4 10             	add    $0x10,%esp
  20061d:	a1 b2 b1 00 00       	mov    0xb1b2,%eax
  200622:	83 ec 08             	sub    $0x8,%esp
  200625:	50                   	push   %eax
  200626:	68 3b 54 20 00       	push   $0x20543b
  20062b:	e8 70 19 00 00       	call   201fa0 <terminal_write_ptr>
  200630:	83 c4 10             	add    $0x10,%esp
  200633:	83 ec 0c             	sub    $0xc,%esp
  200636:	68 44 54 20 00       	push   $0x205444
  20063b:	e8 2f 13 00 00       	call   20196f <terminal_writestring>
  200640:	83 c4 10             	add    $0x10,%esp
  200643:	83 ec 0c             	sub    $0xc,%esp
  200646:	68 64 54 20 00       	push   $0x205464
  20064b:	e8 1f 13 00 00       	call   20196f <terminal_writestring>
  200650:	83 c4 10             	add    $0x10,%esp
  200653:	83 ec 08             	sub    $0x8,%esp
  200656:	6a 02                	push   $0x2
  200658:	ff 75 dc             	push   -0x24(%ebp)
  20065b:	e8 25 fa ff ff       	call   200085 <gdt_analize>
  200660:	83 c4 10             	add    $0x10,%esp
  200663:	83 ec 0c             	sub    $0xc,%esp
  200666:	68 7c 54 20 00       	push   $0x20547c
  20066b:	e8 ff 12 00 00       	call   20196f <terminal_writestring>
  200670:	83 c4 10             	add    $0x10,%esp
  200673:	83 ec 08             	sub    $0x8,%esp
  200676:	6a 03                	push   $0x3
  200678:	ff 75 dc             	push   -0x24(%ebp)
  20067b:	e8 05 fa ff ff       	call   200085 <gdt_analize>
  200680:	83 c4 10             	add    $0x10,%esp
  200683:	83 ec 0c             	sub    $0xc,%esp
  200686:	68 94 54 20 00       	push   $0x205494
  20068b:	e8 df 12 00 00       	call   20196f <terminal_writestring>
  200690:	83 c4 10             	add    $0x10,%esp
  200693:	83 ec 0c             	sub    $0xc,%esp
  200696:	68 b4 54 20 00       	push   $0x2054b4
  20069b:	e8 cf 12 00 00       	call   20196f <terminal_writestring>
  2006a0:	83 c4 10             	add    $0x10,%esp
  2006a3:	83 ec 0c             	sub    $0xc,%esp
  2006a6:	68 64 54 20 00       	push   $0x205464
  2006ab:	e8 bf 12 00 00       	call   20196f <terminal_writestring>
  2006b0:	83 c4 10             	add    $0x10,%esp
  2006b3:	83 ec 08             	sub    $0x8,%esp
  2006b6:	6a 02                	push   $0x2
  2006b8:	ff 75 d8             	push   -0x28(%ebp)
  2006bb:	e8 c5 f9 ff ff       	call   200085 <gdt_analize>
  2006c0:	83 c4 10             	add    $0x10,%esp
  2006c3:	83 ec 0c             	sub    $0xc,%esp
  2006c6:	68 7c 54 20 00       	push   $0x20547c
  2006cb:	e8 9f 12 00 00       	call   20196f <terminal_writestring>
  2006d0:	83 c4 10             	add    $0x10,%esp
  2006d3:	83 ec 08             	sub    $0x8,%esp
  2006d6:	6a 03                	push   $0x3
  2006d8:	ff 75 d8             	push   -0x28(%ebp)
  2006db:	e8 a5 f9 ff ff       	call   200085 <gdt_analize>
  2006e0:	83 c4 10             	add    $0x10,%esp
  2006e3:	83 ec 0c             	sub    $0xc,%esp
  2006e6:	68 d4 54 20 00       	push   $0x2054d4
  2006eb:	e8 7f 12 00 00       	call   20196f <terminal_writestring>
  2006f0:	83 c4 10             	add    $0x10,%esp
  2006f3:	e8 c4 fc ff ff       	call   2003bc <before>
  2006f8:	68 c9 00 00 00       	push   $0xc9
  2006fd:	6a 68                	push   $0x68
  2006ff:	68 35 b1 00 00       	push   $0xb135
  200704:	6a 03                	push   $0x3
  200706:	e8 ac 45 00 00       	call   204cb7 <call_real_mode_function_with_argc>
  20070b:	83 c4 10             	add    $0x10,%esp
  20070e:	66 89 45 d4          	mov    %ax,-0x2c(%ebp)
  200712:	83 ec 0c             	sub    $0xc,%esp
  200715:	68 20 b0 00 00       	push   $0xb020
  20071a:	e8 bb 42 00 00       	call   2049da <print_args16>
  20071f:	83 c4 10             	add    $0x10,%esp
  200722:	0f b7 45 d4          	movzwl -0x2c(%ebp),%eax
  200726:	83 ec 08             	sub    $0x8,%esp
  200729:	50                   	push   %eax
  20072a:	68 f4 54 20 00       	push   $0x2054f4
  20072f:	e8 fd 17 00 00       	call   201f31 <terminal_write_uint>
  200734:	83 c4 10             	add    $0x10,%esp
  200737:	83 ec 08             	sub    $0x8,%esp
  20073a:	6a 2b                	push   $0x2b
  20073c:	68 31 01 00 00       	push   $0x131
  200741:	68 c9 00 00 00       	push   $0xc9
  200746:	6a 68                	push   $0x68
  200748:	68 4e b1 00 00       	push   $0xb14e
  20074d:	6a 05                	push   $0x5
  20074f:	e8 63 45 00 00       	call   204cb7 <call_real_mode_function_with_argc>
  200754:	83 c4 20             	add    $0x20,%esp
  200757:	66 89 45 d2          	mov    %ax,-0x2e(%ebp)
  20075b:	83 ec 0c             	sub    $0xc,%esp
  20075e:	68 20 b0 00 00       	push   $0xb020
  200763:	e8 72 42 00 00       	call   2049da <print_args16>
  200768:	83 c4 10             	add    $0x10,%esp
  20076b:	0f b7 45 d2          	movzwl -0x2e(%ebp),%eax
  20076f:	83 ec 08             	sub    $0x8,%esp
  200772:	50                   	push   %eax
  200773:	68 f4 54 20 00       	push   $0x2054f4
  200778:	e8 b4 17 00 00       	call   201f31 <terminal_write_uint>
  20077d:	83 c4 10             	add    $0x10,%esp
  200780:	83 ec 0c             	sub    $0xc,%esp
  200783:	68 1c 55 20 00       	push   $0x20551c
  200788:	e8 e2 11 00 00       	call   20196f <terminal_writestring>
  20078d:	83 c4 10             	add    $0x10,%esp
  200790:	90                   	nop
  200791:	c9                   	leave
  200792:	c3                   	ret

00200793 <kernel_main>:
  200793:	55                   	push   %ebp
  200794:	89 e5                	mov    %esp,%ebp
  200796:	83 ec 08             	sub    $0x8,%esp
  200799:	e8 2c 0d 00 00       	call   2014ca <initialize_terminal>
  20079e:	83 ec 0c             	sub    $0xc,%esp
  2007a1:	6a 00                	push   $0x0
  2007a3:	e8 64 0e 00 00       	call   20160c <terminal_set_scroll>
  2007a8:	83 c4 10             	add    $0x10,%esp
  2007ab:	e8 95 25 00 00       	call   202d45 <idt_init>
  2007b0:	e8 20 fc ff ff       	call   2003d5 <kernel_test>
  2007b5:	90                   	nop
  2007b6:	eb fd                	jmp    2007b5 <kernel_main+0x22>

002007b8 <memcpy>:
  2007b8:	55                   	push   %ebp
  2007b9:	89 e5                	mov    %esp,%ebp
  2007bb:	83 ec 10             	sub    $0x10,%esp
  2007be:	8b 45 08             	mov    0x8(%ebp),%eax
  2007c1:	89 45 f8             	mov    %eax,-0x8(%ebp)
  2007c4:	8b 45 0c             	mov    0xc(%ebp),%eax
  2007c7:	89 45 f4             	mov    %eax,-0xc(%ebp)
  2007ca:	c7 45 fc 00 00 00 00 	movl   $0x0,-0x4(%ebp)
  2007d1:	eb 19                	jmp    2007ec <memcpy+0x34>
  2007d3:	8b 55 f4             	mov    -0xc(%ebp),%edx
  2007d6:	8b 45 fc             	mov    -0x4(%ebp),%eax
  2007d9:	01 d0                	add    %edx,%eax
  2007db:	8b 4d f8             	mov    -0x8(%ebp),%ecx
  2007de:	8b 55 fc             	mov    -0x4(%ebp),%edx
  2007e1:	01 ca                	add    %ecx,%edx
  2007e3:	0f b6 00             	movzbl (%eax),%eax
  2007e6:	88 02                	mov    %al,(%edx)
  2007e8:	83 45 fc 01          	addl   $0x1,-0x4(%ebp)
  2007ec:	8b 45 fc             	mov    -0x4(%ebp),%eax
  2007ef:	3b 45 10             	cmp    0x10(%ebp),%eax
  2007f2:	72 df                	jb     2007d3 <memcpy+0x1b>
  2007f4:	8b 45 08             	mov    0x8(%ebp),%eax
  2007f7:	c9                   	leave
  2007f8:	c3                   	ret

002007f9 <get_stack16_start_address>:
  2007f9:	55                   	push   %ebp
  2007fa:	89 e5                	mov    %esp,%ebp
  2007fc:	b8 10 70 00 00       	mov    $0x7010,%eax
  200801:	5d                   	pop    %ebp
  200802:	c3                   	ret

00200803 <get_stack16_end_address>:
  200803:	55                   	push   %ebp
  200804:	89 e5                	mov    %esp,%ebp
  200806:	b8 10 b0 00 00       	mov    $0xb010,%eax
  20080b:	5d                   	pop    %ebp
  20080c:	c3                   	ret

0020080d <get_args16_start_address>:
  20080d:	55                   	push   %ebp
  20080e:	89 e5                	mov    %esp,%ebp
  200810:	b8 20 b0 00 00       	mov    $0xb020,%eax
  200815:	5d                   	pop    %ebp
  200816:	c3                   	ret

00200817 <get_args16_end_address>:
  200817:	55                   	push   %ebp
  200818:	89 e5                	mov    %esp,%ebp
  20081a:	b8 50 b0 00 00       	mov    $0xb050,%eax
  20081f:	5d                   	pop    %ebp
  200820:	c3                   	ret

00200821 <get_misc32_s1_address>:
  200821:	55                   	push   %ebp
  200822:	89 e5                	mov    %esp,%ebp
  200824:	b8 a3 b1 00 00       	mov    $0xb1a3,%eax
  200829:	5d                   	pop    %ebp
  20082a:	c3                   	ret

0020082b <get_misc32_s2_address>:
  20082b:	55                   	push   %ebp
  20082c:	89 e5                	mov    %esp,%ebp
  20082e:	b8 b0 b1 00 00       	mov    $0xb1b0,%eax
  200833:	5d                   	pop    %ebp
  200834:	c3                   	ret

00200835 <get_resume32_end_address>:
  200835:	55                   	push   %ebp
  200836:	89 e5                	mov    %esp,%ebp
  200838:	b8 a3 b1 00 00       	mov    $0xb1a3,%eax
  20083d:	5d                   	pop    %ebp
  20083e:	c3                   	ret

0020083f <get_pm16_to_real16_address>:
  20083f:	55                   	push   %ebp
  200840:	89 e5                	mov    %esp,%ebp
  200842:	b8 a0 b0 00 00       	mov    $0xb0a0,%eax
  200847:	5d                   	pop    %ebp
  200848:	c3                   	ret

00200849 <get_call_real16_function_address>:
  200849:	55                   	push   %ebp
  20084a:	89 e5                	mov    %esp,%ebp
  20084c:	b8 bc b0 00 00       	mov    $0xb0bc,%eax
  200851:	5d                   	pop    %ebp
  200852:	c3                   	ret

00200853 <get_resume32_start_address>:
  200853:	55                   	push   %ebp
  200854:	89 e5                	mov    %esp,%ebp
  200856:	b8 80 b1 00 00       	mov    $0xb180,%eax
  20085b:	5d                   	pop    %ebp
  20085c:	c3                   	ret

0020085d <get_call_realmode_func_with_args_address>:
  20085d:	55                   	push   %ebp
  20085e:	89 e5                	mov    %esp,%ebp
  200860:	b8 b7 4c 20 00       	mov    $0x204cb7,%eax
  200865:	5d                   	pop    %ebp
  200866:	c3                   	ret

00200867 <get_pm32_to_pm16_address>:
  200867:	55                   	push   %ebp
  200868:	89 e5                	mov    %esp,%ebp
  20086a:	b8 60 b0 00 00       	mov    $0xb060,%eax
  20086f:	5d                   	pop    %ebp
  200870:	c3                   	ret

00200871 <get_add16_address>:
  200871:	55                   	push   %ebp
  200872:	89 e5                	mov    %esp,%ebp
  200874:	b8 20 b1 00 00       	mov    $0xb120,%eax
  200879:	5d                   	pop    %ebp
  20087a:	c3                   	ret

0020087b <strlen>:
  20087b:	55                   	push   %ebp
  20087c:	89 e5                	mov    %esp,%ebp
  20087e:	83 ec 10             	sub    $0x10,%esp
  200881:	c7 45 fc 00 00 00 00 	movl   $0x0,-0x4(%ebp)
  200888:	eb 04                	jmp    20088e <strlen+0x13>
  20088a:	83 45 fc 01          	addl   $0x1,-0x4(%ebp)
  20088e:	8b 55 08             	mov    0x8(%ebp),%edx
  200891:	8b 45 fc             	mov    -0x4(%ebp),%eax
  200894:	01 d0                	add    %edx,%eax
  200896:	0f b6 00             	movzbl (%eax),%eax
  200899:	84 c0                	test   %al,%al
  20089b:	75 ed                	jne    20088a <strlen+0xf>
  20089d:	8b 45 fc             	mov    -0x4(%ebp),%eax
  2008a0:	c9                   	leave
  2008a1:	c3                   	ret

002008a2 <itoa>:
  2008a2:	55                   	push   %ebp
  2008a3:	89 e5                	mov    %esp,%ebp
  2008a5:	83 ec 20             	sub    $0x20,%esp
  2008a8:	c7 45 fc 00 00 00 00 	movl   $0x0,-0x4(%ebp)
  2008af:	c7 45 f8 00 00 00 00 	movl   $0x0,-0x8(%ebp)
  2008b6:	83 7d 08 00          	cmpl   $0x0,0x8(%ebp)
  2008ba:	75 24                	jne    2008e0 <itoa+0x3e>
  2008bc:	8b 45 fc             	mov    -0x4(%ebp),%eax
  2008bf:	8d 50 01             	lea    0x1(%eax),%edx
  2008c2:	89 55 fc             	mov    %edx,-0x4(%ebp)
  2008c5:	8b 55 0c             	mov    0xc(%ebp),%edx
  2008c8:	01 d0                	add    %edx,%eax
  2008ca:	c6 00 30             	movb   $0x30,(%eax)
  2008cd:	8b 55 0c             	mov    0xc(%ebp),%edx
  2008d0:	8b 45 fc             	mov    -0x4(%ebp),%eax
  2008d3:	01 d0                	add    %edx,%eax
  2008d5:	c6 00 00             	movb   $0x0,(%eax)
  2008d8:	8b 45 fc             	mov    -0x4(%ebp),%eax
  2008db:	e9 e4 00 00 00       	jmp    2009c4 <itoa+0x122>
  2008e0:	83 7d 08 00          	cmpl   $0x0,0x8(%ebp)
  2008e4:	79 0a                	jns    2008f0 <itoa+0x4e>
  2008e6:	c7 45 f8 01 00 00 00 	movl   $0x1,-0x8(%ebp)
  2008ed:	f7 5d 08             	negl   0x8(%ebp)
  2008f0:	8b 45 fc             	mov    -0x4(%ebp),%eax
  2008f3:	89 45 f4             	mov    %eax,-0xc(%ebp)
  2008f6:	eb 55                	jmp    20094d <itoa+0xab>
  2008f8:	8b 4d 08             	mov    0x8(%ebp),%ecx
  2008fb:	ba 67 66 66 66       	mov    $0x66666667,%edx
  200900:	89 c8                	mov    %ecx,%eax
  200902:	f7 ea                	imul   %edx
  200904:	c1 fa 02             	sar    $0x2,%edx
  200907:	89 c8                	mov    %ecx,%eax
  200909:	c1 f8 1f             	sar    $0x1f,%eax
  20090c:	29 c2                	sub    %eax,%edx
  20090e:	89 d0                	mov    %edx,%eax
  200910:	c1 e0 02             	shl    $0x2,%eax
  200913:	01 d0                	add    %edx,%eax
  200915:	01 c0                	add    %eax,%eax
  200917:	29 c1                	sub    %eax,%ecx
  200919:	89 ca                	mov    %ecx,%edx
  20091b:	89 d0                	mov    %edx,%eax
  20091d:	8d 48 30             	lea    0x30(%eax),%ecx
  200920:	8b 45 fc             	mov    -0x4(%ebp),%eax
  200923:	8d 50 01             	lea    0x1(%eax),%edx
  200926:	89 55 fc             	mov    %edx,-0x4(%ebp)
  200929:	8b 55 0c             	mov    0xc(%ebp),%edx
  20092c:	01 d0                	add    %edx,%eax
  20092e:	89 ca                	mov    %ecx,%edx
  200930:	88 10                	mov    %dl,(%eax)
  200932:	8b 4d 08             	mov    0x8(%ebp),%ecx
  200935:	ba 67 66 66 66       	mov    $0x66666667,%edx
  20093a:	89 c8                	mov    %ecx,%eax
  20093c:	f7 ea                	imul   %edx
  20093e:	89 d0                	mov    %edx,%eax
  200940:	c1 f8 02             	sar    $0x2,%eax
  200943:	c1 f9 1f             	sar    $0x1f,%ecx
  200946:	89 ca                	mov    %ecx,%edx
  200948:	29 d0                	sub    %edx,%eax
  20094a:	89 45 08             	mov    %eax,0x8(%ebp)
  20094d:	83 7d 08 00          	cmpl   $0x0,0x8(%ebp)
  200951:	7f a5                	jg     2008f8 <itoa+0x56>
  200953:	83 7d f8 00          	cmpl   $0x0,-0x8(%ebp)
  200957:	74 11                	je     20096a <itoa+0xc8>
  200959:	8b 45 fc             	mov    -0x4(%ebp),%eax
  20095c:	8d 50 01             	lea    0x1(%eax),%edx
  20095f:	89 55 fc             	mov    %edx,-0x4(%ebp)
  200962:	8b 55 0c             	mov    0xc(%ebp),%edx
  200965:	01 d0                	add    %edx,%eax
  200967:	c6 00 2d             	movb   $0x2d,(%eax)
  20096a:	8b 55 0c             	mov    0xc(%ebp),%edx
  20096d:	8b 45 fc             	mov    -0x4(%ebp),%eax
  200970:	01 d0                	add    %edx,%eax
  200972:	c6 00 00             	movb   $0x0,(%eax)
  200975:	8b 45 fc             	mov    -0x4(%ebp),%eax
  200978:	83 e8 01             	sub    $0x1,%eax
  20097b:	89 45 f0             	mov    %eax,-0x10(%ebp)
  20097e:	eb 39                	jmp    2009b9 <itoa+0x117>
  200980:	8b 55 0c             	mov    0xc(%ebp),%edx
  200983:	8b 45 f4             	mov    -0xc(%ebp),%eax
  200986:	01 d0                	add    %edx,%eax
  200988:	0f b6 00             	movzbl (%eax),%eax
  20098b:	88 45 ef             	mov    %al,-0x11(%ebp)
  20098e:	8b 55 0c             	mov    0xc(%ebp),%edx
  200991:	8b 45 f0             	mov    -0x10(%ebp),%eax
  200994:	01 d0                	add    %edx,%eax
  200996:	8b 4d 0c             	mov    0xc(%ebp),%ecx
  200999:	8b 55 f4             	mov    -0xc(%ebp),%edx
  20099c:	01 ca                	add    %ecx,%edx
  20099e:	0f b6 00             	movzbl (%eax),%eax
  2009a1:	88 02                	mov    %al,(%edx)
  2009a3:	8b 55 0c             	mov    0xc(%ebp),%edx
  2009a6:	8b 45 f0             	mov    -0x10(%ebp),%eax
  2009a9:	01 c2                	add    %eax,%edx
  2009ab:	0f b6 45 ef          	movzbl -0x11(%ebp),%eax
  2009af:	88 02                	mov    %al,(%edx)
  2009b1:	83 45 f4 01          	addl   $0x1,-0xc(%ebp)
  2009b5:	83 6d f0 01          	subl   $0x1,-0x10(%ebp)
  2009b9:	8b 45 f4             	mov    -0xc(%ebp),%eax
  2009bc:	3b 45 f0             	cmp    -0x10(%ebp),%eax
  2009bf:	72 bf                	jb     200980 <itoa+0xde>
  2009c1:	8b 45 fc             	mov    -0x4(%ebp),%eax
  2009c4:	c9                   	leave
  2009c5:	c3                   	ret

002009c6 <uitoa>:
  2009c6:	55                   	push   %ebp
  2009c7:	89 e5                	mov    %esp,%ebp
  2009c9:	83 ec 10             	sub    $0x10,%esp
  2009cc:	c7 45 fc 00 00 00 00 	movl   $0x0,-0x4(%ebp)
  2009d3:	83 7d 08 00          	cmpl   $0x0,0x8(%ebp)
  2009d7:	75 24                	jne    2009fd <uitoa+0x37>
  2009d9:	8b 45 fc             	mov    -0x4(%ebp),%eax
  2009dc:	8d 50 01             	lea    0x1(%eax),%edx
  2009df:	89 55 fc             	mov    %edx,-0x4(%ebp)
  2009e2:	8b 55 0c             	mov    0xc(%ebp),%edx
  2009e5:	01 d0                	add    %edx,%eax
  2009e7:	c6 00 30             	movb   $0x30,(%eax)
  2009ea:	8b 55 0c             	mov    0xc(%ebp),%edx
  2009ed:	8b 45 fc             	mov    -0x4(%ebp),%eax
  2009f0:	01 d0                	add    %edx,%eax
  2009f2:	c6 00 00             	movb   $0x0,(%eax)
  2009f5:	8b 45 fc             	mov    -0x4(%ebp),%eax
  2009f8:	e9 ad 00 00 00       	jmp    200aaa <uitoa+0xe4>
  2009fd:	8b 45 fc             	mov    -0x4(%ebp),%eax
  200a00:	89 45 f8             	mov    %eax,-0x8(%ebp)
  200a03:	eb 45                	jmp    200a4a <uitoa+0x84>
  200a05:	8b 4d 08             	mov    0x8(%ebp),%ecx
  200a08:	ba cd cc cc cc       	mov    $0xcccccccd,%edx
  200a0d:	89 c8                	mov    %ecx,%eax
  200a0f:	f7 e2                	mul    %edx
  200a11:	c1 ea 03             	shr    $0x3,%edx
  200a14:	89 d0                	mov    %edx,%eax
  200a16:	c1 e0 02             	shl    $0x2,%eax
  200a19:	01 d0                	add    %edx,%eax
  200a1b:	01 c0                	add    %eax,%eax
  200a1d:	29 c1                	sub    %eax,%ecx
  200a1f:	89 ca                	mov    %ecx,%edx
  200a21:	89 d0                	mov    %edx,%eax
  200a23:	8d 48 30             	lea    0x30(%eax),%ecx
  200a26:	8b 45 fc             	mov    -0x4(%ebp),%eax
  200a29:	8d 50 01             	lea    0x1(%eax),%edx
  200a2c:	89 55 fc             	mov    %edx,-0x4(%ebp)
  200a2f:	8b 55 0c             	mov    0xc(%ebp),%edx
  200a32:	01 d0                	add    %edx,%eax
  200a34:	89 ca                	mov    %ecx,%edx
  200a36:	88 10                	mov    %dl,(%eax)
  200a38:	8b 45 08             	mov    0x8(%ebp),%eax
  200a3b:	ba cd cc cc cc       	mov    $0xcccccccd,%edx
  200a40:	f7 e2                	mul    %edx
  200a42:	89 d0                	mov    %edx,%eax
  200a44:	c1 e8 03             	shr    $0x3,%eax
  200a47:	89 45 08             	mov    %eax,0x8(%ebp)
  200a4a:	83 7d 08 00          	cmpl   $0x0,0x8(%ebp)
  200a4e:	75 b5                	jne    200a05 <uitoa+0x3f>
  200a50:	8b 55 0c             	mov    0xc(%ebp),%edx
  200a53:	8b 45 fc             	mov    -0x4(%ebp),%eax
  200a56:	01 d0                	add    %edx,%eax
  200a58:	c6 00 00             	movb   $0x0,(%eax)
  200a5b:	8b 45 fc             	mov    -0x4(%ebp),%eax
  200a5e:	83 e8 01             	sub    $0x1,%eax
  200a61:	89 45 f4             	mov    %eax,-0xc(%ebp)
  200a64:	eb 39                	jmp    200a9f <uitoa+0xd9>
  200a66:	8b 55 0c             	mov    0xc(%ebp),%edx
  200a69:	8b 45 f8             	mov    -0x8(%ebp),%eax
  200a6c:	01 d0                	add    %edx,%eax
  200a6e:	0f b6 00             	movzbl (%eax),%eax
  200a71:	88 45 f3             	mov    %al,-0xd(%ebp)
  200a74:	8b 55 0c             	mov    0xc(%ebp),%edx
  200a77:	8b 45 f4             	mov    -0xc(%ebp),%eax
  200a7a:	01 d0                	add    %edx,%eax
  200a7c:	8b 4d 0c             	mov    0xc(%ebp),%ecx
  200a7f:	8b 55 f8             	mov    -0x8(%ebp),%edx
  200a82:	01 ca                	add    %ecx,%edx
  200a84:	0f b6 00             	movzbl (%eax),%eax
  200a87:	88 02                	mov    %al,(%edx)
  200a89:	8b 55 0c             	mov    0xc(%ebp),%edx
  200a8c:	8b 45 f4             	mov    -0xc(%ebp),%eax
  200a8f:	01 c2                	add    %eax,%edx
  200a91:	0f b6 45 f3          	movzbl -0xd(%ebp),%eax
  200a95:	88 02                	mov    %al,(%edx)
  200a97:	83 45 f8 01          	addl   $0x1,-0x8(%ebp)
  200a9b:	83 6d f4 01          	subl   $0x1,-0xc(%ebp)
  200a9f:	8b 45 f8             	mov    -0x8(%ebp),%eax
  200aa2:	3b 45 f4             	cmp    -0xc(%ebp),%eax
  200aa5:	72 bf                	jb     200a66 <uitoa+0xa0>
  200aa7:	8b 45 fc             	mov    -0x4(%ebp),%eax
  200aaa:	c9                   	leave
  200aab:	c3                   	ret

00200aac <ftoa>:
  200aac:	55                   	push   %ebp
  200aad:	89 e5                	mov    %esp,%ebp
  200aaf:	83 ec 30             	sub    $0x30,%esp
  200ab2:	c7 45 fc 00 00 00 00 	movl   $0x0,-0x4(%ebp)
  200ab9:	d9 45 08             	flds   0x8(%ebp)
  200abc:	d9 ee                	fldz
  200abe:	df f1                	fcomip %st(1),%st
  200ac0:	dd d8                	fstp   %st(0)
  200ac2:	76 19                	jbe    200add <ftoa+0x31>
  200ac4:	8b 45 fc             	mov    -0x4(%ebp),%eax
  200ac7:	8d 50 01             	lea    0x1(%eax),%edx
  200aca:	89 55 fc             	mov    %edx,-0x4(%ebp)
  200acd:	8b 55 0c             	mov    0xc(%ebp),%edx
  200ad0:	01 d0                	add    %edx,%eax
  200ad2:	c6 00 2d             	movb   $0x2d,(%eax)
  200ad5:	d9 45 08             	flds   0x8(%ebp)
  200ad8:	d9 e0                	fchs
  200ada:	d9 5d 08             	fstps  0x8(%ebp)
  200add:	d9 45 08             	flds   0x8(%ebp)
  200ae0:	d9 7d de             	fnstcw -0x22(%ebp)
  200ae3:	0f b7 45 de          	movzwl -0x22(%ebp),%eax
  200ae7:	80 cc 0c             	or     $0xc,%ah
  200aea:	66 89 45 dc          	mov    %ax,-0x24(%ebp)
  200aee:	d9 6d dc             	fldcw  -0x24(%ebp)
  200af1:	df 7d d0             	fistpll -0x30(%ebp)
  200af4:	d9 6d de             	fldcw  -0x22(%ebp)
  200af7:	8b 45 d0             	mov    -0x30(%ebp),%eax
  200afa:	89 45 f0             	mov    %eax,-0x10(%ebp)
  200afd:	8b 45 f0             	mov    -0x10(%ebp),%eax
  200b00:	ba 00 00 00 00       	mov    $0x0,%edx
  200b05:	89 45 d0             	mov    %eax,-0x30(%ebp)
  200b08:	89 55 d4             	mov    %edx,-0x2c(%ebp)
  200b0b:	df 6d d0             	fildll -0x30(%ebp)
  200b0e:	d9 45 08             	flds   0x8(%ebp)
  200b11:	de e1                	fsubp  %st,%st(1)
  200b13:	d9 5d f8             	fstps  -0x8(%ebp)
  200b16:	8b 55 0c             	mov    0xc(%ebp),%edx
  200b19:	8b 45 fc             	mov    -0x4(%ebp),%eax
  200b1c:	01 d0                	add    %edx,%eax
  200b1e:	50                   	push   %eax
  200b1f:	ff 75 f0             	push   -0x10(%ebp)
  200b22:	e8 9f fe ff ff       	call   2009c6 <uitoa>
  200b27:	83 c4 08             	add    $0x8,%esp
  200b2a:	01 45 fc             	add    %eax,-0x4(%ebp)
  200b2d:	83 7d 10 00          	cmpl   $0x0,0x10(%ebp)
  200b31:	75 13                	jne    200b46 <ftoa+0x9a>
  200b33:	8b 55 0c             	mov    0xc(%ebp),%edx
  200b36:	8b 45 fc             	mov    -0x4(%ebp),%eax
  200b39:	01 d0                	add    %edx,%eax
  200b3b:	c6 00 00             	movb   $0x0,(%eax)
  200b3e:	8b 45 fc             	mov    -0x4(%ebp),%eax
  200b41:	e9 93 00 00 00       	jmp    200bd9 <ftoa+0x12d>
  200b46:	8b 45 fc             	mov    -0x4(%ebp),%eax
  200b49:	8d 50 01             	lea    0x1(%eax),%edx
  200b4c:	89 55 fc             	mov    %edx,-0x4(%ebp)
  200b4f:	8b 55 0c             	mov    0xc(%ebp),%edx
  200b52:	01 d0                	add    %edx,%eax
  200b54:	c6 00 2e             	movb   $0x2e,(%eax)
  200b57:	c7 45 f4 00 00 00 00 	movl   $0x0,-0xc(%ebp)
  200b5e:	eb 63                	jmp    200bc3 <ftoa+0x117>
  200b60:	d9 45 f8             	flds   -0x8(%ebp)
  200b63:	d9 05 88 55 20 00    	flds   0x205588
  200b69:	de c9                	fmulp  %st,%st(1)
  200b6b:	d9 5d f8             	fstps  -0x8(%ebp)
  200b6e:	d9 45 f8             	flds   -0x8(%ebp)
  200b71:	d9 7d de             	fnstcw -0x22(%ebp)
  200b74:	0f b7 45 de          	movzwl -0x22(%ebp),%eax
  200b78:	80 cc 0c             	or     $0xc,%ah
  200b7b:	66 89 45 dc          	mov    %ax,-0x24(%ebp)
  200b7f:	d9 6d dc             	fldcw  -0x24(%ebp)
  200b82:	df 7d d0             	fistpll -0x30(%ebp)
  200b85:	d9 6d de             	fldcw  -0x22(%ebp)
  200b88:	8b 45 d0             	mov    -0x30(%ebp),%eax
  200b8b:	89 45 ec             	mov    %eax,-0x14(%ebp)
  200b8e:	8b 45 ec             	mov    -0x14(%ebp),%eax
  200b91:	8d 48 30             	lea    0x30(%eax),%ecx
  200b94:	8b 45 fc             	mov    -0x4(%ebp),%eax
  200b97:	8d 50 01             	lea    0x1(%eax),%edx
  200b9a:	89 55 fc             	mov    %edx,-0x4(%ebp)
  200b9d:	8b 55 0c             	mov    0xc(%ebp),%edx
  200ba0:	01 d0                	add    %edx,%eax
  200ba2:	89 ca                	mov    %ecx,%edx
  200ba4:	88 10                	mov    %dl,(%eax)
  200ba6:	8b 45 ec             	mov    -0x14(%ebp),%eax
  200ba9:	ba 00 00 00 00       	mov    $0x0,%edx
  200bae:	89 45 d0             	mov    %eax,-0x30(%ebp)
  200bb1:	89 55 d4             	mov    %edx,-0x2c(%ebp)
  200bb4:	df 6d d0             	fildll -0x30(%ebp)
  200bb7:	d9 45 f8             	flds   -0x8(%ebp)
  200bba:	de e1                	fsubp  %st,%st(1)
  200bbc:	d9 5d f8             	fstps  -0x8(%ebp)
  200bbf:	83 45 f4 01          	addl   $0x1,-0xc(%ebp)
  200bc3:	8b 45 f4             	mov    -0xc(%ebp),%eax
  200bc6:	3b 45 10             	cmp    0x10(%ebp),%eax
  200bc9:	72 95                	jb     200b60 <ftoa+0xb4>
  200bcb:	8b 55 0c             	mov    0xc(%ebp),%edx
  200bce:	8b 45 fc             	mov    -0x4(%ebp),%eax
  200bd1:	01 d0                	add    %edx,%eax
  200bd3:	c6 00 00             	movb   $0x0,(%eax)
  200bd6:	8b 45 fc             	mov    -0x4(%ebp),%eax
  200bd9:	c9                   	leave
  200bda:	c3                   	ret

00200bdb <is_digit>:
  200bdb:	55                   	push   %ebp
  200bdc:	89 e5                	mov    %esp,%ebp
  200bde:	83 ec 04             	sub    $0x4,%esp
  200be1:	8b 45 08             	mov    0x8(%ebp),%eax
  200be4:	88 45 fc             	mov    %al,-0x4(%ebp)
  200be7:	80 7d fc 2f          	cmpb   $0x2f,-0x4(%ebp)
  200beb:	7e 0d                	jle    200bfa <is_digit+0x1f>
  200bed:	80 7d fc 39          	cmpb   $0x39,-0x4(%ebp)
  200bf1:	7f 07                	jg     200bfa <is_digit+0x1f>
  200bf3:	b8 01 00 00 00       	mov    $0x1,%eax
  200bf8:	eb 05                	jmp    200bff <is_digit+0x24>
  200bfa:	b8 00 00 00 00       	mov    $0x0,%eax
  200bff:	c9                   	leave
  200c00:	c3                   	ret

00200c01 <char_to_uint>:
  200c01:	55                   	push   %ebp
  200c02:	89 e5                	mov    %esp,%ebp
  200c04:	83 ec 04             	sub    $0x4,%esp
  200c07:	8b 45 08             	mov    0x8(%ebp),%eax
  200c0a:	88 45 fc             	mov    %al,-0x4(%ebp)
  200c0d:	0f be 45 fc          	movsbl -0x4(%ebp),%eax
  200c11:	50                   	push   %eax
  200c12:	e8 c4 ff ff ff       	call   200bdb <is_digit>
  200c17:	83 c4 04             	add    $0x4,%esp
  200c1a:	85 c0                	test   %eax,%eax
  200c1c:	75 07                	jne    200c25 <char_to_uint+0x24>
  200c1e:	b8 0b 00 00 00       	mov    $0xb,%eax
  200c23:	eb 07                	jmp    200c2c <char_to_uint+0x2b>
  200c25:	0f b6 45 fc          	movzbl -0x4(%ebp),%eax
  200c29:	83 e8 30             	sub    $0x30,%eax
  200c2c:	c9                   	leave
  200c2d:	c3                   	ret

00200c2e <string_to_uint>:
  200c2e:	55                   	push   %ebp
  200c2f:	89 e5                	mov    %esp,%ebp
  200c31:	83 ec 10             	sub    $0x10,%esp
  200c34:	c7 45 fc 01 00 00 00 	movl   $0x1,-0x4(%ebp)
  200c3b:	c7 45 f8 00 00 00 00 	movl   $0x0,-0x8(%ebp)
  200c42:	ff 75 08             	push   0x8(%ebp)
  200c45:	e8 31 fc ff ff       	call   20087b <strlen>
  200c4a:	83 c4 04             	add    $0x4,%esp
  200c4d:	88 45 f7             	mov    %al,-0x9(%ebp)
  200c50:	0f b6 45 f7          	movzbl -0x9(%ebp),%eax
  200c54:	83 e8 01             	sub    $0x1,%eax
  200c57:	01 45 08             	add    %eax,0x8(%ebp)
  200c5a:	eb 40                	jmp    200c9c <string_to_uint+0x6e>
  200c5c:	8b 45 08             	mov    0x8(%ebp),%eax
  200c5f:	0f b6 00             	movzbl (%eax),%eax
  200c62:	0f be c0             	movsbl %al,%eax
  200c65:	50                   	push   %eax
  200c66:	e8 96 ff ff ff       	call   200c01 <char_to_uint>
  200c6b:	83 c4 04             	add    $0x4,%esp
  200c6e:	88 45 f6             	mov    %al,-0xa(%ebp)
  200c71:	80 7d f6 0b          	cmpb   $0xb,-0xa(%ebp)
  200c75:	75 07                	jne    200c7e <string_to_uint+0x50>
  200c77:	b8 ff ff ff ff       	mov    $0xffffffff,%eax
  200c7c:	eb 2b                	jmp    200ca9 <string_to_uint+0x7b>
  200c7e:	0f b6 45 f6          	movzbl -0xa(%ebp),%eax
  200c82:	0f af 45 fc          	imul   -0x4(%ebp),%eax
  200c86:	01 45 f8             	add    %eax,-0x8(%ebp)
  200c89:	8b 55 fc             	mov    -0x4(%ebp),%edx
  200c8c:	89 d0                	mov    %edx,%eax
  200c8e:	c1 e0 02             	shl    $0x2,%eax
  200c91:	01 d0                	add    %edx,%eax
  200c93:	01 c0                	add    %eax,%eax
  200c95:	89 45 fc             	mov    %eax,-0x4(%ebp)
  200c98:	83 6d 08 01          	subl   $0x1,0x8(%ebp)
  200c9c:	8b 45 08             	mov    0x8(%ebp),%eax
  200c9f:	0f b6 00             	movzbl (%eax),%eax
  200ca2:	84 c0                	test   %al,%al
  200ca4:	75 b6                	jne    200c5c <string_to_uint+0x2e>
  200ca6:	8b 45 f8             	mov    -0x8(%ebp),%eax
  200ca9:	c9                   	leave
  200caa:	c3                   	ret

00200cab <uint_to_hex>:
  200cab:	55                   	push   %ebp
  200cac:	89 e5                	mov    %esp,%ebp
  200cae:	83 ec 20             	sub    $0x20,%esp
  200cb1:	83 7d 10 00          	cmpl   $0x0,0x10(%ebp)
  200cb5:	74 09                	je     200cc0 <uint_to_hex+0x15>
  200cb7:	c7 45 fc 64 55 20 00 	movl   $0x205564,-0x4(%ebp)
  200cbe:	eb 07                	jmp    200cc7 <uint_to_hex+0x1c>
  200cc0:	c7 45 fc 75 55 20 00 	movl   $0x205575,-0x4(%ebp)
  200cc7:	83 7d 08 00          	cmpl   $0x0,0x8(%ebp)
  200ccb:	75 19                	jne    200ce6 <uint_to_hex+0x3b>
  200ccd:	8b 45 0c             	mov    0xc(%ebp),%eax
  200cd0:	c6 00 30             	movb   $0x30,(%eax)
  200cd3:	8b 45 0c             	mov    0xc(%ebp),%eax
  200cd6:	83 c0 01             	add    $0x1,%eax
  200cd9:	c6 00 00             	movb   $0x0,(%eax)
  200cdc:	b8 01 00 00 00       	mov    $0x1,%eax
  200ce1:	e9 9c 00 00 00       	jmp    200d82 <uint_to_hex+0xd7>
  200ce6:	c6 45 f2 00          	movb   $0x0,-0xe(%ebp)
  200cea:	c7 45 f8 07 00 00 00 	movl   $0x7,-0x8(%ebp)
  200cf1:	eb 27                	jmp    200d1a <uint_to_hex+0x6f>
  200cf3:	8b 45 08             	mov    0x8(%ebp),%eax
  200cf6:	83 e0 0f             	and    $0xf,%eax
  200cf9:	88 45 f3             	mov    %al,-0xd(%ebp)
  200cfc:	0f b6 55 f3          	movzbl -0xd(%ebp),%edx
  200d00:	8b 45 fc             	mov    -0x4(%ebp),%eax
  200d03:	01 d0                	add    %edx,%eax
  200d05:	0f b6 00             	movzbl (%eax),%eax
  200d08:	8d 4d ea             	lea    -0x16(%ebp),%ecx
  200d0b:	8b 55 f8             	mov    -0x8(%ebp),%edx
  200d0e:	01 ca                	add    %ecx,%edx
  200d10:	88 02                	mov    %al,(%edx)
  200d12:	c1 6d 08 04          	shrl   $0x4,0x8(%ebp)
  200d16:	83 6d f8 01          	subl   $0x1,-0x8(%ebp)
  200d1a:	83 7d f8 00          	cmpl   $0x0,-0x8(%ebp)
  200d1e:	79 d3                	jns    200cf3 <uint_to_hex+0x48>
  200d20:	c7 45 f8 00 00 00 00 	movl   $0x0,-0x8(%ebp)
  200d27:	eb 04                	jmp    200d2d <uint_to_hex+0x82>
  200d29:	83 45 f8 01          	addl   $0x1,-0x8(%ebp)
  200d2d:	8d 55 ea             	lea    -0x16(%ebp),%edx
  200d30:	8b 45 f8             	mov    -0x8(%ebp),%eax
  200d33:	01 d0                	add    %edx,%eax
  200d35:	0f b6 00             	movzbl (%eax),%eax
  200d38:	3c 30                	cmp    $0x30,%al
  200d3a:	74 ed                	je     200d29 <uint_to_hex+0x7e>
  200d3c:	c7 45 f4 00 00 00 00 	movl   $0x0,-0xc(%ebp)
  200d43:	eb 20                	jmp    200d65 <uint_to_hex+0xba>
  200d45:	8b 45 f8             	mov    -0x8(%ebp),%eax
  200d48:	8d 50 01             	lea    0x1(%eax),%edx
  200d4b:	89 55 f8             	mov    %edx,-0x8(%ebp)
  200d4e:	8b 55 f4             	mov    -0xc(%ebp),%edx
  200d51:	8d 4a 01             	lea    0x1(%edx),%ecx
  200d54:	89 4d f4             	mov    %ecx,-0xc(%ebp)
  200d57:	89 d1                	mov    %edx,%ecx
  200d59:	8b 55 0c             	mov    0xc(%ebp),%edx
  200d5c:	01 ca                	add    %ecx,%edx
  200d5e:	0f b6 44 05 ea       	movzbl -0x16(%ebp,%eax,1),%eax
  200d63:	88 02                	mov    %al,(%edx)
  200d65:	8d 55 ea             	lea    -0x16(%ebp),%edx
  200d68:	8b 45 f8             	mov    -0x8(%ebp),%eax
  200d6b:	01 d0                	add    %edx,%eax
  200d6d:	0f b6 00             	movzbl (%eax),%eax
  200d70:	84 c0                	test   %al,%al
  200d72:	75 d1                	jne    200d45 <uint_to_hex+0x9a>
  200d74:	8b 55 f4             	mov    -0xc(%ebp),%edx
  200d77:	8b 45 0c             	mov    0xc(%ebp),%eax
  200d7a:	01 d0                	add    %edx,%eax
  200d7c:	c6 00 00             	movb   $0x0,(%eax)
  200d7f:	8b 45 f4             	mov    -0xc(%ebp),%eax
  200d82:	c9                   	leave
  200d83:	c3                   	ret

00200d84 <ptr_to_hex>:
  200d84:	55                   	push   %ebp
  200d85:	89 e5                	mov    %esp,%ebp
  200d87:	83 ec 20             	sub    $0x20,%esp
  200d8a:	83 7d 10 00          	cmpl   $0x0,0x10(%ebp)
  200d8e:	74 09                	je     200d99 <ptr_to_hex+0x15>
  200d90:	c7 45 fc 64 55 20 00 	movl   $0x205564,-0x4(%ebp)
  200d97:	eb 07                	jmp    200da0 <ptr_to_hex+0x1c>
  200d99:	c7 45 fc 75 55 20 00 	movl   $0x205575,-0x4(%ebp)
  200da0:	8b 45 08             	mov    0x8(%ebp),%eax
  200da3:	89 45 f8             	mov    %eax,-0x8(%ebp)
  200da6:	83 7d f8 00          	cmpl   $0x0,-0x8(%ebp)
  200daa:	75 19                	jne    200dc5 <ptr_to_hex+0x41>
  200dac:	8b 45 0c             	mov    0xc(%ebp),%eax
  200daf:	c6 00 30             	movb   $0x30,(%eax)
  200db2:	8b 45 0c             	mov    0xc(%ebp),%eax
  200db5:	83 c0 01             	add    $0x1,%eax
  200db8:	c6 00 00             	movb   $0x0,(%eax)
  200dbb:	b8 01 00 00 00       	mov    $0x1,%eax
  200dc0:	e9 97 00 00 00       	jmp    200e5c <ptr_to_hex+0xd8>
  200dc5:	c6 45 ef 00          	movb   $0x0,-0x11(%ebp)
  200dc9:	c7 45 f4 07 00 00 00 	movl   $0x7,-0xc(%ebp)
  200dd0:	eb 22                	jmp    200df4 <ptr_to_hex+0x70>
  200dd2:	8b 45 f8             	mov    -0x8(%ebp),%eax
  200dd5:	83 e0 0f             	and    $0xf,%eax
  200dd8:	89 c2                	mov    %eax,%edx
  200dda:	8b 45 fc             	mov    -0x4(%ebp),%eax
  200ddd:	01 d0                	add    %edx,%eax
  200ddf:	0f b6 00             	movzbl (%eax),%eax
  200de2:	8d 4d e7             	lea    -0x19(%ebp),%ecx
  200de5:	8b 55 f4             	mov    -0xc(%ebp),%edx
  200de8:	01 ca                	add    %ecx,%edx
  200dea:	88 02                	mov    %al,(%edx)
  200dec:	c1 6d f8 04          	shrl   $0x4,-0x8(%ebp)
  200df0:	83 6d f4 01          	subl   $0x1,-0xc(%ebp)
  200df4:	83 7d f4 00          	cmpl   $0x0,-0xc(%ebp)
  200df8:	79 d8                	jns    200dd2 <ptr_to_hex+0x4e>
  200dfa:	c7 45 f4 00 00 00 00 	movl   $0x0,-0xc(%ebp)
  200e01:	eb 04                	jmp    200e07 <ptr_to_hex+0x83>
  200e03:	83 45 f4 01          	addl   $0x1,-0xc(%ebp)
  200e07:	8d 55 e7             	lea    -0x19(%ebp),%edx
  200e0a:	8b 45 f4             	mov    -0xc(%ebp),%eax
  200e0d:	01 d0                	add    %edx,%eax
  200e0f:	0f b6 00             	movzbl (%eax),%eax
  200e12:	3c 30                	cmp    $0x30,%al
  200e14:	74 ed                	je     200e03 <ptr_to_hex+0x7f>
  200e16:	c7 45 f0 00 00 00 00 	movl   $0x0,-0x10(%ebp)
  200e1d:	eb 20                	jmp    200e3f <ptr_to_hex+0xbb>
  200e1f:	8b 45 f4             	mov    -0xc(%ebp),%eax
  200e22:	8d 50 01             	lea    0x1(%eax),%edx
  200e25:	89 55 f4             	mov    %edx,-0xc(%ebp)
  200e28:	8b 55 f0             	mov    -0x10(%ebp),%edx
  200e2b:	8d 4a 01             	lea    0x1(%edx),%ecx
  200e2e:	89 4d f0             	mov    %ecx,-0x10(%ebp)
  200e31:	89 d1                	mov    %edx,%ecx
  200e33:	8b 55 0c             	mov    0xc(%ebp),%edx
  200e36:	01 ca                	add    %ecx,%edx
  200e38:	0f b6 44 05 e7       	movzbl -0x19(%ebp,%eax,1),%eax
  200e3d:	88 02                	mov    %al,(%edx)
  200e3f:	8d 55 e7             	lea    -0x19(%ebp),%edx
  200e42:	8b 45 f4             	mov    -0xc(%ebp),%eax
  200e45:	01 d0                	add    %edx,%eax
  200e47:	0f b6 00             	movzbl (%eax),%eax
  200e4a:	84 c0                	test   %al,%al
  200e4c:	75 d1                	jne    200e1f <ptr_to_hex+0x9b>
  200e4e:	8b 55 f0             	mov    -0x10(%ebp),%edx
  200e51:	8b 45 0c             	mov    0xc(%ebp),%eax
  200e54:	01 d0                	add    %edx,%eax
  200e56:	c6 00 00             	movb   $0x0,(%eax)
  200e59:	8b 45 f0             	mov    -0x10(%ebp),%eax
  200e5c:	c9                   	leave
  200e5d:	c3                   	ret

00200e5e <_abort>:
  200e5e:	55                   	push   %ebp
  200e5f:	89 e5                	mov    %esp,%ebp
  200e61:	83 ec 08             	sub    $0x8,%esp
  200e64:	83 ec 0c             	sub    $0xc,%esp
  200e67:	68 8c 55 20 00       	push   $0x20558c
  200e6c:	e8 fe 0a 00 00       	call   20196f <terminal_writestring>
  200e71:	83 c4 10             	add    $0x10,%esp
  200e74:	fa                   	cli
  200e75:	f4                   	hlt
  200e76:	eb fc                	jmp    200e74 <_abort+0x16>

00200e78 <_abort_msg>:
  200e78:	55                   	push   %ebp
  200e79:	89 e5                	mov    %esp,%ebp
  200e7b:	83 ec 08             	sub    $0x8,%esp
  200e7e:	83 ec 0c             	sub    $0xc,%esp
  200e81:	ff 75 0c             	push   0xc(%ebp)
  200e84:	ff 75 10             	push   0x10(%ebp)
  200e87:	ff 75 08             	push   0x8(%ebp)
  200e8a:	68 95 55 20 00       	push   $0x205595
  200e8f:	6a 04                	push   $0x4
  200e91:	e8 3d 17 00 00       	call   2025d3 <kprintf_argc>
  200e96:	83 c4 20             	add    $0x20,%esp
  200e99:	e8 c0 ff ff ff       	call   200e5e <_abort>

00200e9e <assert_handler>:
  200e9e:	55                   	push   %ebp
  200e9f:	89 e5                	mov    %esp,%ebp
  200ea1:	83 ec 18             	sub    $0x18,%esp
  200ea4:	8b 45 08             	mov    0x8(%ebp),%eax
  200ea7:	88 45 f4             	mov    %al,-0xc(%ebp)
  200eaa:	0f b6 45 f4          	movzbl -0xc(%ebp),%eax
  200eae:	83 f0 01             	xor    $0x1,%eax
  200eb1:	84 c0                	test   %al,%al
  200eb3:	74 23                	je     200ed8 <assert_handler+0x3a>
  200eb5:	83 ec 08             	sub    $0x8,%esp
  200eb8:	68 ac 55 20 00       	push   $0x2055ac
  200ebd:	6a 01                	push   $0x1
  200ebf:	e8 0f 17 00 00       	call   2025d3 <kprintf_argc>
  200ec4:	83 c4 10             	add    $0x10,%esp
  200ec7:	83 ec 04             	sub    $0x4,%esp
  200eca:	ff 75 14             	push   0x14(%ebp)
  200ecd:	ff 75 10             	push   0x10(%ebp)
  200ed0:	ff 75 0c             	push   0xc(%ebp)
  200ed3:	e8 a0 ff ff ff       	call   200e78 <_abort_msg>
  200ed8:	90                   	nop
  200ed9:	c9                   	leave
  200eda:	c3                   	ret

00200edb <getSpacelessBitString>:
  200edb:	55                   	push   %ebp
  200edc:	89 e5                	mov    %esp,%ebp
  200ede:	83 ec 10             	sub    $0x10,%esp
  200ee1:	8b 45 0c             	mov    0xc(%ebp),%eax
  200ee4:	83 c0 20             	add    $0x20,%eax
  200ee7:	c6 00 00             	movb   $0x0,(%eax)
  200eea:	c6 45 ff 00          	movb   $0x0,-0x1(%ebp)
  200eee:	eb 38                	jmp    200f28 <getSpacelessBitString+0x4d>
  200ef0:	0f b6 45 ff          	movzbl -0x1(%ebp),%eax
  200ef4:	8b 55 08             	mov    0x8(%ebp),%edx
  200ef7:	89 c1                	mov    %eax,%ecx
  200ef9:	d3 ea                	shr    %cl,%edx
  200efb:	89 d0                	mov    %edx,%eax
  200efd:	83 e0 01             	and    $0x1,%eax
  200f00:	88 45 fe             	mov    %al,-0x2(%ebp)
  200f03:	0f b6 45 fe          	movzbl -0x2(%ebp),%eax
  200f07:	8d 48 30             	lea    0x30(%eax),%ecx
  200f0a:	0f b6 45 ff          	movzbl -0x1(%ebp),%eax
  200f0e:	ba 1f 00 00 00       	mov    $0x1f,%edx
  200f13:	29 c2                	sub    %eax,%edx
  200f15:	8b 45 0c             	mov    0xc(%ebp),%eax
  200f18:	01 d0                	add    %edx,%eax
  200f1a:	89 ca                	mov    %ecx,%edx
  200f1c:	88 10                	mov    %dl,(%eax)
  200f1e:	0f b6 45 ff          	movzbl -0x1(%ebp),%eax
  200f22:	83 c0 01             	add    $0x1,%eax
  200f25:	88 45 ff             	mov    %al,-0x1(%ebp)
  200f28:	80 7d ff 1f          	cmpb   $0x1f,-0x1(%ebp)
  200f2c:	76 c2                	jbe    200ef0 <getSpacelessBitString+0x15>
  200f2e:	8b 45 0c             	mov    0xc(%ebp),%eax
  200f31:	c9                   	leave
  200f32:	c3                   	ret

00200f33 <addSpacesEvery4bits>:
  200f33:	55                   	push   %ebp
  200f34:	89 e5                	mov    %esp,%ebp
  200f36:	83 ec 10             	sub    $0x10,%esp
  200f39:	c6 45 ff 00          	movb   $0x0,-0x1(%ebp)
  200f3d:	c6 45 fe 00          	movb   $0x0,-0x2(%ebp)
  200f41:	eb 61                	jmp    200fa4 <addSpacesEvery4bits+0x71>
  200f43:	0f b6 45 fe          	movzbl -0x2(%ebp),%eax
  200f47:	8d 48 01             	lea    0x1(%eax),%ecx
  200f4a:	ba 67 66 66 66       	mov    $0x66666667,%edx
  200f4f:	89 c8                	mov    %ecx,%eax
  200f51:	f7 ea                	imul   %edx
  200f53:	d1 fa                	sar    $1,%edx
  200f55:	89 c8                	mov    %ecx,%eax
  200f57:	c1 f8 1f             	sar    $0x1f,%eax
  200f5a:	29 c2                	sub    %eax,%edx
  200f5c:	89 d0                	mov    %edx,%eax
  200f5e:	c1 e0 02             	shl    $0x2,%eax
  200f61:	01 d0                	add    %edx,%eax
  200f63:	29 c1                	sub    %eax,%ecx
  200f65:	89 ca                	mov    %ecx,%edx
  200f67:	85 d2                	test   %edx,%edx
  200f69:	75 0e                	jne    200f79 <addSpacesEvery4bits+0x46>
  200f6b:	0f b6 55 fe          	movzbl -0x2(%ebp),%edx
  200f6f:	8b 45 0c             	mov    0xc(%ebp),%eax
  200f72:	01 d0                	add    %edx,%eax
  200f74:	c6 00 20             	movb   $0x20,(%eax)
  200f77:	eb 21                	jmp    200f9a <addSpacesEvery4bits+0x67>
  200f79:	0f b6 55 ff          	movzbl -0x1(%ebp),%edx
  200f7d:	8b 45 08             	mov    0x8(%ebp),%eax
  200f80:	01 d0                	add    %edx,%eax
  200f82:	0f b6 4d fe          	movzbl -0x2(%ebp),%ecx
  200f86:	8b 55 0c             	mov    0xc(%ebp),%edx
  200f89:	01 ca                	add    %ecx,%edx
  200f8b:	0f b6 00             	movzbl (%eax),%eax
  200f8e:	88 02                	mov    %al,(%edx)
  200f90:	0f b6 45 ff          	movzbl -0x1(%ebp),%eax
  200f94:	83 c0 01             	add    $0x1,%eax
  200f97:	88 45 ff             	mov    %al,-0x1(%ebp)
  200f9a:	0f b6 45 fe          	movzbl -0x2(%ebp),%eax
  200f9e:	83 c0 01             	add    $0x1,%eax
  200fa1:	88 45 fe             	mov    %al,-0x2(%ebp)
  200fa4:	80 7d fe 26          	cmpb   $0x26,-0x2(%ebp)
  200fa8:	76 99                	jbe    200f43 <addSpacesEvery4bits+0x10>
  200faa:	8b 45 0c             	mov    0xc(%ebp),%eax
  200fad:	83 c0 27             	add    $0x27,%eax
  200fb0:	c6 00 00             	movb   $0x0,(%eax)
  200fb3:	8b 45 0c             	mov    0xc(%ebp),%eax
  200fb6:	c9                   	leave
  200fb7:	c3                   	ret

00200fb8 <printBinary>:
  200fb8:	55                   	push   %ebp
  200fb9:	89 e5                	mov    %esp,%ebp
  200fbb:	83 ec 58             	sub    $0x58,%esp
  200fbe:	8d 45 d7             	lea    -0x29(%ebp),%eax
  200fc1:	50                   	push   %eax
  200fc2:	ff 75 08             	push   0x8(%ebp)
  200fc5:	e8 11 ff ff ff       	call   200edb <getSpacelessBitString>
  200fca:	83 c4 08             	add    $0x8,%esp
  200fcd:	8d 45 af             	lea    -0x51(%ebp),%eax
  200fd0:	50                   	push   %eax
  200fd1:	8d 45 d7             	lea    -0x29(%ebp),%eax
  200fd4:	50                   	push   %eax
  200fd5:	e8 59 ff ff ff       	call   200f33 <addSpacesEvery4bits>
  200fda:	83 c4 08             	add    $0x8,%esp
  200fdd:	83 ec 0c             	sub    $0xc,%esp
  200fe0:	ff 75 0c             	push   0xc(%ebp)
  200fe3:	e8 87 09 00 00       	call   20196f <terminal_writestring>
  200fe8:	83 c4 10             	add    $0x10,%esp
  200feb:	83 ec 0c             	sub    $0xc,%esp
  200fee:	68 be 55 20 00       	push   $0x2055be
  200ff3:	e8 77 09 00 00       	call   20196f <terminal_writestring>
  200ff8:	83 c4 10             	add    $0x10,%esp
  200ffb:	83 ec 0c             	sub    $0xc,%esp
  200ffe:	8d 45 af             	lea    -0x51(%ebp),%eax
  201001:	50                   	push   %eax
  201002:	e8 68 09 00 00       	call   20196f <terminal_writestring>
  201007:	83 c4 10             	add    $0x10,%esp
  20100a:	83 ec 0c             	sub    $0xc,%esp
  20100d:	68 c2 55 20 00       	push   $0x2055c2
  201012:	e8 58 09 00 00       	call   20196f <terminal_writestring>
  201017:	83 c4 10             	add    $0x10,%esp
  20101a:	83 ec 0c             	sub    $0xc,%esp
  20101d:	ff 75 08             	push   0x8(%ebp)
  201020:	e8 11 0c 00 00       	call   201c36 <print_hex_var>
  201025:	83 c4 10             	add    $0x10,%esp
  201028:	83 ec 0c             	sub    $0xc,%esp
  20102b:	68 c6 55 20 00       	push   $0x2055c6
  201030:	e8 3a 09 00 00       	call   20196f <terminal_writestring>
  201035:	83 c4 10             	add    $0x10,%esp
  201038:	90                   	nop
  201039:	c9                   	leave
  20103a:	c3                   	ret

0020103b <printBinarySize>:
  20103b:	55                   	push   %ebp
  20103c:	89 e5                	mov    %esp,%ebp
  20103e:	83 ec 58             	sub    $0x58,%esp
  201041:	8d 45 d6             	lea    -0x2a(%ebp),%eax
  201044:	50                   	push   %eax
  201045:	ff 75 08             	push   0x8(%ebp)
  201048:	e8 8e fe ff ff       	call   200edb <getSpacelessBitString>
  20104d:	83 c4 08             	add    $0x8,%esp
  201050:	8d 45 ae             	lea    -0x52(%ebp),%eax
  201053:	50                   	push   %eax
  201054:	8d 45 d6             	lea    -0x2a(%ebp),%eax
  201057:	50                   	push   %eax
  201058:	e8 d6 fe ff ff       	call   200f33 <addSpacesEvery4bits>
  20105d:	83 c4 08             	add    $0x8,%esp
  201060:	83 7d 10 1f          	cmpl   $0x1f,0x10(%ebp)
  201064:	76 06                	jbe    20106c <printBinarySize+0x31>
  201066:	c6 45 f7 00          	movb   $0x0,-0x9(%ebp)
  20106a:	eb 17                	jmp    201083 <printBinarySize+0x48>
  20106c:	8b 45 10             	mov    0x10(%ebp),%eax
  20106f:	c1 e8 02             	shr    $0x2,%eax
  201072:	89 c2                	mov    %eax,%edx
  201074:	8b 45 10             	mov    0x10(%ebp),%eax
  201077:	01 c2                	add    %eax,%edx
  201079:	b8 27 00 00 00       	mov    $0x27,%eax
  20107e:	29 d0                	sub    %edx,%eax
  201080:	88 45 f7             	mov    %al,-0x9(%ebp)
  201083:	83 ec 0c             	sub    $0xc,%esp
  201086:	ff 75 0c             	push   0xc(%ebp)
  201089:	e8 e1 08 00 00       	call   20196f <terminal_writestring>
  20108e:	83 c4 10             	add    $0x10,%esp
  201091:	83 ec 0c             	sub    $0xc,%esp
  201094:	68 be 55 20 00       	push   $0x2055be
  201099:	e8 d1 08 00 00       	call   20196f <terminal_writestring>
  20109e:	83 c4 10             	add    $0x10,%esp
  2010a1:	0f b6 45 f7          	movzbl -0x9(%ebp),%eax
  2010a5:	8d 55 ae             	lea    -0x52(%ebp),%edx
  2010a8:	01 d0                	add    %edx,%eax
  2010aa:	83 ec 0c             	sub    $0xc,%esp
  2010ad:	50                   	push   %eax
  2010ae:	e8 bc 08 00 00       	call   20196f <terminal_writestring>
  2010b3:	83 c4 10             	add    $0x10,%esp
  2010b6:	83 ec 0c             	sub    $0xc,%esp
  2010b9:	68 c2 55 20 00       	push   $0x2055c2
  2010be:	e8 ac 08 00 00       	call   20196f <terminal_writestring>
  2010c3:	83 c4 10             	add    $0x10,%esp
  2010c6:	83 ec 0c             	sub    $0xc,%esp
  2010c9:	ff 75 08             	push   0x8(%ebp)
  2010cc:	e8 65 0b 00 00       	call   201c36 <print_hex_var>
  2010d1:	83 c4 10             	add    $0x10,%esp
  2010d4:	90                   	nop
  2010d5:	c9                   	leave
  2010d6:	c3                   	ret

002010d7 <binary_size>:
  2010d7:	55                   	push   %ebp
  2010d8:	89 e5                	mov    %esp,%ebp
  2010da:	83 ec 10             	sub    $0x10,%esp
  2010dd:	83 7d 08 00          	cmpl   $0x0,0x8(%ebp)
  2010e1:	75 07                	jne    2010ea <binary_size+0x13>
  2010e3:	b8 01 00 00 00       	mov    $0x1,%eax
  2010e8:	eb 19                	jmp    201103 <binary_size+0x2c>
  2010ea:	c7 45 fc 00 00 00 00 	movl   $0x0,-0x4(%ebp)
  2010f1:	eb 07                	jmp    2010fa <binary_size+0x23>
  2010f3:	83 45 fc 01          	addl   $0x1,-0x4(%ebp)
  2010f7:	d1 6d 08             	shrl   $1,0x8(%ebp)
  2010fa:	83 7d 08 00          	cmpl   $0x0,0x8(%ebp)
  2010fe:	75 f3                	jne    2010f3 <binary_size+0x1c>
  201100:	8b 45 fc             	mov    -0x4(%ebp),%eax
  201103:	c9                   	leave
  201104:	c3                   	ret

00201105 <hexSize>:
  201105:	55                   	push   %ebp
  201106:	89 e5                	mov    %esp,%ebp
  201108:	ff 75 08             	push   0x8(%ebp)
  20110b:	e8 c7 ff ff ff       	call   2010d7 <binary_size>
  201110:	83 c4 04             	add    $0x4,%esp
  201113:	83 e0 03             	and    $0x3,%eax
  201116:	84 c0                	test   %al,%al
  201118:	74 13                	je     20112d <hexSize+0x28>
  20111a:	ff 75 08             	push   0x8(%ebp)
  20111d:	e8 b5 ff ff ff       	call   2010d7 <binary_size>
  201122:	83 c4 04             	add    $0x4,%esp
  201125:	c0 e8 02             	shr    $0x2,%al
  201128:	83 c0 01             	add    $0x1,%eax
  20112b:	eb 0e                	jmp    20113b <hexSize+0x36>
  20112d:	ff 75 08             	push   0x8(%ebp)
  201130:	e8 a2 ff ff ff       	call   2010d7 <binary_size>
  201135:	83 c4 04             	add    $0x4,%esp
  201138:	c0 e8 02             	shr    $0x2,%al
  20113b:	c9                   	leave
  20113c:	c3                   	ret

0020113d <max>:
  20113d:	55                   	push   %ebp
  20113e:	89 e5                	mov    %esp,%ebp
  201140:	83 ec 08             	sub    $0x8,%esp
  201143:	8b 55 08             	mov    0x8(%ebp),%edx
  201146:	8b 45 0c             	mov    0xc(%ebp),%eax
  201149:	88 55 fc             	mov    %dl,-0x4(%ebp)
  20114c:	88 45 f8             	mov    %al,-0x8(%ebp)
  20114f:	0f b6 45 fc          	movzbl -0x4(%ebp),%eax
  201153:	38 45 f8             	cmp    %al,-0x8(%ebp)
  201156:	73 06                	jae    20115e <max+0x21>
  201158:	0f b6 45 fc          	movzbl -0x4(%ebp),%eax
  20115c:	eb 04                	jmp    201162 <max+0x25>
  20115e:	0f b6 45 f8          	movzbl -0x8(%ebp),%eax
  201162:	c9                   	leave
  201163:	c3                   	ret

00201164 <print_binary_var_no_newline>:
  201164:	55                   	push   %ebp
  201165:	89 e5                	mov    %esp,%ebp
  201167:	83 ec 68             	sub    $0x68,%esp
  20116a:	8d 45 cf             	lea    -0x31(%ebp),%eax
  20116d:	50                   	push   %eax
  20116e:	ff 75 08             	push   0x8(%ebp)
  201171:	e8 65 fd ff ff       	call   200edb <getSpacelessBitString>
  201176:	83 c4 08             	add    $0x8,%esp
  201179:	8d 45 a7             	lea    -0x59(%ebp),%eax
  20117c:	50                   	push   %eax
  20117d:	8d 45 cf             	lea    -0x31(%ebp),%eax
  201180:	50                   	push   %eax
  201181:	e8 ad fd ff ff       	call   200f33 <addSpacesEvery4bits>
  201186:	83 c4 08             	add    $0x8,%esp
  201189:	ff 75 08             	push   0x8(%ebp)
  20118c:	e8 46 ff ff ff       	call   2010d7 <binary_size>
  201191:	83 c4 04             	add    $0x4,%esp
  201194:	88 45 f6             	mov    %al,-0xa(%ebp)
  201197:	8b 45 0c             	mov    0xc(%ebp),%eax
  20119a:	0f b6 d0             	movzbl %al,%edx
  20119d:	0f b6 45 f6          	movzbl -0xa(%ebp),%eax
  2011a1:	52                   	push   %edx
  2011a2:	50                   	push   %eax
  2011a3:	e8 95 ff ff ff       	call   20113d <max>
  2011a8:	83 c4 08             	add    $0x8,%esp
  2011ab:	0f b6 c0             	movzbl %al,%eax
  2011ae:	89 45 0c             	mov    %eax,0xc(%ebp)
  2011b1:	83 7d 0c 1f          	cmpl   $0x1f,0xc(%ebp)
  2011b5:	76 06                	jbe    2011bd <print_binary_var_no_newline+0x59>
  2011b7:	c6 45 f7 00          	movb   $0x0,-0x9(%ebp)
  2011bb:	eb 25                	jmp    2011e2 <print_binary_var_no_newline+0x7e>
  2011bd:	8b 45 0c             	mov    0xc(%ebp),%eax
  2011c0:	c1 e8 02             	shr    $0x2,%eax
  2011c3:	89 c2                	mov    %eax,%edx
  2011c5:	8b 45 0c             	mov    0xc(%ebp),%eax
  2011c8:	01 c2                	add    %eax,%edx
  2011ca:	b8 27 00 00 00       	mov    $0x27,%eax
  2011cf:	29 d0                	sub    %edx,%eax
  2011d1:	88 45 f7             	mov    %al,-0x9(%ebp)
  2011d4:	8b 45 0c             	mov    0xc(%ebp),%eax
  2011d7:	83 e0 03             	and    $0x3,%eax
  2011da:	85 c0                	test   %eax,%eax
  2011dc:	75 04                	jne    2011e2 <print_binary_var_no_newline+0x7e>
  2011de:	80 45 f7 01          	addb   $0x1,-0x9(%ebp)
  2011e2:	0f b6 45 f7          	movzbl -0x9(%ebp),%eax
  2011e6:	8d 55 a7             	lea    -0x59(%ebp),%edx
  2011e9:	01 d0                	add    %edx,%eax
  2011eb:	89 45 f0             	mov    %eax,-0x10(%ebp)
  2011ee:	83 ec 0c             	sub    $0xc,%esp
  2011f1:	ff 75 f0             	push   -0x10(%ebp)
  2011f4:	e8 76 07 00 00       	call   20196f <terminal_writestring>
  2011f9:	83 c4 10             	add    $0x10,%esp
  2011fc:	90                   	nop
  2011fd:	c9                   	leave
  2011fe:	c3                   	ret

002011ff <hex_len>:
  2011ff:	55                   	push   %ebp
  201200:	89 e5                	mov    %esp,%ebp
  201202:	8b 45 08             	mov    0x8(%ebp),%eax
  201205:	83 e8 01             	sub    $0x1,%eax
  201208:	c1 e8 02             	shr    $0x2,%eax
  20120b:	89 c2                	mov    %eax,%edx
  20120d:	8b 45 08             	mov    0x8(%ebp),%eax
  201210:	01 d0                	add    %edx,%eax
  201212:	5d                   	pop    %ebp
  201213:	c3                   	ret

00201214 <print_hex_f>:
  201214:	55                   	push   %ebp
  201215:	89 e5                	mov    %esp,%ebp
  201217:	53                   	push   %ebx
  201218:	83 ec 34             	sub    $0x34,%esp
  20121b:	8b 45 0c             	mov    0xc(%ebp),%eax
  20121e:	88 45 d4             	mov    %al,-0x2c(%ebp)
  201221:	89 e0                	mov    %esp,%eax
  201223:	89 c3                	mov    %eax,%ebx
  201225:	80 7d d4 10          	cmpb   $0x10,-0x2c(%ebp)
  201229:	0f 96 c0             	setbe  %al
  20122c:	0f b6 c0             	movzbl %al,%eax
  20122f:	68 c8 55 20 00       	push   $0x2055c8
  201234:	68 8d 00 00 00       	push   $0x8d
  201239:	68 e0 55 20 00       	push   $0x2055e0
  20123e:	50                   	push   %eax
  20123f:	e8 5a fc ff ff       	call   200e9e <assert_handler>
  201244:	83 c4 10             	add    $0x10,%esp
  201247:	83 ec 0c             	sub    $0xc,%esp
  20124a:	ff 75 08             	push   0x8(%ebp)
  20124d:	e8 b3 fe ff ff       	call   201105 <hexSize>
  201252:	83 c4 10             	add    $0x10,%esp
  201255:	88 45 f4             	mov    %al,-0xc(%ebp)
  201258:	0f b6 55 d4          	movzbl -0x2c(%ebp),%edx
  20125c:	0f b6 45 f4          	movzbl -0xc(%ebp),%eax
  201260:	83 ec 08             	sub    $0x8,%esp
  201263:	52                   	push   %edx
  201264:	50                   	push   %eax
  201265:	e8 d3 fe ff ff       	call   20113d <max>
  20126a:	83 c4 10             	add    $0x10,%esp
  20126d:	88 45 f3             	mov    %al,-0xd(%ebp)
  201270:	0f b6 45 f3          	movzbl -0xd(%ebp),%eax
  201274:	83 c0 01             	add    $0x1,%eax
  201277:	8d 50 ff             	lea    -0x1(%eax),%edx
  20127a:	89 55 ec             	mov    %edx,-0x14(%ebp)
  20127d:	89 c2                	mov    %eax,%edx
  20127f:	b8 10 00 00 00       	mov    $0x10,%eax
  201284:	83 e8 01             	sub    $0x1,%eax
  201287:	01 d0                	add    %edx,%eax
  201289:	b9 10 00 00 00       	mov    $0x10,%ecx
  20128e:	ba 00 00 00 00       	mov    $0x0,%edx
  201293:	f7 f1                	div    %ecx
  201295:	6b c0 10             	imul   $0x10,%eax,%eax
  201298:	29 c4                	sub    %eax,%esp
  20129a:	89 e0                	mov    %esp,%eax
  20129c:	89 45 e8             	mov    %eax,-0x18(%ebp)
  20129f:	83 ec 04             	sub    $0x4,%esp
  2012a2:	6a 00                	push   $0x0
  2012a4:	ff 75 e8             	push   -0x18(%ebp)
  2012a7:	ff 75 08             	push   0x8(%ebp)
  2012aa:	e8 fc f9 ff ff       	call   200cab <uint_to_hex>
  2012af:	83 c4 10             	add    $0x10,%esp
  2012b2:	89 45 e4             	mov    %eax,-0x1c(%ebp)
  2012b5:	0f b6 45 f4          	movzbl -0xc(%ebp),%eax
  2012b9:	39 45 e4             	cmp    %eax,-0x1c(%ebp)
  2012bc:	0f 94 c0             	sete   %al
  2012bf:	0f b6 c0             	movzbl %al,%eax
  2012c2:	68 c8 55 20 00       	push   $0x2055c8
  2012c7:	68 94 00 00 00       	push   $0x94
  2012cc:	68 08 56 20 00       	push   $0x205608
  2012d1:	50                   	push   %eax
  2012d2:	e8 c7 fb ff ff       	call   200e9e <assert_handler>
  2012d7:	83 c4 10             	add    $0x10,%esp
  2012da:	0f b6 45 f3          	movzbl -0xd(%ebp),%eax
  2012de:	83 ec 0c             	sub    $0xc,%esp
  2012e1:	50                   	push   %eax
  2012e2:	e8 18 ff ff ff       	call   2011ff <hex_len>
  2012e7:	83 c4 10             	add    $0x10,%esp
  2012ea:	88 45 e3             	mov    %al,-0x1d(%ebp)
  2012ed:	83 ec 0c             	sub    $0xc,%esp
  2012f0:	68 33 56 20 00       	push   $0x205633
  2012f5:	e8 75 06 00 00       	call   20196f <terminal_writestring>
  2012fa:	83 c4 10             	add    $0x10,%esp
  2012fd:	8b 45 e4             	mov    -0x1c(%ebp),%eax
  201300:	89 c2                	mov    %eax,%edx
  201302:	0f b6 45 f3          	movzbl -0xd(%ebp),%eax
  201306:	29 d0                	sub    %edx,%eax
  201308:	88 45 f7             	mov    %al,-0x9(%ebp)
  20130b:	0f b6 45 f3          	movzbl -0xd(%ebp),%eax
  20130f:	3b 45 e4             	cmp    -0x1c(%ebp),%eax
  201312:	73 04                	jae    201318 <print_hex_f+0x104>
  201314:	c6 45 f7 00          	movb   $0x0,-0x9(%ebp)
  201318:	c6 45 f6 00          	movb   $0x0,-0xa(%ebp)
  20131c:	eb 3c                	jmp    20135a <print_hex_f+0x146>
  20131e:	83 ec 0c             	sub    $0xc,%esp
  201321:	6a 30                	push   $0x30
  201323:	e8 2c 05 00 00       	call   201854 <terminal_putchar>
  201328:	83 c4 10             	add    $0x10,%esp
  20132b:	0f b6 45 f3          	movzbl -0xd(%ebp),%eax
  20132f:	2a 45 f6             	sub    -0xa(%ebp),%al
  201332:	83 e8 01             	sub    $0x1,%eax
  201335:	88 45 e0             	mov    %al,-0x20(%ebp)
  201338:	0f b6 45 e0          	movzbl -0x20(%ebp),%eax
  20133c:	83 e0 03             	and    $0x3,%eax
  20133f:	84 c0                	test   %al,%al
  201341:	75 0d                	jne    201350 <print_hex_f+0x13c>
  201343:	83 ec 0c             	sub    $0xc,%esp
  201346:	6a 20                	push   $0x20
  201348:	e8 07 05 00 00       	call   201854 <terminal_putchar>
  20134d:	83 c4 10             	add    $0x10,%esp
  201350:	0f b6 45 f6          	movzbl -0xa(%ebp),%eax
  201354:	83 c0 01             	add    $0x1,%eax
  201357:	88 45 f6             	mov    %al,-0xa(%ebp)
  20135a:	0f b6 45 f6          	movzbl -0xa(%ebp),%eax
  20135e:	3a 45 f7             	cmp    -0x9(%ebp),%al
  201361:	72 bb                	jb     20131e <print_hex_f+0x10a>
  201363:	c6 45 f5 00          	movb   $0x0,-0xb(%ebp)
  201367:	eb 62                	jmp    2013cb <print_hex_f+0x1b7>
  201369:	0f b6 45 f5          	movzbl -0xb(%ebp),%eax
  20136d:	8b 55 e8             	mov    -0x18(%ebp),%edx
  201370:	0f b6 04 02          	movzbl (%edx,%eax,1),%eax
  201374:	88 45 e2             	mov    %al,-0x1e(%ebp)
  201377:	0f be 45 e2          	movsbl -0x1e(%ebp),%eax
  20137b:	83 ec 0c             	sub    $0xc,%esp
  20137e:	50                   	push   %eax
  20137f:	e8 d0 04 00 00       	call   201854 <terminal_putchar>
  201384:	83 c4 10             	add    $0x10,%esp
  201387:	0f b6 45 f3          	movzbl -0xd(%ebp),%eax
  20138b:	2a 45 f5             	sub    -0xb(%ebp),%al
  20138e:	88 45 e1             	mov    %al,-0x1f(%ebp)
  201391:	0f b6 45 f7          	movzbl -0x9(%ebp),%eax
  201395:	28 45 e1             	sub    %al,-0x1f(%ebp)
  201398:	0f b6 45 e1          	movzbl -0x1f(%ebp),%eax
  20139c:	83 e8 01             	sub    $0x1,%eax
  20139f:	83 e0 03             	and    $0x3,%eax
  2013a2:	85 c0                	test   %eax,%eax
  2013a4:	75 1b                	jne    2013c1 <print_hex_f+0x1ad>
  2013a6:	0f b6 55 f5          	movzbl -0xb(%ebp),%edx
  2013aa:	8b 45 e4             	mov    -0x1c(%ebp),%eax
  2013ad:	83 e8 01             	sub    $0x1,%eax
  2013b0:	39 c2                	cmp    %eax,%edx
  2013b2:	74 0d                	je     2013c1 <print_hex_f+0x1ad>
  2013b4:	83 ec 0c             	sub    $0xc,%esp
  2013b7:	6a 20                	push   $0x20
  2013b9:	e8 96 04 00 00       	call   201854 <terminal_putchar>
  2013be:	83 c4 10             	add    $0x10,%esp
  2013c1:	0f b6 45 f5          	movzbl -0xb(%ebp),%eax
  2013c5:	83 c0 01             	add    $0x1,%eax
  2013c8:	88 45 f5             	mov    %al,-0xb(%ebp)
  2013cb:	0f b6 45 f5          	movzbl -0xb(%ebp),%eax
  2013cf:	3b 45 e4             	cmp    -0x1c(%ebp),%eax
  2013d2:	72 95                	jb     201369 <print_hex_f+0x155>
  2013d4:	89 dc                	mov    %ebx,%esp
  2013d6:	90                   	nop
  2013d7:	8b 5d fc             	mov    -0x4(%ebp),%ebx
  2013da:	c9                   	leave
  2013db:	c3                   	ret

002013dc <vga_entry_color>:
  2013dc:	55                   	push   %ebp
  2013dd:	89 e5                	mov    %esp,%ebp
  2013df:	8b 45 0c             	mov    0xc(%ebp),%eax
  2013e2:	c1 e0 04             	shl    $0x4,%eax
  2013e5:	89 c2                	mov    %eax,%edx
  2013e7:	8b 45 08             	mov    0x8(%ebp),%eax
  2013ea:	09 d0                	or     %edx,%eax
  2013ec:	5d                   	pop    %ebp
  2013ed:	c3                   	ret

002013ee <vga_entry>:
  2013ee:	55                   	push   %ebp
  2013ef:	89 e5                	mov    %esp,%ebp
  2013f1:	83 ec 08             	sub    $0x8,%esp
  2013f4:	8b 55 08             	mov    0x8(%ebp),%edx
  2013f7:	8b 45 0c             	mov    0xc(%ebp),%eax
  2013fa:	88 55 fc             	mov    %dl,-0x4(%ebp)
  2013fd:	88 45 f8             	mov    %al,-0x8(%ebp)
  201400:	0f b6 45 f8          	movzbl -0x8(%ebp),%eax
  201404:	c1 e0 08             	shl    $0x8,%eax
  201407:	89 c2                	mov    %eax,%edx
  201409:	0f b6 45 fc          	movzbl -0x4(%ebp),%eax
  20140d:	09 d0                	or     %edx,%eax
  20140f:	c9                   	leave
  201410:	c3                   	ret

00201411 <set_vga_element>:
  201411:	55                   	push   %ebp
  201412:	89 e5                	mov    %esp,%ebp
  201414:	53                   	push   %ebx
  201415:	83 ec 0c             	sub    $0xc,%esp
  201418:	8b 4d 08             	mov    0x8(%ebp),%ecx
  20141b:	8b 55 0c             	mov    0xc(%ebp),%edx
  20141e:	8b 45 10             	mov    0x10(%ebp),%eax
  201421:	88 4d f8             	mov    %cl,-0x8(%ebp)
  201424:	88 55 f4             	mov    %dl,-0xc(%ebp)
  201427:	66 89 45 f0          	mov    %ax,-0x10(%ebp)
  20142b:	8b 0d 10 b0 20 00    	mov    0x20b010,%ecx
  201431:	0f b6 55 f4          	movzbl -0xc(%ebp),%edx
  201435:	0f b6 5d f8          	movzbl -0x8(%ebp),%ebx
  201439:	89 d0                	mov    %edx,%eax
  20143b:	c1 e0 02             	shl    $0x2,%eax
  20143e:	01 d0                	add    %edx,%eax
  201440:	c1 e0 04             	shl    $0x4,%eax
  201443:	8d 14 18             	lea    (%eax,%ebx,1),%edx
  201446:	0f b7 45 f0          	movzwl -0x10(%ebp),%eax
  20144a:	66 89 04 51          	mov    %ax,(%ecx,%edx,2)
  20144e:	90                   	nop
  20144f:	8b 5d fc             	mov    -0x4(%ebp),%ebx
  201452:	c9                   	leave
  201453:	c3                   	ret

00201454 <clear_visible_terminal>:
  201454:	55                   	push   %ebp
  201455:	89 e5                	mov    %esp,%ebp
  201457:	83 ec 10             	sub    $0x10,%esp
  20145a:	c7 45 fc 00 00 00 00 	movl   $0x0,-0x4(%ebp)
  201461:	eb 5d                	jmp    2014c0 <clear_visible_terminal+0x6c>
  201463:	c7 45 f8 00 00 00 00 	movl   $0x0,-0x8(%ebp)
  20146a:	eb 4a                	jmp    2014b6 <clear_visible_terminal+0x62>
  20146c:	8b 55 fc             	mov    -0x4(%ebp),%edx
  20146f:	89 d0                	mov    %edx,%eax
  201471:	c1 e0 02             	shl    $0x2,%eax
  201474:	01 d0                	add    %edx,%eax
  201476:	c1 e0 04             	shl    $0x4,%eax
  201479:	89 c2                	mov    %eax,%edx
  20147b:	8b 45 f8             	mov    -0x8(%ebp),%eax
  20147e:	01 d0                	add    %edx,%eax
  201480:	89 45 f4             	mov    %eax,-0xc(%ebp)
  201483:	0f b6 05 0c b0 20 00 	movzbl 0x20b00c,%eax
  20148a:	0f b6 c0             	movzbl %al,%eax
  20148d:	50                   	push   %eax
  20148e:	6a 20                	push   $0x20
  201490:	e8 47 ff ff ff       	call   2013dc <vga_entry_color>
  201495:	83 c4 08             	add    $0x8,%esp
  201498:	0f b6 c8             	movzbl %al,%ecx
  20149b:	8b 45 fc             	mov    -0x4(%ebp),%eax
  20149e:	0f b6 d0             	movzbl %al,%edx
  2014a1:	8b 45 f8             	mov    -0x8(%ebp),%eax
  2014a4:	0f b6 c0             	movzbl %al,%eax
  2014a7:	51                   	push   %ecx
  2014a8:	52                   	push   %edx
  2014a9:	50                   	push   %eax
  2014aa:	e8 62 ff ff ff       	call   201411 <set_vga_element>
  2014af:	83 c4 0c             	add    $0xc,%esp
  2014b2:	83 45 f8 01          	addl   $0x1,-0x8(%ebp)
  2014b6:	83 7d f8 4f          	cmpl   $0x4f,-0x8(%ebp)
  2014ba:	76 b0                	jbe    20146c <clear_visible_terminal+0x18>
  2014bc:	83 45 fc 01          	addl   $0x1,-0x4(%ebp)
  2014c0:	83 7d fc 18          	cmpl   $0x18,-0x4(%ebp)
  2014c4:	76 9d                	jbe    201463 <clear_visible_terminal+0xf>
  2014c6:	90                   	nop
  2014c7:	90                   	nop
  2014c8:	c9                   	leave
  2014c9:	c3                   	ret

002014ca <initialize_terminal>:
  2014ca:	55                   	push   %ebp
  2014cb:	89 e5                	mov    %esp,%ebp
  2014cd:	83 ec 10             	sub    $0x10,%esp
  2014d0:	c7 05 00 b0 20 00 00 	movl   $0x0,0x20b000
  2014d7:	00 00 00 
  2014da:	c7 05 04 b0 20 00 00 	movl   $0x0,0x20b004
  2014e1:	00 00 00 
  2014e4:	6a 00                	push   $0x0
  2014e6:	6a 07                	push   $0x7
  2014e8:	e8 ef fe ff ff       	call   2013dc <vga_entry_color>
  2014ed:	83 c4 08             	add    $0x8,%esp
  2014f0:	a2 0c b0 20 00       	mov    %al,0x20b00c
  2014f5:	c7 05 10 b0 20 00 00 	movl   $0xb8000,0x20b010
  2014fc:	80 0b 00 
  2014ff:	e8 50 ff ff ff       	call   201454 <clear_visible_terminal>
  201504:	c7 05 08 b0 20 00 00 	movl   $0x0,0x20b008
  20150b:	00 00 00 
  20150e:	c7 45 fc 00 00 00 00 	movl   $0x0,-0x4(%ebp)
  201515:	eb 62                	jmp    201579 <initialize_terminal+0xaf>
  201517:	c7 45 f8 00 00 00 00 	movl   $0x0,-0x8(%ebp)
  20151e:	eb 4f                	jmp    20156f <initialize_terminal+0xa5>
  201520:	8b 55 fc             	mov    -0x4(%ebp),%edx
  201523:	89 d0                	mov    %edx,%eax
  201525:	c1 e0 02             	shl    $0x2,%eax
  201528:	01 d0                	add    %edx,%eax
  20152a:	c1 e0 04             	shl    $0x4,%eax
  20152d:	89 c2                	mov    %eax,%edx
  20152f:	8b 45 f8             	mov    -0x8(%ebp),%eax
  201532:	01 d0                	add    %edx,%eax
  201534:	89 45 f4             	mov    %eax,-0xc(%ebp)
  201537:	0f b6 05 0c b0 20 00 	movzbl 0x20b00c,%eax
  20153e:	0f b6 c0             	movzbl %al,%eax
  201541:	50                   	push   %eax
  201542:	6a 20                	push   $0x20
  201544:	e8 a5 fe ff ff       	call   2013ee <vga_entry>
  201549:	83 c4 08             	add    $0x8,%esp
  20154c:	89 c1                	mov    %eax,%ecx
  20154e:	8b 55 fc             	mov    -0x4(%ebp),%edx
  201551:	89 d0                	mov    %edx,%eax
  201553:	c1 e0 02             	shl    $0x2,%eax
  201556:	01 d0                	add    %edx,%eax
  201558:	c1 e0 04             	shl    $0x4,%eax
  20155b:	8b 55 f8             	mov    -0x8(%ebp),%edx
  20155e:	01 d0                	add    %edx,%eax
  201560:	83 c0 08             	add    $0x8,%eax
  201563:	66 89 8c 00 04 b0 20 	mov    %cx,0x20b004(%eax,%eax,1)
  20156a:	00 
  20156b:	83 45 f8 01          	addl   $0x1,-0x8(%ebp)
  20156f:	83 7d f8 4f          	cmpl   $0x4f,-0x8(%ebp)
  201573:	76 ab                	jbe    201520 <initialize_terminal+0x56>
  201575:	83 45 fc 01          	addl   $0x1,-0x4(%ebp)
  201579:	81 7d fc e7 03 00 00 	cmpl   $0x3e7,-0x4(%ebp)
  201580:	76 95                	jbe    201517 <initialize_terminal+0x4d>
  201582:	90                   	nop
  201583:	90                   	nop
  201584:	c9                   	leave
  201585:	c3                   	ret

00201586 <terminal_update_vga_mem>:
  201586:	55                   	push   %ebp
  201587:	89 e5                	mov    %esp,%ebp
  201589:	83 ec 10             	sub    $0x10,%esp
  20158c:	c7 45 fc 00 00 00 00 	movl   $0x0,-0x4(%ebp)
  201593:	eb 6d                	jmp    201602 <terminal_update_vga_mem+0x7c>
  201595:	c7 45 f8 00 00 00 00 	movl   $0x0,-0x8(%ebp)
  20159c:	eb 5a                	jmp    2015f8 <terminal_update_vga_mem+0x72>
  20159e:	8b 55 fc             	mov    -0x4(%ebp),%edx
  2015a1:	89 d0                	mov    %edx,%eax
  2015a3:	c1 e0 02             	shl    $0x2,%eax
  2015a6:	01 d0                	add    %edx,%eax
  2015a8:	c1 e0 04             	shl    $0x4,%eax
  2015ab:	89 c2                	mov    %eax,%edx
  2015ad:	8b 45 f8             	mov    -0x8(%ebp),%eax
  2015b0:	01 d0                	add    %edx,%eax
  2015b2:	89 45 f4             	mov    %eax,-0xc(%ebp)
  2015b5:	8b 15 08 b0 20 00    	mov    0x20b008,%edx
  2015bb:	8b 45 fc             	mov    -0x4(%ebp),%eax
  2015be:	01 c2                	add    %eax,%edx
  2015c0:	89 d0                	mov    %edx,%eax
  2015c2:	c1 e0 02             	shl    $0x2,%eax
  2015c5:	01 d0                	add    %edx,%eax
  2015c7:	c1 e0 04             	shl    $0x4,%eax
  2015ca:	8b 55 f8             	mov    -0x8(%ebp),%edx
  2015cd:	01 d0                	add    %edx,%eax
  2015cf:	83 c0 08             	add    $0x8,%eax
  2015d2:	0f b7 84 00 04 b0 20 	movzwl 0x20b004(%eax,%eax,1),%eax
  2015d9:	00 
  2015da:	0f b7 c8             	movzwl %ax,%ecx
  2015dd:	8b 45 fc             	mov    -0x4(%ebp),%eax
  2015e0:	0f b6 d0             	movzbl %al,%edx
  2015e3:	8b 45 f8             	mov    -0x8(%ebp),%eax
  2015e6:	0f b6 c0             	movzbl %al,%eax
  2015e9:	51                   	push   %ecx
  2015ea:	52                   	push   %edx
  2015eb:	50                   	push   %eax
  2015ec:	e8 20 fe ff ff       	call   201411 <set_vga_element>
  2015f1:	83 c4 0c             	add    $0xc,%esp
  2015f4:	83 45 f8 01          	addl   $0x1,-0x8(%ebp)
  2015f8:	83 7d f8 4f          	cmpl   $0x4f,-0x8(%ebp)
  2015fc:	76 a0                	jbe    20159e <terminal_update_vga_mem+0x18>
  2015fe:	83 45 fc 01          	addl   $0x1,-0x4(%ebp)
  201602:	83 7d fc 18          	cmpl   $0x18,-0x4(%ebp)
  201606:	76 8d                	jbe    201595 <terminal_update_vga_mem+0xf>
  201608:	90                   	nop
  201609:	90                   	nop
  20160a:	c9                   	leave
  20160b:	c3                   	ret

0020160c <terminal_set_scroll>:
  20160c:	55                   	push   %ebp
  20160d:	89 e5                	mov    %esp,%ebp
  20160f:	83 ec 10             	sub    $0x10,%esp
  201612:	c7 45 fc cf 03 00 00 	movl   $0x3cf,-0x4(%ebp)
  201619:	8b 45 08             	mov    0x8(%ebp),%eax
  20161c:	39 45 fc             	cmp    %eax,-0x4(%ebp)
  20161f:	73 06                	jae    201627 <terminal_set_scroll+0x1b>
  201621:	8b 45 fc             	mov    -0x4(%ebp),%eax
  201624:	89 45 08             	mov    %eax,0x8(%ebp)
  201627:	8b 45 08             	mov    0x8(%ebp),%eax
  20162a:	a3 08 b0 20 00       	mov    %eax,0x20b008
  20162f:	e8 52 ff ff ff       	call   201586 <terminal_update_vga_mem>
  201634:	90                   	nop
  201635:	c9                   	leave
  201636:	c3                   	ret

00201637 <terminal_scroll_down>:
  201637:	55                   	push   %ebp
  201638:	89 e5                	mov    %esp,%ebp
  20163a:	83 ec 10             	sub    $0x10,%esp
  20163d:	a1 08 b0 20 00       	mov    0x20b008,%eax
  201642:	89 45 fc             	mov    %eax,-0x4(%ebp)
  201645:	8b 55 08             	mov    0x8(%ebp),%edx
  201648:	8b 45 fc             	mov    -0x4(%ebp),%eax
  20164b:	01 d0                	add    %edx,%eax
  20164d:	50                   	push   %eax
  20164e:	e8 b9 ff ff ff       	call   20160c <terminal_set_scroll>
  201653:	83 c4 04             	add    $0x4,%esp
  201656:	90                   	nop
  201657:	c9                   	leave
  201658:	c3                   	ret

00201659 <terminal_setcolor>:
  201659:	55                   	push   %ebp
  20165a:	89 e5                	mov    %esp,%ebp
  20165c:	83 ec 04             	sub    $0x4,%esp
  20165f:	8b 45 08             	mov    0x8(%ebp),%eax
  201662:	88 45 fc             	mov    %al,-0x4(%ebp)
  201665:	0f b6 45 fc          	movzbl -0x4(%ebp),%eax
  201669:	a2 0c b0 20 00       	mov    %al,0x20b00c
  20166e:	90                   	nop
  20166f:	c9                   	leave
  201670:	c3                   	ret

00201671 <terminal_putentryat>:
  201671:	55                   	push   %ebp
  201672:	89 e5                	mov    %esp,%ebp
  201674:	53                   	push   %ebx
  201675:	83 ec 18             	sub    $0x18,%esp
  201678:	8b 55 08             	mov    0x8(%ebp),%edx
  20167b:	8b 45 0c             	mov    0xc(%ebp),%eax
  20167e:	88 55 e8             	mov    %dl,-0x18(%ebp)
  201681:	88 45 e4             	mov    %al,-0x1c(%ebp)
  201684:	8b 55 14             	mov    0x14(%ebp),%edx
  201687:	89 d0                	mov    %edx,%eax
  201689:	c1 e0 02             	shl    $0x2,%eax
  20168c:	01 d0                	add    %edx,%eax
  20168e:	c1 e0 04             	shl    $0x4,%eax
  201691:	89 c2                	mov    %eax,%edx
  201693:	8b 45 10             	mov    0x10(%ebp),%eax
  201696:	01 d0                	add    %edx,%eax
  201698:	89 45 f8             	mov    %eax,-0x8(%ebp)
  20169b:	0f b6 55 e4          	movzbl -0x1c(%ebp),%edx
  20169f:	0f b6 45 e8          	movzbl -0x18(%ebp),%eax
  2016a3:	0f b6 c0             	movzbl %al,%eax
  2016a6:	52                   	push   %edx
  2016a7:	50                   	push   %eax
  2016a8:	e8 41 fd ff ff       	call   2013ee <vga_entry>
  2016ad:	83 c4 08             	add    $0x8,%esp
  2016b0:	89 c1                	mov    %eax,%ecx
  2016b2:	8b 55 14             	mov    0x14(%ebp),%edx
  2016b5:	89 d0                	mov    %edx,%eax
  2016b7:	c1 e0 02             	shl    $0x2,%eax
  2016ba:	01 d0                	add    %edx,%eax
  2016bc:	c1 e0 04             	shl    $0x4,%eax
  2016bf:	8b 55 10             	mov    0x10(%ebp),%edx
  2016c2:	01 d0                	add    %edx,%eax
  2016c4:	83 c0 08             	add    $0x8,%eax
  2016c7:	66 89 8c 00 04 b0 20 	mov    %cx,0x20b004(%eax,%eax,1)
  2016ce:	00 
  2016cf:	a1 08 b0 20 00       	mov    0x20b008,%eax
  2016d4:	8b 55 14             	mov    0x14(%ebp),%edx
  2016d7:	29 c2                	sub    %eax,%edx
  2016d9:	83 fa 18             	cmp    $0x18,%edx
  2016dc:	77 65                	ja     201743 <terminal_putentryat+0xd2>
  2016de:	8b 15 08 b0 20 00    	mov    0x20b008,%edx
  2016e4:	89 d0                	mov    %edx,%eax
  2016e6:	c1 e0 02             	shl    $0x2,%eax
  2016e9:	01 d0                	add    %edx,%eax
  2016eb:	c1 e0 04             	shl    $0x4,%eax
  2016ee:	89 45 f4             	mov    %eax,-0xc(%ebp)
  2016f1:	a1 08 b0 20 00       	mov    0x20b008,%eax
  2016f6:	8b 55 14             	mov    0x14(%ebp),%edx
  2016f9:	29 c2                	sub    %eax,%edx
  2016fb:	89 d0                	mov    %edx,%eax
  2016fd:	c1 e0 02             	shl    $0x2,%eax
  201700:	01 d0                	add    %edx,%eax
  201702:	c1 e0 04             	shl    $0x4,%eax
  201705:	8b 55 10             	mov    0x10(%ebp),%edx
  201708:	01 d0                	add    %edx,%eax
  20170a:	83 c0 08             	add    $0x8,%eax
  20170d:	0f b7 84 00 04 b0 20 	movzwl 0x20b004(%eax,%eax,1),%eax
  201714:	00 
  201715:	66 89 45 f2          	mov    %ax,-0xe(%ebp)
  201719:	0f b7 4d f2          	movzwl -0xe(%ebp),%ecx
  20171d:	8b 45 14             	mov    0x14(%ebp),%eax
  201720:	89 c2                	mov    %eax,%edx
  201722:	a1 08 b0 20 00       	mov    0x20b008,%eax
  201727:	89 c3                	mov    %eax,%ebx
  201729:	89 d0                	mov    %edx,%eax
  20172b:	29 d8                	sub    %ebx,%eax
  20172d:	0f b6 d0             	movzbl %al,%edx
  201730:	8b 45 10             	mov    0x10(%ebp),%eax
  201733:	0f b6 c0             	movzbl %al,%eax
  201736:	51                   	push   %ecx
  201737:	52                   	push   %edx
  201738:	50                   	push   %eax
  201739:	e8 d3 fc ff ff       	call   201411 <set_vga_element>
  20173e:	83 c4 0c             	add    $0xc,%esp
  201741:	eb 01                	jmp    201744 <terminal_putentryat+0xd3>
  201743:	90                   	nop
  201744:	8b 5d fc             	mov    -0x4(%ebp),%ebx
  201747:	c9                   	leave
  201748:	c3                   	ret

00201749 <terminal_increase_row>:
  201749:	55                   	push   %ebp
  20174a:	89 e5                	mov    %esp,%ebp
  20174c:	c7 05 04 b0 20 00 00 	movl   $0x0,0x20b004
  201753:	00 00 00 
  201756:	a1 00 b0 20 00       	mov    0x20b000,%eax
  20175b:	83 c0 01             	add    $0x1,%eax
  20175e:	a3 00 b0 20 00       	mov    %eax,0x20b000
  201763:	8b 15 00 b0 20 00    	mov    0x20b000,%edx
  201769:	a1 08 b0 20 00       	mov    0x20b008,%eax
  20176e:	29 c2                	sub    %eax,%edx
  201770:	83 fa 19             	cmp    $0x19,%edx
  201773:	76 0a                	jbe    20177f <terminal_increase_row+0x36>
  201775:	6a 01                	push   $0x1
  201777:	e8 bb fe ff ff       	call   201637 <terminal_scroll_down>
  20177c:	83 c4 04             	add    $0x4,%esp
  20177f:	a1 00 b0 20 00       	mov    0x20b000,%eax
  201784:	3d e7 03 00 00       	cmp    $0x3e7,%eax
  201789:	76 23                	jbe    2017ae <terminal_increase_row+0x65>
  20178b:	c7 05 00 b0 20 00 00 	movl   $0x0,0x20b000
  201792:	00 00 00 
  201795:	c7 05 04 b0 20 00 00 	movl   $0x0,0x20b004
  20179c:	00 00 00 
  20179f:	6a 00                	push   $0x0
  2017a1:	e8 66 fe ff ff       	call   20160c <terminal_set_scroll>
  2017a6:	83 c4 04             	add    $0x4,%esp
  2017a9:	e8 a6 fc ff ff       	call   201454 <clear_visible_terminal>
  2017ae:	90                   	nop
  2017af:	c9                   	leave
  2017b0:	c3                   	ret

002017b1 <outb>:
  2017b1:	55                   	push   %ebp
  2017b2:	89 e5                	mov    %esp,%ebp
  2017b4:	83 ec 08             	sub    $0x8,%esp
  2017b7:	8b 55 08             	mov    0x8(%ebp),%edx
  2017ba:	8b 45 0c             	mov    0xc(%ebp),%eax
  2017bd:	66 89 55 fc          	mov    %dx,-0x4(%ebp)
  2017c1:	88 45 f8             	mov    %al,-0x8(%ebp)
  2017c4:	0f b6 45 f8          	movzbl -0x8(%ebp),%eax
  2017c8:	0f b7 55 fc          	movzwl -0x4(%ebp),%edx
  2017cc:	ee                   	out    %al,(%dx)
  2017cd:	90                   	nop
  2017ce:	c9                   	leave
  2017cf:	c3                   	ret

002017d0 <inb>:
  2017d0:	55                   	push   %ebp
  2017d1:	89 e5                	mov    %esp,%ebp
  2017d3:	83 ec 14             	sub    $0x14,%esp
  2017d6:	8b 45 08             	mov    0x8(%ebp),%eax
  2017d9:	66 89 45 ec          	mov    %ax,-0x14(%ebp)
  2017dd:	0f b7 45 ec          	movzwl -0x14(%ebp),%eax
  2017e1:	89 c2                	mov    %eax,%edx
  2017e3:	ec                   	in     (%dx),%al
  2017e4:	88 45 ff             	mov    %al,-0x1(%ebp)
  2017e7:	0f b6 45 ff          	movzbl -0x1(%ebp),%eax
  2017eb:	c9                   	leave
  2017ec:	c3                   	ret

002017ed <serial_write_char>:
  2017ed:	55                   	push   %ebp
  2017ee:	89 e5                	mov    %esp,%ebp
  2017f0:	83 ec 04             	sub    $0x4,%esp
  2017f3:	8b 45 08             	mov    0x8(%ebp),%eax
  2017f6:	88 45 fc             	mov    %al,-0x4(%ebp)
  2017f9:	90                   	nop
  2017fa:	68 fd 03 00 00       	push   $0x3fd
  2017ff:	e8 cc ff ff ff       	call   2017d0 <inb>
  201804:	83 c4 04             	add    $0x4,%esp
  201807:	0f b6 c0             	movzbl %al,%eax
  20180a:	83 e0 20             	and    $0x20,%eax
  20180d:	85 c0                	test   %eax,%eax
  20180f:	74 e9                	je     2017fa <serial_write_char+0xd>
  201811:	0f b6 45 fc          	movzbl -0x4(%ebp),%eax
  201815:	0f b6 c0             	movzbl %al,%eax
  201818:	50                   	push   %eax
  201819:	68 f8 03 00 00       	push   $0x3f8
  20181e:	e8 8e ff ff ff       	call   2017b1 <outb>
  201823:	83 c4 08             	add    $0x8,%esp
  201826:	90                   	nop
  201827:	c9                   	leave
  201828:	c3                   	ret

00201829 <serial_write_string>:
  201829:	55                   	push   %ebp
  20182a:	89 e5                	mov    %esp,%ebp
  20182c:	eb 18                	jmp    201846 <serial_write_string+0x1d>
  20182e:	8b 45 08             	mov    0x8(%ebp),%eax
  201831:	8d 50 01             	lea    0x1(%eax),%edx
  201834:	89 55 08             	mov    %edx,0x8(%ebp)
  201837:	0f b6 00             	movzbl (%eax),%eax
  20183a:	0f be c0             	movsbl %al,%eax
  20183d:	50                   	push   %eax
  20183e:	e8 aa ff ff ff       	call   2017ed <serial_write_char>
  201843:	83 c4 04             	add    $0x4,%esp
  201846:	8b 45 08             	mov    0x8(%ebp),%eax
  201849:	0f b6 00             	movzbl (%eax),%eax
  20184c:	84 c0                	test   %al,%al
  20184e:	75 de                	jne    20182e <serial_write_string+0x5>
  201850:	90                   	nop
  201851:	90                   	nop
  201852:	c9                   	leave
  201853:	c3                   	ret

00201854 <terminal_putchar>:
  201854:	55                   	push   %ebp
  201855:	89 e5                	mov    %esp,%ebp
  201857:	53                   	push   %ebx
  201858:	83 ec 24             	sub    $0x24,%esp
  20185b:	8b 45 08             	mov    0x8(%ebp),%eax
  20185e:	88 45 e4             	mov    %al,-0x1c(%ebp)
  201861:	80 7d e4 00          	cmpb   $0x0,-0x1c(%ebp)
  201865:	0f 84 c5 00 00 00    	je     201930 <terminal_putchar+0xdc>
  20186b:	0f be 45 e4          	movsbl -0x1c(%ebp),%eax
  20186f:	50                   	push   %eax
  201870:	e8 78 ff ff ff       	call   2017ed <serial_write_char>
  201875:	83 c4 04             	add    $0x4,%esp
  201878:	80 7d e4 0a          	cmpb   $0xa,-0x1c(%ebp)
  20187c:	75 14                	jne    201892 <terminal_putchar+0x3e>
  20187e:	c7 05 04 b0 20 00 00 	movl   $0x0,0x20b004
  201885:	00 00 00 
  201888:	e8 bc fe ff ff       	call   201749 <terminal_increase_row>
  20188d:	e9 9f 00 00 00       	jmp    201931 <terminal_putchar+0xdd>
  201892:	80 7d e4 09          	cmpb   $0x9,-0x1c(%ebp)
  201896:	75 4a                	jne    2018e2 <terminal_putchar+0x8e>
  201898:	c6 45 f7 04          	movb   $0x4,-0x9(%ebp)
  20189c:	a1 04 b0 20 00       	mov    0x20b004,%eax
  2018a1:	89 c2                	mov    %eax,%edx
  2018a3:	b8 50 00 00 00       	mov    $0x50,%eax
  2018a8:	29 d0                	sub    %edx,%eax
  2018aa:	88 45 f5             	mov    %al,-0xb(%ebp)
  2018ad:	80 7d f5 03          	cmpb   $0x3,-0xb(%ebp)
  2018b1:	77 07                	ja     2018ba <terminal_putchar+0x66>
  2018b3:	0f b6 45 f5          	movzbl -0xb(%ebp),%eax
  2018b7:	88 45 f7             	mov    %al,-0x9(%ebp)
  2018ba:	c6 45 f6 00          	movb   $0x0,-0xa(%ebp)
  2018be:	eb 17                	jmp    2018d7 <terminal_putchar+0x83>
  2018c0:	83 ec 0c             	sub    $0xc,%esp
  2018c3:	6a 20                	push   $0x20
  2018c5:	e8 8a ff ff ff       	call   201854 <terminal_putchar>
  2018ca:	83 c4 10             	add    $0x10,%esp
  2018cd:	0f b6 45 f6          	movzbl -0xa(%ebp),%eax
  2018d1:	83 c0 01             	add    $0x1,%eax
  2018d4:	88 45 f6             	mov    %al,-0xa(%ebp)
  2018d7:	0f b6 45 f6          	movzbl -0xa(%ebp),%eax
  2018db:	3a 45 f7             	cmp    -0x9(%ebp),%al
  2018de:	72 e0                	jb     2018c0 <terminal_putchar+0x6c>
  2018e0:	eb 4f                	jmp    201931 <terminal_putchar+0xdd>
  2018e2:	8b 1d 00 b0 20 00    	mov    0x20b000,%ebx
  2018e8:	8b 0d 04 b0 20 00    	mov    0x20b004,%ecx
  2018ee:	0f b6 05 0c b0 20 00 	movzbl 0x20b00c,%eax
  2018f5:	0f b6 d0             	movzbl %al,%edx
  2018f8:	0f be 45 e4          	movsbl -0x1c(%ebp),%eax
  2018fc:	53                   	push   %ebx
  2018fd:	51                   	push   %ecx
  2018fe:	52                   	push   %edx
  2018ff:	50                   	push   %eax
  201900:	e8 6c fd ff ff       	call   201671 <terminal_putentryat>
  201905:	83 c4 10             	add    $0x10,%esp
  201908:	a1 04 b0 20 00       	mov    0x20b004,%eax
  20190d:	83 c0 01             	add    $0x1,%eax
  201910:	a3 04 b0 20 00       	mov    %eax,0x20b004
  201915:	a1 04 b0 20 00       	mov    0x20b004,%eax
  20191a:	83 f8 50             	cmp    $0x50,%eax
  20191d:	75 12                	jne    201931 <terminal_putchar+0xdd>
  20191f:	c7 05 04 b0 20 00 00 	movl   $0x0,0x20b004
  201926:	00 00 00 
  201929:	e8 1b fe ff ff       	call   201749 <terminal_increase_row>
  20192e:	eb 01                	jmp    201931 <terminal_putchar+0xdd>
  201930:	90                   	nop
  201931:	8b 5d fc             	mov    -0x4(%ebp),%ebx
  201934:	c9                   	leave
  201935:	c3                   	ret

00201936 <terminal_write>:
  201936:	55                   	push   %ebp
  201937:	89 e5                	mov    %esp,%ebp
  201939:	83 ec 18             	sub    $0x18,%esp
  20193c:	c7 45 f4 00 00 00 00 	movl   $0x0,-0xc(%ebp)
  201943:	eb 1e                	jmp    201963 <terminal_write+0x2d>
  201945:	8b 55 08             	mov    0x8(%ebp),%edx
  201948:	8b 45 f4             	mov    -0xc(%ebp),%eax
  20194b:	01 d0                	add    %edx,%eax
  20194d:	0f b6 00             	movzbl (%eax),%eax
  201950:	0f be c0             	movsbl %al,%eax
  201953:	83 ec 0c             	sub    $0xc,%esp
  201956:	50                   	push   %eax
  201957:	e8 f8 fe ff ff       	call   201854 <terminal_putchar>
  20195c:	83 c4 10             	add    $0x10,%esp
  20195f:	83 45 f4 01          	addl   $0x1,-0xc(%ebp)
  201963:	8b 45 f4             	mov    -0xc(%ebp),%eax
  201966:	3b 45 0c             	cmp    0xc(%ebp),%eax
  201969:	72 da                	jb     201945 <terminal_write+0xf>
  20196b:	90                   	nop
  20196c:	90                   	nop
  20196d:	c9                   	leave
  20196e:	c3                   	ret

0020196f <terminal_writestring>:
  20196f:	55                   	push   %ebp
  201970:	89 e5                	mov    %esp,%ebp
  201972:	83 ec 08             	sub    $0x8,%esp
  201975:	83 ec 0c             	sub    $0xc,%esp
  201978:	ff 75 08             	push   0x8(%ebp)
  20197b:	e8 fb ee ff ff       	call   20087b <strlen>
  201980:	83 c4 10             	add    $0x10,%esp
  201983:	83 ec 08             	sub    $0x8,%esp
  201986:	50                   	push   %eax
  201987:	ff 75 08             	push   0x8(%ebp)
  20198a:	e8 a7 ff ff ff       	call   201936 <terminal_write>
  20198f:	83 c4 10             	add    $0x10,%esp
  201992:	90                   	nop
  201993:	c9                   	leave
  201994:	c3                   	ret

00201995 <print_array_terminal>:
  201995:	55                   	push   %ebp
  201996:	89 e5                	mov    %esp,%ebp
  201998:	83 ec 18             	sub    $0x18,%esp
  20199b:	83 ec 0c             	sub    $0xc,%esp
  20199e:	68 38 56 20 00       	push   $0x205638
  2019a3:	e8 c7 ff ff ff       	call   20196f <terminal_writestring>
  2019a8:	83 c4 10             	add    $0x10,%esp
  2019ab:	c7 45 f4 00 00 00 00 	movl   $0x0,-0xc(%ebp)
  2019b2:	e9 9a 00 00 00       	jmp    201a51 <print_array_terminal+0xbc>
  2019b7:	8b 45 f4             	mov    -0xc(%ebp),%eax
  2019ba:	8d 14 85 00 00 00 00 	lea    0x0(,%eax,4),%edx
  2019c1:	8b 45 08             	mov    0x8(%ebp),%eax
  2019c4:	01 d0                	add    %edx,%eax
  2019c6:	8b 00                	mov    (%eax),%eax
  2019c8:	83 ec 08             	sub    $0x8,%esp
  2019cb:	8d 55 e8             	lea    -0x18(%ebp),%edx
  2019ce:	52                   	push   %edx
  2019cf:	50                   	push   %eax
  2019d0:	e8 cd ee ff ff       	call   2008a2 <itoa>
  2019d5:	83 c4 10             	add    $0x10,%esp
  2019d8:	83 ec 0c             	sub    $0xc,%esp
  2019db:	8d 45 e8             	lea    -0x18(%ebp),%eax
  2019de:	50                   	push   %eax
  2019df:	e8 8b ff ff ff       	call   20196f <terminal_writestring>
  2019e4:	83 c4 10             	add    $0x10,%esp
  2019e7:	8b 45 0c             	mov    0xc(%ebp),%eax
  2019ea:	83 e8 01             	sub    $0x1,%eax
  2019ed:	39 45 f4             	cmp    %eax,-0xc(%ebp)
  2019f0:	74 10                	je     201a02 <print_array_terminal+0x6d>
  2019f2:	83 ec 0c             	sub    $0xc,%esp
  2019f5:	68 3a 56 20 00       	push   $0x20563a
  2019fa:	e8 70 ff ff ff       	call   20196f <terminal_writestring>
  2019ff:	83 c4 10             	add    $0x10,%esp
  201a02:	8b 45 f4             	mov    -0xc(%ebp),%eax
  201a05:	8d 48 01             	lea    0x1(%eax),%ecx
  201a08:	ba cd cc cc cc       	mov    $0xcccccccd,%edx
  201a0d:	89 c8                	mov    %ecx,%eax
  201a0f:	f7 e2                	mul    %edx
  201a11:	c1 ea 03             	shr    $0x3,%edx
  201a14:	89 d0                	mov    %edx,%eax
  201a16:	c1 e0 02             	shl    $0x2,%eax
  201a19:	01 d0                	add    %edx,%eax
  201a1b:	01 c0                	add    %eax,%eax
  201a1d:	29 c1                	sub    %eax,%ecx
  201a1f:	89 ca                	mov    %ecx,%edx
  201a21:	85 d2                	test   %edx,%edx
  201a23:	75 28                	jne    201a4d <print_array_terminal+0xb8>
  201a25:	83 ec 0c             	sub    $0xc,%esp
  201a28:	68 3d 56 20 00       	push   $0x20563d
  201a2d:	e8 3d ff ff ff       	call   20196f <terminal_writestring>
  201a32:	83 c4 10             	add    $0x10,%esp
  201a35:	83 ec 0c             	sub    $0xc,%esp
  201a38:	d9 05 4c 56 20 00    	flds   0x20564c
  201a3e:	8d 64 24 fc          	lea    -0x4(%esp),%esp
  201a42:	d9 1c 24             	fstps  (%esp)
  201a45:	e8 18 1c 00 00       	call   203662 <wait>
  201a4a:	83 c4 10             	add    $0x10,%esp
  201a4d:	83 45 f4 01          	addl   $0x1,-0xc(%ebp)
  201a51:	8b 45 f4             	mov    -0xc(%ebp),%eax
  201a54:	3b 45 0c             	cmp    0xc(%ebp),%eax
  201a57:	0f 82 5a ff ff ff    	jb     2019b7 <print_array_terminal+0x22>
  201a5d:	83 ec 0c             	sub    $0xc,%esp
  201a60:	68 3f 56 20 00       	push   $0x20563f
  201a65:	e8 05 ff ff ff       	call   20196f <terminal_writestring>
  201a6a:	83 c4 10             	add    $0x10,%esp
  201a6d:	90                   	nop
  201a6e:	c9                   	leave
  201a6f:	c3                   	ret

00201a70 <terminal_write_uint16_array>:
  201a70:	55                   	push   %ebp
  201a71:	89 e5                	mov    %esp,%ebp
  201a73:	83 ec 18             	sub    $0x18,%esp
  201a76:	83 ec 0c             	sub    $0xc,%esp
  201a79:	ff 75 0c             	push   0xc(%ebp)
  201a7c:	e8 ee fe ff ff       	call   20196f <terminal_writestring>
  201a81:	83 c4 10             	add    $0x10,%esp
  201a84:	83 ec 0c             	sub    $0xc,%esp
  201a87:	68 42 56 20 00       	push   $0x205642
  201a8c:	e8 de fe ff ff       	call   20196f <terminal_writestring>
  201a91:	83 c4 10             	add    $0x10,%esp
  201a94:	c7 45 f4 00 00 00 00 	movl   $0x0,-0xc(%ebp)
  201a9b:	e9 9a 00 00 00       	jmp    201b3a <terminal_write_uint16_array+0xca>
  201aa0:	8b 45 f4             	mov    -0xc(%ebp),%eax
  201aa3:	8d 14 00             	lea    (%eax,%eax,1),%edx
  201aa6:	8b 45 08             	mov    0x8(%ebp),%eax
  201aa9:	01 d0                	add    %edx,%eax
  201aab:	0f b7 00             	movzwl (%eax),%eax
  201aae:	0f b7 c0             	movzwl %ax,%eax
  201ab1:	83 ec 08             	sub    $0x8,%esp
  201ab4:	8d 55 e8             	lea    -0x18(%ebp),%edx
  201ab7:	52                   	push   %edx
  201ab8:	50                   	push   %eax
  201ab9:	e8 e4 ed ff ff       	call   2008a2 <itoa>
  201abe:	83 c4 10             	add    $0x10,%esp
  201ac1:	83 ec 0c             	sub    $0xc,%esp
  201ac4:	8d 45 e8             	lea    -0x18(%ebp),%eax
  201ac7:	50                   	push   %eax
  201ac8:	e8 a2 fe ff ff       	call   20196f <terminal_writestring>
  201acd:	83 c4 10             	add    $0x10,%esp
  201ad0:	8b 45 10             	mov    0x10(%ebp),%eax
  201ad3:	83 e8 01             	sub    $0x1,%eax
  201ad6:	39 45 f4             	cmp    %eax,-0xc(%ebp)
  201ad9:	74 10                	je     201aeb <terminal_write_uint16_array+0x7b>
  201adb:	83 ec 0c             	sub    $0xc,%esp
  201ade:	68 3a 56 20 00       	push   $0x20563a
  201ae3:	e8 87 fe ff ff       	call   20196f <terminal_writestring>
  201ae8:	83 c4 10             	add    $0x10,%esp
  201aeb:	8b 45 f4             	mov    -0xc(%ebp),%eax
  201aee:	8d 48 01             	lea    0x1(%eax),%ecx
  201af1:	ba cd cc cc cc       	mov    $0xcccccccd,%edx
  201af6:	89 c8                	mov    %ecx,%eax
  201af8:	f7 e2                	mul    %edx
  201afa:	c1 ea 03             	shr    $0x3,%edx
  201afd:	89 d0                	mov    %edx,%eax
  201aff:	c1 e0 02             	shl    $0x2,%eax
  201b02:	01 d0                	add    %edx,%eax
  201b04:	01 c0                	add    %eax,%eax
  201b06:	29 c1                	sub    %eax,%ecx
  201b08:	89 ca                	mov    %ecx,%edx
  201b0a:	85 d2                	test   %edx,%edx
  201b0c:	75 28                	jne    201b36 <terminal_write_uint16_array+0xc6>
  201b0e:	83 ec 0c             	sub    $0xc,%esp
  201b11:	68 3d 56 20 00       	push   $0x20563d
  201b16:	e8 54 fe ff ff       	call   20196f <terminal_writestring>
  201b1b:	83 c4 10             	add    $0x10,%esp
  201b1e:	83 ec 0c             	sub    $0xc,%esp
  201b21:	d9 05 4c 56 20 00    	flds   0x20564c
  201b27:	8d 64 24 fc          	lea    -0x4(%esp),%esp
  201b2b:	d9 1c 24             	fstps  (%esp)
  201b2e:	e8 2f 1b 00 00       	call   203662 <wait>
  201b33:	83 c4 10             	add    $0x10,%esp
  201b36:	83 45 f4 01          	addl   $0x1,-0xc(%ebp)
  201b3a:	8b 45 f4             	mov    -0xc(%ebp),%eax
  201b3d:	3b 45 10             	cmp    0x10(%ebp),%eax
  201b40:	0f 82 5a ff ff ff    	jb     201aa0 <terminal_write_uint16_array+0x30>
  201b46:	83 ec 0c             	sub    $0xc,%esp
  201b49:	68 3f 56 20 00       	push   $0x20563f
  201b4e:	e8 1c fe ff ff       	call   20196f <terminal_writestring>
  201b53:	83 c4 10             	add    $0x10,%esp
  201b56:	90                   	nop
  201b57:	c9                   	leave
  201b58:	c3                   	ret

00201b59 <terminal_write_uint16_array_newlines>:
  201b59:	55                   	push   %ebp
  201b5a:	89 e5                	mov    %esp,%ebp
  201b5c:	83 ec 18             	sub    $0x18,%esp
  201b5f:	c7 45 f4 00 00 00 00 	movl   $0x0,-0xc(%ebp)
  201b66:	eb 47                	jmp    201baf <terminal_write_uint16_array_newlines+0x56>
  201b68:	83 ec 0c             	sub    $0xc,%esp
  201b6b:	ff 75 0c             	push   0xc(%ebp)
  201b6e:	e8 fc fd ff ff       	call   20196f <terminal_writestring>
  201b73:	83 c4 10             	add    $0x10,%esp
  201b76:	83 ec 08             	sub    $0x8,%esp
  201b79:	ff 75 f4             	push   -0xc(%ebp)
  201b7c:	68 38 56 20 00       	push   $0x205638
  201b81:	e8 d0 03 00 00       	call   201f56 <terminal_write_uint_no_newline>
  201b86:	83 c4 10             	add    $0x10,%esp
  201b89:	8b 45 f4             	mov    -0xc(%ebp),%eax
  201b8c:	8d 14 00             	lea    (%eax,%eax,1),%edx
  201b8f:	8b 45 08             	mov    0x8(%ebp),%eax
  201b92:	01 d0                	add    %edx,%eax
  201b94:	0f b7 00             	movzwl (%eax),%eax
  201b97:	0f b7 c0             	movzwl %ax,%eax
  201b9a:	83 ec 08             	sub    $0x8,%esp
  201b9d:	50                   	push   %eax
  201b9e:	68 47 56 20 00       	push   $0x205647
  201ba3:	e8 89 03 00 00       	call   201f31 <terminal_write_uint>
  201ba8:	83 c4 10             	add    $0x10,%esp
  201bab:	83 45 f4 01          	addl   $0x1,-0xc(%ebp)
  201baf:	8b 45 f4             	mov    -0xc(%ebp),%eax
  201bb2:	3b 45 10             	cmp    0x10(%ebp),%eax
  201bb5:	72 b1                	jb     201b68 <terminal_write_uint16_array_newlines+0xf>
  201bb7:	90                   	nop
  201bb8:	90                   	nop
  201bb9:	c9                   	leave
  201bba:	c3                   	ret

00201bbb <print_int_var>:
  201bbb:	55                   	push   %ebp
  201bbc:	89 e5                	mov    %esp,%ebp
  201bbe:	83 ec 18             	sub    $0x18,%esp
  201bc1:	83 ec 08             	sub    $0x8,%esp
  201bc4:	8d 45 e8             	lea    -0x18(%ebp),%eax
  201bc7:	50                   	push   %eax
  201bc8:	ff 75 08             	push   0x8(%ebp)
  201bcb:	e8 d2 ec ff ff       	call   2008a2 <itoa>
  201bd0:	83 c4 10             	add    $0x10,%esp
  201bd3:	89 45 f4             	mov    %eax,-0xc(%ebp)
  201bd6:	8d 55 e8             	lea    -0x18(%ebp),%edx
  201bd9:	8b 45 f4             	mov    -0xc(%ebp),%eax
  201bdc:	01 d0                	add    %edx,%eax
  201bde:	c6 00 0a             	movb   $0xa,(%eax)
  201be1:	8b 45 f4             	mov    -0xc(%ebp),%eax
  201be4:	83 c0 01             	add    $0x1,%eax
  201be7:	c6 44 05 e8 00       	movb   $0x0,-0x18(%ebp,%eax,1)
  201bec:	83 ec 0c             	sub    $0xc,%esp
  201bef:	8d 45 e8             	lea    -0x18(%ebp),%eax
  201bf2:	50                   	push   %eax
  201bf3:	e8 77 fd ff ff       	call   20196f <terminal_writestring>
  201bf8:	83 c4 10             	add    $0x10,%esp
  201bfb:	90                   	nop
  201bfc:	c9                   	leave
  201bfd:	c3                   	ret

00201bfe <print_int_var_no_newline>:
  201bfe:	55                   	push   %ebp
  201bff:	89 e5                	mov    %esp,%ebp
  201c01:	83 ec 18             	sub    $0x18,%esp
  201c04:	83 ec 08             	sub    $0x8,%esp
  201c07:	8d 45 e8             	lea    -0x18(%ebp),%eax
  201c0a:	50                   	push   %eax
  201c0b:	ff 75 08             	push   0x8(%ebp)
  201c0e:	e8 8f ec ff ff       	call   2008a2 <itoa>
  201c13:	83 c4 10             	add    $0x10,%esp
  201c16:	89 45 f4             	mov    %eax,-0xc(%ebp)
  201c19:	8d 55 e8             	lea    -0x18(%ebp),%edx
  201c1c:	8b 45 f4             	mov    -0xc(%ebp),%eax
  201c1f:	01 d0                	add    %edx,%eax
  201c21:	c6 00 00             	movb   $0x0,(%eax)
  201c24:	83 ec 0c             	sub    $0xc,%esp
  201c27:	8d 45 e8             	lea    -0x18(%ebp),%eax
  201c2a:	50                   	push   %eax
  201c2b:	e8 3f fd ff ff       	call   20196f <terminal_writestring>
  201c30:	83 c4 10             	add    $0x10,%esp
  201c33:	90                   	nop
  201c34:	c9                   	leave
  201c35:	c3                   	ret

00201c36 <print_hex_var>:
  201c36:	55                   	push   %ebp
  201c37:	89 e5                	mov    %esp,%ebp
  201c39:	83 ec 18             	sub    $0x18,%esp
  201c3c:	83 ec 04             	sub    $0x4,%esp
  201c3f:	6a 01                	push   $0x1
  201c41:	8d 45 e8             	lea    -0x18(%ebp),%eax
  201c44:	50                   	push   %eax
  201c45:	ff 75 08             	push   0x8(%ebp)
  201c48:	e8 5e f0 ff ff       	call   200cab <uint_to_hex>
  201c4d:	83 c4 10             	add    $0x10,%esp
  201c50:	89 45 f4             	mov    %eax,-0xc(%ebp)
  201c53:	8d 55 e8             	lea    -0x18(%ebp),%edx
  201c56:	8b 45 f4             	mov    -0xc(%ebp),%eax
  201c59:	01 d0                	add    %edx,%eax
  201c5b:	c6 00 0a             	movb   $0xa,(%eax)
  201c5e:	8b 45 f4             	mov    -0xc(%ebp),%eax
  201c61:	83 c0 01             	add    $0x1,%eax
  201c64:	c6 44 05 e8 00       	movb   $0x0,-0x18(%ebp,%eax,1)
  201c69:	83 ec 0c             	sub    $0xc,%esp
  201c6c:	8d 45 e8             	lea    -0x18(%ebp),%eax
  201c6f:	50                   	push   %eax
  201c70:	e8 fa fc ff ff       	call   20196f <terminal_writestring>
  201c75:	83 c4 10             	add    $0x10,%esp
  201c78:	90                   	nop
  201c79:	c9                   	leave
  201c7a:	c3                   	ret

00201c7b <print_hex_var_no_newline>:
  201c7b:	55                   	push   %ebp
  201c7c:	89 e5                	mov    %esp,%ebp
  201c7e:	83 ec 18             	sub    $0x18,%esp
  201c81:	83 ec 04             	sub    $0x4,%esp
  201c84:	6a 01                	push   $0x1
  201c86:	8d 45 e8             	lea    -0x18(%ebp),%eax
  201c89:	50                   	push   %eax
  201c8a:	ff 75 08             	push   0x8(%ebp)
  201c8d:	e8 19 f0 ff ff       	call   200cab <uint_to_hex>
  201c92:	83 c4 10             	add    $0x10,%esp
  201c95:	89 45 f4             	mov    %eax,-0xc(%ebp)
  201c98:	8d 55 e8             	lea    -0x18(%ebp),%edx
  201c9b:	8b 45 f4             	mov    -0xc(%ebp),%eax
  201c9e:	01 d0                	add    %edx,%eax
  201ca0:	c6 00 00             	movb   $0x0,(%eax)
  201ca3:	83 ec 0c             	sub    $0xc,%esp
  201ca6:	8d 45 e8             	lea    -0x18(%ebp),%eax
  201ca9:	50                   	push   %eax
  201caa:	e8 c0 fc ff ff       	call   20196f <terminal_writestring>
  201caf:	83 c4 10             	add    $0x10,%esp
  201cb2:	90                   	nop
  201cb3:	c9                   	leave
  201cb4:	c3                   	ret

00201cb5 <print_hex_ptr>:
  201cb5:	55                   	push   %ebp
  201cb6:	89 e5                	mov    %esp,%ebp
  201cb8:	83 ec 18             	sub    $0x18,%esp
  201cbb:	83 ec 04             	sub    $0x4,%esp
  201cbe:	6a 01                	push   $0x1
  201cc0:	8d 45 e8             	lea    -0x18(%ebp),%eax
  201cc3:	50                   	push   %eax
  201cc4:	ff 75 08             	push   0x8(%ebp)
  201cc7:	e8 b8 f0 ff ff       	call   200d84 <ptr_to_hex>
  201ccc:	83 c4 10             	add    $0x10,%esp
  201ccf:	89 45 f4             	mov    %eax,-0xc(%ebp)
  201cd2:	8d 55 e8             	lea    -0x18(%ebp),%edx
  201cd5:	8b 45 f4             	mov    -0xc(%ebp),%eax
  201cd8:	01 d0                	add    %edx,%eax
  201cda:	c6 00 0a             	movb   $0xa,(%eax)
  201cdd:	8b 45 f4             	mov    -0xc(%ebp),%eax
  201ce0:	83 c0 01             	add    $0x1,%eax
  201ce3:	c6 44 05 e8 00       	movb   $0x0,-0x18(%ebp,%eax,1)
  201ce8:	83 ec 0c             	sub    $0xc,%esp
  201ceb:	8d 45 e8             	lea    -0x18(%ebp),%eax
  201cee:	50                   	push   %eax
  201cef:	e8 7b fc ff ff       	call   20196f <terminal_writestring>
  201cf4:	83 c4 10             	add    $0x10,%esp
  201cf7:	90                   	nop
  201cf8:	c9                   	leave
  201cf9:	c3                   	ret

00201cfa <print_uint_var>:
  201cfa:	55                   	push   %ebp
  201cfb:	89 e5                	mov    %esp,%ebp
  201cfd:	83 ec 18             	sub    $0x18,%esp
  201d00:	83 ec 08             	sub    $0x8,%esp
  201d03:	8d 45 e8             	lea    -0x18(%ebp),%eax
  201d06:	50                   	push   %eax
  201d07:	ff 75 08             	push   0x8(%ebp)
  201d0a:	e8 b7 ec ff ff       	call   2009c6 <uitoa>
  201d0f:	83 c4 10             	add    $0x10,%esp
  201d12:	89 45 f4             	mov    %eax,-0xc(%ebp)
  201d15:	8d 55 e8             	lea    -0x18(%ebp),%edx
  201d18:	8b 45 f4             	mov    -0xc(%ebp),%eax
  201d1b:	01 d0                	add    %edx,%eax
  201d1d:	c6 00 0a             	movb   $0xa,(%eax)
  201d20:	8b 45 f4             	mov    -0xc(%ebp),%eax
  201d23:	83 c0 01             	add    $0x1,%eax
  201d26:	c6 44 05 e8 00       	movb   $0x0,-0x18(%ebp,%eax,1)
  201d2b:	83 ec 0c             	sub    $0xc,%esp
  201d2e:	8d 45 e8             	lea    -0x18(%ebp),%eax
  201d31:	50                   	push   %eax
  201d32:	e8 38 fc ff ff       	call   20196f <terminal_writestring>
  201d37:	83 c4 10             	add    $0x10,%esp
  201d3a:	90                   	nop
  201d3b:	c9                   	leave
  201d3c:	c3                   	ret

00201d3d <print_uint_var_no_newline>:
  201d3d:	55                   	push   %ebp
  201d3e:	89 e5                	mov    %esp,%ebp
  201d40:	83 ec 28             	sub    $0x28,%esp
  201d43:	83 ec 08             	sub    $0x8,%esp
  201d46:	8d 45 e0             	lea    -0x20(%ebp),%eax
  201d49:	50                   	push   %eax
  201d4a:	ff 75 08             	push   0x8(%ebp)
  201d4d:	e8 74 ec ff ff       	call   2009c6 <uitoa>
  201d52:	83 c4 10             	add    $0x10,%esp
  201d55:	89 45 f4             	mov    %eax,-0xc(%ebp)
  201d58:	8d 55 e0             	lea    -0x20(%ebp),%edx
  201d5b:	8b 45 f4             	mov    -0xc(%ebp),%eax
  201d5e:	01 d0                	add    %edx,%eax
  201d60:	c6 00 00             	movb   $0x0,(%eax)
  201d63:	83 ec 0c             	sub    $0xc,%esp
  201d66:	8d 45 e0             	lea    -0x20(%ebp),%eax
  201d69:	50                   	push   %eax
  201d6a:	e8 00 fc ff ff       	call   20196f <terminal_writestring>
  201d6f:	83 c4 10             	add    $0x10,%esp
  201d72:	90                   	nop
  201d73:	c9                   	leave
  201d74:	c3                   	ret

00201d75 <print_float_var_no_newline>:
  201d75:	55                   	push   %ebp
  201d76:	89 e5                	mov    %esp,%ebp
  201d78:	83 ec 28             	sub    $0x28,%esp
  201d7b:	83 ec 04             	sub    $0x4,%esp
  201d7e:	6a 06                	push   $0x6
  201d80:	8d 45 e0             	lea    -0x20(%ebp),%eax
  201d83:	50                   	push   %eax
  201d84:	ff 75 08             	push   0x8(%ebp)
  201d87:	e8 20 ed ff ff       	call   200aac <ftoa>
  201d8c:	83 c4 10             	add    $0x10,%esp
  201d8f:	89 45 f4             	mov    %eax,-0xc(%ebp)
  201d92:	8d 55 e0             	lea    -0x20(%ebp),%edx
  201d95:	8b 45 f4             	mov    -0xc(%ebp),%eax
  201d98:	01 d0                	add    %edx,%eax
  201d9a:	c6 00 00             	movb   $0x0,(%eax)
  201d9d:	83 ec 0c             	sub    $0xc,%esp
  201da0:	8d 45 e0             	lea    -0x20(%ebp),%eax
  201da3:	50                   	push   %eax
  201da4:	e8 c6 fb ff ff       	call   20196f <terminal_writestring>
  201da9:	83 c4 10             	add    $0x10,%esp
  201dac:	90                   	nop
  201dad:	c9                   	leave
  201dae:	c3                   	ret

00201daf <min>:
  201daf:	55                   	push   %ebp
  201db0:	89 e5                	mov    %esp,%ebp
  201db2:	83 ec 08             	sub    $0x8,%esp
  201db5:	8b 55 08             	mov    0x8(%ebp),%edx
  201db8:	8b 45 0c             	mov    0xc(%ebp),%eax
  201dbb:	88 55 fc             	mov    %dl,-0x4(%ebp)
  201dbe:	88 45 f8             	mov    %al,-0x8(%ebp)
  201dc1:	0f b6 45 fc          	movzbl -0x4(%ebp),%eax
  201dc5:	3a 45 f8             	cmp    -0x8(%ebp),%al
  201dc8:	73 06                	jae    201dd0 <min+0x21>
  201dca:	0f b6 45 fc          	movzbl -0x4(%ebp),%eax
  201dce:	eb 04                	jmp    201dd4 <min+0x25>
  201dd0:	0f b6 45 f8          	movzbl -0x8(%ebp),%eax
  201dd4:	c9                   	leave
  201dd5:	c3                   	ret

00201dd6 <print_float_var_no_newline_precision>:
  201dd6:	55                   	push   %ebp
  201dd7:	89 e5                	mov    %esp,%ebp
  201dd9:	53                   	push   %ebx
  201dda:	83 ec 24             	sub    $0x24,%esp
  201ddd:	8b 45 0c             	mov    0xc(%ebp),%eax
  201de0:	88 45 e4             	mov    %al,-0x1c(%ebp)
  201de3:	89 e0                	mov    %esp,%eax
  201de5:	89 c3                	mov    %eax,%ebx
  201de7:	c6 45 f7 06          	movb   $0x6,-0x9(%ebp)
  201deb:	0f b6 55 f7          	movzbl -0x9(%ebp),%edx
  201def:	0f b6 45 e4          	movzbl -0x1c(%ebp),%eax
  201df3:	52                   	push   %edx
  201df4:	50                   	push   %eax
  201df5:	e8 b5 ff ff ff       	call   201daf <min>
  201dfa:	83 c4 08             	add    $0x8,%esp
  201dfd:	88 45 e4             	mov    %al,-0x1c(%ebp)
  201e00:	c6 45 f6 26          	movb   $0x26,-0xa(%ebp)
  201e04:	c6 45 f5 04          	movb   $0x4,-0xb(%ebp)
  201e08:	0f b6 55 f6          	movzbl -0xa(%ebp),%edx
  201e0c:	0f b6 45 f5          	movzbl -0xb(%ebp),%eax
  201e10:	01 c2                	add    %eax,%edx
  201e12:	0f b6 45 f7          	movzbl -0x9(%ebp),%eax
  201e16:	01 d0                	add    %edx,%eax
  201e18:	88 45 f4             	mov    %al,-0xc(%ebp)
  201e1b:	0f b6 45 f4          	movzbl -0xc(%ebp),%eax
  201e1f:	83 e8 01             	sub    $0x1,%eax
  201e22:	89 45 f0             	mov    %eax,-0x10(%ebp)
  201e25:	0f b6 45 f4          	movzbl -0xc(%ebp),%eax
  201e29:	ba 10 00 00 00       	mov    $0x10,%edx
  201e2e:	83 ea 01             	sub    $0x1,%edx
  201e31:	01 d0                	add    %edx,%eax
  201e33:	b9 10 00 00 00       	mov    $0x10,%ecx
  201e38:	ba 00 00 00 00       	mov    $0x0,%edx
  201e3d:	f7 f1                	div    %ecx
  201e3f:	6b c0 10             	imul   $0x10,%eax,%eax
  201e42:	29 c4                	sub    %eax,%esp
  201e44:	89 e0                	mov    %esp,%eax
  201e46:	89 45 ec             	mov    %eax,-0x14(%ebp)
  201e49:	0f b6 45 e4          	movzbl -0x1c(%ebp),%eax
  201e4d:	83 ec 04             	sub    $0x4,%esp
  201e50:	50                   	push   %eax
  201e51:	ff 75 ec             	push   -0x14(%ebp)
  201e54:	ff 75 08             	push   0x8(%ebp)
  201e57:	e8 50 ec ff ff       	call   200aac <ftoa>
  201e5c:	83 c4 10             	add    $0x10,%esp
  201e5f:	89 45 e8             	mov    %eax,-0x18(%ebp)
  201e62:	8b 55 ec             	mov    -0x14(%ebp),%edx
  201e65:	8b 45 e8             	mov    -0x18(%ebp),%eax
  201e68:	01 d0                	add    %edx,%eax
  201e6a:	c6 00 00             	movb   $0x0,(%eax)
  201e6d:	83 ec 0c             	sub    $0xc,%esp
  201e70:	ff 75 ec             	push   -0x14(%ebp)
  201e73:	e8 f7 fa ff ff       	call   20196f <terminal_writestring>
  201e78:	83 c4 10             	add    $0x10,%esp
  201e7b:	89 dc                	mov    %ebx,%esp
  201e7d:	90                   	nop
  201e7e:	8b 5d fc             	mov    -0x4(%ebp),%ebx
  201e81:	c9                   	leave
  201e82:	c3                   	ret

00201e83 <print_something>:
  201e83:	55                   	push   %ebp
  201e84:	89 e5                	mov    %esp,%ebp
  201e86:	83 ec 28             	sub    $0x28,%esp
  201e89:	c7 45 f4 00 00 00 00 	movl   $0x0,-0xc(%ebp)
  201e90:	eb 56                	jmp    201ee8 <print_something+0x65>
  201e92:	83 ec 08             	sub    $0x8,%esp
  201e95:	8d 45 e4             	lea    -0x1c(%ebp),%eax
  201e98:	50                   	push   %eax
  201e99:	ff 75 f4             	push   -0xc(%ebp)
  201e9c:	e8 01 ea ff ff       	call   2008a2 <itoa>
  201ea1:	83 c4 10             	add    $0x10,%esp
  201ea4:	89 45 f0             	mov    %eax,-0x10(%ebp)
  201ea7:	8d 55 e4             	lea    -0x1c(%ebp),%edx
  201eaa:	8b 45 f0             	mov    -0x10(%ebp),%eax
  201ead:	01 d0                	add    %edx,%eax
  201eaf:	c6 00 0a             	movb   $0xa,(%eax)
  201eb2:	8b 45 f0             	mov    -0x10(%ebp),%eax
  201eb5:	83 c0 01             	add    $0x1,%eax
  201eb8:	c6 44 05 e4 00       	movb   $0x0,-0x1c(%ebp,%eax,1)
  201ebd:	83 ec 0c             	sub    $0xc,%esp
  201ec0:	8d 45 e4             	lea    -0x1c(%ebp),%eax
  201ec3:	50                   	push   %eax
  201ec4:	e8 a6 fa ff ff       	call   20196f <terminal_writestring>
  201ec9:	83 c4 10             	add    $0x10,%esp
  201ecc:	83 ec 0c             	sub    $0xc,%esp
  201ecf:	d9 05 4c 56 20 00    	flds   0x20564c
  201ed5:	8d 64 24 fc          	lea    -0x4(%esp),%esp
  201ed9:	d9 1c 24             	fstps  (%esp)
  201edc:	e8 81 17 00 00       	call   203662 <wait>
  201ee1:	83 c4 10             	add    $0x10,%esp
  201ee4:	83 45 f4 01          	addl   $0x1,-0xc(%ebp)
  201ee8:	83 7d f4 09          	cmpl   $0x9,-0xc(%ebp)
  201eec:	7e a4                	jle    201e92 <print_something+0xf>
  201eee:	90                   	nop
  201eef:	90                   	nop
  201ef0:	c9                   	leave
  201ef1:	c3                   	ret

00201ef2 <print_extern_address>:
  201ef2:	55                   	push   %ebp
  201ef3:	89 e5                	mov    %esp,%ebp
  201ef5:	83 ec 18             	sub    $0x18,%esp
  201ef8:	83 ec 0c             	sub    $0xc,%esp
  201efb:	ff 75 08             	push   0x8(%ebp)
  201efe:	e8 6c fa ff ff       	call   20196f <terminal_writestring>
  201f03:	83 c4 10             	add    $0x10,%esp
  201f06:	8b 45 0c             	mov    0xc(%ebp),%eax
  201f09:	ff d0                	call   *%eax
  201f0b:	89 45 f4             	mov    %eax,-0xc(%ebp)
  201f0e:	83 ec 0c             	sub    $0xc,%esp
  201f11:	ff 75 f4             	push   -0xc(%ebp)
  201f14:	e8 9c fd ff ff       	call   201cb5 <print_hex_ptr>
  201f19:	83 c4 10             	add    $0x10,%esp
  201f1c:	83 ec 0c             	sub    $0xc,%esp
  201f1f:	68 3d 56 20 00       	push   $0x20563d
  201f24:	e8 46 fa ff ff       	call   20196f <terminal_writestring>
  201f29:	83 c4 10             	add    $0x10,%esp
  201f2c:	8b 45 f4             	mov    -0xc(%ebp),%eax
  201f2f:	c9                   	leave
  201f30:	c3                   	ret

00201f31 <terminal_write_uint>:
  201f31:	55                   	push   %ebp
  201f32:	89 e5                	mov    %esp,%ebp
  201f34:	83 ec 08             	sub    $0x8,%esp
  201f37:	83 ec 0c             	sub    $0xc,%esp
  201f3a:	ff 75 08             	push   0x8(%ebp)
  201f3d:	e8 2d fa ff ff       	call   20196f <terminal_writestring>
  201f42:	83 c4 10             	add    $0x10,%esp
  201f45:	83 ec 0c             	sub    $0xc,%esp
  201f48:	ff 75 0c             	push   0xc(%ebp)
  201f4b:	e8 aa fd ff ff       	call   201cfa <print_uint_var>
  201f50:	83 c4 10             	add    $0x10,%esp
  201f53:	90                   	nop
  201f54:	c9                   	leave
  201f55:	c3                   	ret

00201f56 <terminal_write_uint_no_newline>:
  201f56:	55                   	push   %ebp
  201f57:	89 e5                	mov    %esp,%ebp
  201f59:	83 ec 08             	sub    $0x8,%esp
  201f5c:	83 ec 0c             	sub    $0xc,%esp
  201f5f:	ff 75 08             	push   0x8(%ebp)
  201f62:	e8 08 fa ff ff       	call   20196f <terminal_writestring>
  201f67:	83 c4 10             	add    $0x10,%esp
  201f6a:	83 ec 0c             	sub    $0xc,%esp
  201f6d:	ff 75 0c             	push   0xc(%ebp)
  201f70:	e8 c8 fd ff ff       	call   201d3d <print_uint_var_no_newline>
  201f75:	83 c4 10             	add    $0x10,%esp
  201f78:	90                   	nop
  201f79:	c9                   	leave
  201f7a:	c3                   	ret

00201f7b <terminal_write_hex>:
  201f7b:	55                   	push   %ebp
  201f7c:	89 e5                	mov    %esp,%ebp
  201f7e:	83 ec 08             	sub    $0x8,%esp
  201f81:	83 ec 0c             	sub    $0xc,%esp
  201f84:	ff 75 08             	push   0x8(%ebp)
  201f87:	e8 e3 f9 ff ff       	call   20196f <terminal_writestring>
  201f8c:	83 c4 10             	add    $0x10,%esp
  201f8f:	83 ec 0c             	sub    $0xc,%esp
  201f92:	ff 75 0c             	push   0xc(%ebp)
  201f95:	e8 9c fc ff ff       	call   201c36 <print_hex_var>
  201f9a:	83 c4 10             	add    $0x10,%esp
  201f9d:	90                   	nop
  201f9e:	c9                   	leave
  201f9f:	c3                   	ret

00201fa0 <terminal_write_ptr>:
  201fa0:	55                   	push   %ebp
  201fa1:	89 e5                	mov    %esp,%ebp
  201fa3:	83 ec 08             	sub    $0x8,%esp
  201fa6:	83 ec 0c             	sub    $0xc,%esp
  201fa9:	ff 75 08             	push   0x8(%ebp)
  201fac:	e8 be f9 ff ff       	call   20196f <terminal_writestring>
  201fb1:	83 c4 10             	add    $0x10,%esp
  201fb4:	83 ec 0c             	sub    $0xc,%esp
  201fb7:	ff 75 0c             	push   0xc(%ebp)
  201fba:	e8 f6 fc ff ff       	call   201cb5 <print_hex_ptr>
  201fbf:	83 c4 10             	add    $0x10,%esp
  201fc2:	90                   	nop
  201fc3:	c9                   	leave
  201fc4:	c3                   	ret

00201fc5 <print_extern_address16>:
  201fc5:	55                   	push   %ebp
  201fc6:	89 e5                	mov    %esp,%ebp
  201fc8:	83 ec 18             	sub    $0x18,%esp
  201fcb:	83 ec 0c             	sub    $0xc,%esp
  201fce:	ff 75 08             	push   0x8(%ebp)
  201fd1:	e8 99 f9 ff ff       	call   20196f <terminal_writestring>
  201fd6:	83 c4 10             	add    $0x10,%esp
  201fd9:	8b 45 0c             	mov    0xc(%ebp),%eax
  201fdc:	ff d0                	call   *%eax
  201fde:	66 89 45 f6          	mov    %ax,-0xa(%ebp)
  201fe2:	0f b7 45 f6          	movzwl -0xa(%ebp),%eax
  201fe6:	83 ec 0c             	sub    $0xc,%esp
  201fe9:	50                   	push   %eax
  201fea:	e8 cc fb ff ff       	call   201bbb <print_int_var>
  201fef:	83 c4 10             	add    $0x10,%esp
  201ff2:	90                   	nop
  201ff3:	c9                   	leave
  201ff4:	c3                   	ret

00201ff5 <_abort>:
  201ff5:	55                   	push   %ebp
  201ff6:	89 e5                	mov    %esp,%ebp
  201ff8:	83 ec 08             	sub    $0x8,%esp
  201ffb:	83 ec 0c             	sub    $0xc,%esp
  201ffe:	68 50 56 20 00       	push   $0x205650
  202003:	e8 67 f9 ff ff       	call   20196f <terminal_writestring>
  202008:	83 c4 10             	add    $0x10,%esp
  20200b:	fa                   	cli
  20200c:	f4                   	hlt
  20200d:	eb fc                	jmp    20200b <_abort+0x16>

0020200f <_abort_msg>:
  20200f:	55                   	push   %ebp
  202010:	89 e5                	mov    %esp,%ebp
  202012:	83 ec 08             	sub    $0x8,%esp
  202015:	83 ec 0c             	sub    $0xc,%esp
  202018:	ff 75 0c             	push   0xc(%ebp)
  20201b:	ff 75 10             	push   0x10(%ebp)
  20201e:	ff 75 08             	push   0x8(%ebp)
  202021:	68 59 56 20 00       	push   $0x205659
  202026:	6a 04                	push   $0x4
  202028:	e8 a6 05 00 00       	call   2025d3 <kprintf_argc>
  20202d:	83 c4 20             	add    $0x20,%esp
  202030:	e8 c0 ff ff ff       	call   201ff5 <_abort>

00202035 <is_digit>:
  202035:	55                   	push   %ebp
  202036:	89 e5                	mov    %esp,%ebp
  202038:	83 ec 04             	sub    $0x4,%esp
  20203b:	8b 45 08             	mov    0x8(%ebp),%eax
  20203e:	88 45 fc             	mov    %al,-0x4(%ebp)
  202041:	80 7d fc 2f          	cmpb   $0x2f,-0x4(%ebp)
  202045:	7e 0d                	jle    202054 <is_digit+0x1f>
  202047:	80 7d fc 39          	cmpb   $0x39,-0x4(%ebp)
  20204b:	7f 07                	jg     202054 <is_digit+0x1f>
  20204d:	b8 01 00 00 00       	mov    $0x1,%eax
  202052:	eb 05                	jmp    202059 <is_digit+0x24>
  202054:	b8 00 00 00 00       	mov    $0x0,%eax
  202059:	c9                   	leave
  20205a:	c3                   	ret

0020205b <char_to_fmt_option>:
  20205b:	55                   	push   %ebp
  20205c:	89 e5                	mov    %esp,%ebp
  20205e:	83 ec 04             	sub    $0x4,%esp
  202061:	8b 45 08             	mov    0x8(%ebp),%eax
  202064:	88 45 fc             	mov    %al,-0x4(%ebp)
  202067:	0f be 45 fc          	movsbl -0x4(%ebp),%eax
  20206b:	83 f8 2e             	cmp    $0x2e,%eax
  20206e:	74 0c                	je     20207c <char_to_fmt_option+0x21>
  202070:	83 f8 3a             	cmp    $0x3a,%eax
  202073:	75 0e                	jne    202083 <char_to_fmt_option+0x28>
  202075:	b8 3a 00 00 00       	mov    $0x3a,%eax
  20207a:	eb 0c                	jmp    202088 <char_to_fmt_option+0x2d>
  20207c:	b8 2e 00 00 00       	mov    $0x2e,%eax
  202081:	eb 05                	jmp    202088 <char_to_fmt_option+0x2d>
  202083:	b8 00 00 00 00       	mov    $0x0,%eax
  202088:	c9                   	leave
  202089:	c3                   	ret

0020208a <char_to_printf_tag>:
  20208a:	55                   	push   %ebp
  20208b:	89 e5                	mov    %esp,%ebp
  20208d:	83 ec 04             	sub    $0x4,%esp
  202090:	8b 45 08             	mov    0x8(%ebp),%eax
  202093:	88 45 fc             	mov    %al,-0x4(%ebp)
  202096:	0f be 45 fc          	movsbl -0x4(%ebp),%eax
  20209a:	83 f8 75             	cmp    $0x75,%eax
  20209d:	74 4c                	je     2020eb <char_to_printf_tag+0x61>
  20209f:	83 f8 75             	cmp    $0x75,%eax
  2020a2:	7f 63                	jg     202107 <char_to_printf_tag+0x7d>
  2020a4:	83 f8 73             	cmp    $0x73,%eax
  2020a7:	74 34                	je     2020dd <char_to_printf_tag+0x53>
  2020a9:	83 f8 73             	cmp    $0x73,%eax
  2020ac:	7f 59                	jg     202107 <char_to_printf_tag+0x7d>
  2020ae:	83 f8 68             	cmp    $0x68,%eax
  2020b1:	74 46                	je     2020f9 <char_to_printf_tag+0x6f>
  2020b3:	83 f8 68             	cmp    $0x68,%eax
  2020b6:	7f 4f                	jg     202107 <char_to_printf_tag+0x7d>
  2020b8:	83 f8 66             	cmp    $0x66,%eax
  2020bb:	74 35                	je     2020f2 <char_to_printf_tag+0x68>
  2020bd:	83 f8 66             	cmp    $0x66,%eax
  2020c0:	7f 45                	jg     202107 <char_to_printf_tag+0x7d>
  2020c2:	83 f8 64             	cmp    $0x64,%eax
  2020c5:	74 1d                	je     2020e4 <char_to_printf_tag+0x5a>
  2020c7:	83 f8 64             	cmp    $0x64,%eax
  2020ca:	7f 3b                	jg     202107 <char_to_printf_tag+0x7d>
  2020cc:	83 f8 62             	cmp    $0x62,%eax
  2020cf:	74 2f                	je     202100 <char_to_printf_tag+0x76>
  2020d1:	83 f8 63             	cmp    $0x63,%eax
  2020d4:	75 31                	jne    202107 <char_to_printf_tag+0x7d>
  2020d6:	b8 63 00 00 00       	mov    $0x63,%eax
  2020db:	eb 2f                	jmp    20210c <char_to_printf_tag+0x82>
  2020dd:	b8 73 00 00 00       	mov    $0x73,%eax
  2020e2:	eb 28                	jmp    20210c <char_to_printf_tag+0x82>
  2020e4:	b8 64 00 00 00       	mov    $0x64,%eax
  2020e9:	eb 21                	jmp    20210c <char_to_printf_tag+0x82>
  2020eb:	b8 75 00 00 00       	mov    $0x75,%eax
  2020f0:	eb 1a                	jmp    20210c <char_to_printf_tag+0x82>
  2020f2:	b8 66 00 00 00       	mov    $0x66,%eax
  2020f7:	eb 13                	jmp    20210c <char_to_printf_tag+0x82>
  2020f9:	b8 68 00 00 00       	mov    $0x68,%eax
  2020fe:	eb 0c                	jmp    20210c <char_to_printf_tag+0x82>
  202100:	b8 62 00 00 00       	mov    $0x62,%eax
  202105:	eb 05                	jmp    20210c <char_to_printf_tag+0x82>
  202107:	b8 00 00 00 00       	mov    $0x0,%eax
  20210c:	c9                   	leave
  20210d:	c3                   	ret

0020210e <printf_fmt_option_to_str>:
  20210e:	55                   	push   %ebp
  20210f:	89 e5                	mov    %esp,%ebp
  202111:	83 7d 08 3a          	cmpl   $0x3a,0x8(%ebp)
  202115:	74 41                	je     202158 <printf_fmt_option_to_str+0x4a>
  202117:	83 7d 08 3a          	cmpl   $0x3a,0x8(%ebp)
  20211b:	77 49                	ja     202166 <printf_fmt_option_to_str+0x58>
  20211d:	83 7d 08 2e          	cmpl   $0x2e,0x8(%ebp)
  202121:	74 3c                	je     20215f <printf_fmt_option_to_str+0x51>
  202123:	83 7d 08 2e          	cmpl   $0x2e,0x8(%ebp)
  202127:	77 3d                	ja     202166 <printf_fmt_option_to_str+0x58>
  202129:	83 7d 08 02          	cmpl   $0x2,0x8(%ebp)
  20212d:	74 22                	je     202151 <printf_fmt_option_to_str+0x43>
  20212f:	83 7d 08 02          	cmpl   $0x2,0x8(%ebp)
  202133:	77 31                	ja     202166 <printf_fmt_option_to_str+0x58>
  202135:	83 7d 08 00          	cmpl   $0x0,0x8(%ebp)
  202139:	74 08                	je     202143 <printf_fmt_option_to_str+0x35>
  20213b:	83 7d 08 01          	cmpl   $0x1,0x8(%ebp)
  20213f:	74 09                	je     20214a <printf_fmt_option_to_str+0x3c>
  202141:	eb 23                	jmp    202166 <printf_fmt_option_to_str+0x58>
  202143:	b8 70 56 20 00       	mov    $0x205670,%eax
  202148:	eb 21                	jmp    20216b <printf_fmt_option_to_str+0x5d>
  20214a:	b8 80 56 20 00       	mov    $0x205680,%eax
  20214f:	eb 1a                	jmp    20216b <printf_fmt_option_to_str+0x5d>
  202151:	b8 9b 56 20 00       	mov    $0x20569b,%eax
  202156:	eb 13                	jmp    20216b <printf_fmt_option_to_str+0x5d>
  202158:	b8 b8 56 20 00       	mov    $0x2056b8,%eax
  20215d:	eb 0c                	jmp    20216b <printf_fmt_option_to_str+0x5d>
  20215f:	b8 c7 56 20 00       	mov    $0x2056c7,%eax
  202164:	eb 05                	jmp    20216b <printf_fmt_option_to_str+0x5d>
  202166:	b8 dc 56 20 00       	mov    $0x2056dc,%eax
  20216b:	5d                   	pop    %ebp
  20216c:	c3                   	ret

0020216d <printf_type_to_str>:
  20216d:	55                   	push   %ebp
  20216e:	89 e5                	mov    %esp,%ebp
  202170:	83 7d 08 75          	cmpl   $0x75,0x8(%ebp)
  202174:	74 69                	je     2021df <printf_type_to_str+0x72>
  202176:	83 7d 08 75          	cmpl   $0x75,0x8(%ebp)
  20217a:	0f 87 82 00 00 00    	ja     202202 <printf_type_to_str+0x95>
  202180:	83 7d 08 73          	cmpl   $0x73,0x8(%ebp)
  202184:	74 4b                	je     2021d1 <printf_type_to_str+0x64>
  202186:	83 7d 08 73          	cmpl   $0x73,0x8(%ebp)
  20218a:	77 76                	ja     202202 <printf_type_to_str+0x95>
  20218c:	83 7d 08 68          	cmpl   $0x68,0x8(%ebp)
  202190:	74 5b                	je     2021ed <printf_type_to_str+0x80>
  202192:	83 7d 08 68          	cmpl   $0x68,0x8(%ebp)
  202196:	77 6a                	ja     202202 <printf_type_to_str+0x95>
  202198:	83 7d 08 66          	cmpl   $0x66,0x8(%ebp)
  20219c:	74 48                	je     2021e6 <printf_type_to_str+0x79>
  20219e:	83 7d 08 66          	cmpl   $0x66,0x8(%ebp)
  2021a2:	77 5e                	ja     202202 <printf_type_to_str+0x95>
  2021a4:	83 7d 08 64          	cmpl   $0x64,0x8(%ebp)
  2021a8:	74 2e                	je     2021d8 <printf_type_to_str+0x6b>
  2021aa:	83 7d 08 64          	cmpl   $0x64,0x8(%ebp)
  2021ae:	77 52                	ja     202202 <printf_type_to_str+0x95>
  2021b0:	83 7d 08 63          	cmpl   $0x63,0x8(%ebp)
  2021b4:	74 14                	je     2021ca <printf_type_to_str+0x5d>
  2021b6:	83 7d 08 63          	cmpl   $0x63,0x8(%ebp)
  2021ba:	77 46                	ja     202202 <printf_type_to_str+0x95>
  2021bc:	83 7d 08 00          	cmpl   $0x0,0x8(%ebp)
  2021c0:	74 39                	je     2021fb <printf_type_to_str+0x8e>
  2021c2:	83 7d 08 62          	cmpl   $0x62,0x8(%ebp)
  2021c6:	74 2c                	je     2021f4 <printf_type_to_str+0x87>
  2021c8:	eb 38                	jmp    202202 <printf_type_to_str+0x95>
  2021ca:	b8 e8 56 20 00       	mov    $0x2056e8,%eax
  2021cf:	eb 36                	jmp    202207 <printf_type_to_str+0x9a>
  2021d1:	b8 f8 56 20 00       	mov    $0x2056f8,%eax
  2021d6:	eb 2f                	jmp    202207 <printf_type_to_str+0x9a>
  2021d8:	b8 0a 57 20 00       	mov    $0x20570a,%eax
  2021dd:	eb 28                	jmp    202207 <printf_type_to_str+0x9a>
  2021df:	b8 19 57 20 00       	mov    $0x205719,%eax
  2021e4:	eb 21                	jmp    202207 <printf_type_to_str+0x9a>
  2021e6:	b8 2d 57 20 00       	mov    $0x20572d,%eax
  2021eb:	eb 1a                	jmp    202207 <printf_type_to_str+0x9a>
  2021ed:	b8 3e 57 20 00       	mov    $0x20573e,%eax
  2021f2:	eb 13                	jmp    202207 <printf_type_to_str+0x9a>
  2021f4:	b8 4d 57 20 00       	mov    $0x20574d,%eax
  2021f9:	eb 0c                	jmp    202207 <printf_type_to_str+0x9a>
  2021fb:	b8 5f 57 20 00       	mov    $0x20575f,%eax
  202200:	eb 05                	jmp    202207 <printf_type_to_str+0x9a>
  202202:	b8 72 57 20 00       	mov    $0x205772,%eax
  202207:	5d                   	pop    %ebp
  202208:	c3                   	ret

00202209 <print_info>:
  202209:	55                   	push   %ebp
  20220a:	89 e5                	mov    %esp,%ebp
  20220c:	83 ec 08             	sub    $0x8,%esp
  20220f:	83 ec 0c             	sub    $0xc,%esp
  202212:	68 85 57 20 00       	push   $0x205785
  202217:	e8 53 f7 ff ff       	call   20196f <terminal_writestring>
  20221c:	83 c4 10             	add    $0x10,%esp
  20221f:	8b 45 08             	mov    0x8(%ebp),%eax
  202222:	83 ec 0c             	sub    $0xc,%esp
  202225:	50                   	push   %eax
  202226:	e8 42 ff ff ff       	call   20216d <printf_type_to_str>
  20222b:	83 c4 10             	add    $0x10,%esp
  20222e:	83 ec 0c             	sub    $0xc,%esp
  202231:	50                   	push   %eax
  202232:	e8 38 f7 ff ff       	call   20196f <terminal_writestring>
  202237:	83 c4 10             	add    $0x10,%esp
  20223a:	83 ec 0c             	sub    $0xc,%esp
  20223d:	68 8d 57 20 00       	push   $0x20578d
  202242:	e8 28 f7 ff ff       	call   20196f <terminal_writestring>
  202247:	83 c4 10             	add    $0x10,%esp
  20224a:	83 ec 0c             	sub    $0xc,%esp
  20224d:	68 8f 57 20 00       	push   $0x20578f
  202252:	e8 18 f7 ff ff       	call   20196f <terminal_writestring>
  202257:	83 c4 10             	add    $0x10,%esp
  20225a:	8b 45 0c             	mov    0xc(%ebp),%eax
  20225d:	83 ec 0c             	sub    $0xc,%esp
  202260:	50                   	push   %eax
  202261:	e8 a8 fe ff ff       	call   20210e <printf_fmt_option_to_str>
  202266:	83 c4 10             	add    $0x10,%esp
  202269:	83 ec 0c             	sub    $0xc,%esp
  20226c:	50                   	push   %eax
  20226d:	e8 fd f6 ff ff       	call   20196f <terminal_writestring>
  202272:	83 c4 10             	add    $0x10,%esp
  202275:	83 ec 0c             	sub    $0xc,%esp
  202278:	68 8d 57 20 00       	push   $0x20578d
  20227d:	e8 ed f6 ff ff       	call   20196f <terminal_writestring>
  202282:	83 c4 10             	add    $0x10,%esp
  202285:	0f b6 45 10          	movzbl 0x10(%ebp),%eax
  202289:	0f b6 c0             	movzbl %al,%eax
  20228c:	83 ec 08             	sub    $0x8,%esp
  20228f:	50                   	push   %eax
  202290:	68 99 57 20 00       	push   $0x205799
  202295:	e8 97 fc ff ff       	call   201f31 <terminal_write_uint>
  20229a:	83 c4 10             	add    $0x10,%esp
  20229d:	0f b6 45 11          	movzbl 0x11(%ebp),%eax
  2022a1:	0f b6 c0             	movzbl %al,%eax
  2022a4:	83 ec 08             	sub    $0x8,%esp
  2022a7:	50                   	push   %eax
  2022a8:	68 a7 57 20 00       	push   $0x2057a7
  2022ad:	e8 7f fc ff ff       	call   201f31 <terminal_write_uint>
  2022b2:	83 c4 10             	add    $0x10,%esp
  2022b5:	0f b7 45 12          	movzwl 0x12(%ebp),%eax
  2022b9:	0f b7 c0             	movzwl %ax,%eax
  2022bc:	83 ec 08             	sub    $0x8,%esp
  2022bf:	50                   	push   %eax
  2022c0:	68 ae 57 20 00       	push   $0x2057ae
  2022c5:	e8 67 fc ff ff       	call   201f31 <terminal_write_uint>
  2022ca:	83 c4 10             	add    $0x10,%esp
  2022cd:	90                   	nop
  2022ce:	c9                   	leave
  2022cf:	c3                   	ret

002022d0 <get_single_format_properties>:
  2022d0:	55                   	push   %ebp
  2022d1:	89 e5                	mov    %esp,%ebp
  2022d3:	83 ec 38             	sub    $0x38,%esp
  2022d6:	c6 45 f2 00          	movb   $0x0,-0xe(%ebp)
  2022da:	8b 45 0c             	mov    0xc(%ebp),%eax
  2022dd:	83 c0 01             	add    $0x1,%eax
  2022e0:	89 45 ec             	mov    %eax,-0x14(%ebp)
  2022e3:	8b 45 ec             	mov    -0x14(%ebp),%eax
  2022e6:	0f b6 00             	movzbl (%eax),%eax
  2022e9:	88 45 eb             	mov    %al,-0x15(%ebp)
  2022ec:	0f be 45 eb          	movsbl -0x15(%ebp),%eax
  2022f0:	50                   	push   %eax
  2022f1:	e8 94 fd ff ff       	call   20208a <char_to_printf_tag>
  2022f6:	83 c4 04             	add    $0x4,%esp
  2022f9:	89 45 d4             	mov    %eax,-0x2c(%ebp)
  2022fc:	8b 45 0c             	mov    0xc(%ebp),%eax
  2022ff:	83 c0 02             	add    $0x2,%eax
  202302:	0f b6 00             	movzbl (%eax),%eax
  202305:	88 45 ea             	mov    %al,-0x16(%ebp)
  202308:	0f be 45 ea          	movsbl -0x16(%ebp),%eax
  20230c:	50                   	push   %eax
  20230d:	e8 49 fd ff ff       	call   20205b <char_to_fmt_option>
  202312:	83 c4 04             	add    $0x4,%esp
  202315:	89 45 d8             	mov    %eax,-0x28(%ebp)
  202318:	8b 45 d8             	mov    -0x28(%ebp),%eax
  20231b:	85 c0                	test   %eax,%eax
  20231d:	75 21                	jne    202340 <get_single_format_properties+0x70>
  20231f:	c6 45 dd 02          	movb   $0x2,-0x23(%ebp)
  202323:	c6 45 dc 00          	movb   $0x0,-0x24(%ebp)
  202327:	8b 45 08             	mov    0x8(%ebp),%eax
  20232a:	8b 55 d4             	mov    -0x2c(%ebp),%edx
  20232d:	89 10                	mov    %edx,(%eax)
  20232f:	8b 55 d8             	mov    -0x28(%ebp),%edx
  202332:	89 50 04             	mov    %edx,0x4(%eax)
  202335:	8b 55 dc             	mov    -0x24(%ebp),%edx
  202338:	89 50 08             	mov    %edx,0x8(%eax)
  20233b:	e9 c7 00 00 00       	jmp    202407 <get_single_format_properties+0x137>
  202340:	8b 45 0c             	mov    0xc(%ebp),%eax
  202343:	83 c0 03             	add    $0x3,%eax
  202346:	89 45 f4             	mov    %eax,-0xc(%ebp)
  202349:	8b 45 f4             	mov    -0xc(%ebp),%eax
  20234c:	0f b6 00             	movzbl (%eax),%eax
  20234f:	0f be c0             	movsbl %al,%eax
  202352:	50                   	push   %eax
  202353:	e8 dd fc ff ff       	call   202035 <is_digit>
  202358:	83 c4 04             	add    $0x4,%esp
  20235b:	85 c0                	test   %eax,%eax
  20235d:	75 0c                	jne    20236b <get_single_format_properties+0x9b>
  20235f:	c7 45 d8 01 00 00 00 	movl   $0x1,-0x28(%ebp)
  202366:	e9 88 00 00 00       	jmp    2023f3 <get_single_format_properties+0x123>
  20236b:	c6 45 f3 03          	movb   $0x3,-0xd(%ebp)
  20236f:	c7 45 cc 00 00 00 00 	movl   $0x0,-0x34(%ebp)
  202376:	c7 45 d0 00 00 00 00 	movl   $0x0,-0x30(%ebp)
  20237d:	eb 1f                	jmp    20239e <get_single_format_properties+0xce>
  20237f:	0f b6 45 f3          	movzbl -0xd(%ebp),%eax
  202383:	8d 50 fd             	lea    -0x3(%eax),%edx
  202386:	8b 45 f4             	mov    -0xc(%ebp),%eax
  202389:	0f b6 00             	movzbl (%eax),%eax
  20238c:	88 44 15 cc          	mov    %al,-0x34(%ebp,%edx,1)
  202390:	83 45 f4 01          	addl   $0x1,-0xc(%ebp)
  202394:	0f b6 45 f3          	movzbl -0xd(%ebp),%eax
  202398:	83 c0 01             	add    $0x1,%eax
  20239b:	88 45 f3             	mov    %al,-0xd(%ebp)
  20239e:	8b 45 f4             	mov    -0xc(%ebp),%eax
  2023a1:	0f b6 00             	movzbl (%eax),%eax
  2023a4:	0f be c0             	movsbl %al,%eax
  2023a7:	50                   	push   %eax
  2023a8:	e8 88 fc ff ff       	call   202035 <is_digit>
  2023ad:	83 c4 04             	add    $0x4,%esp
  2023b0:	85 c0                	test   %eax,%eax
  2023b2:	75 cb                	jne    20237f <get_single_format_properties+0xaf>
  2023b4:	0f b6 45 f3          	movzbl -0xd(%ebp),%eax
  2023b8:	88 45 dd             	mov    %al,-0x23(%ebp)
  2023bb:	0f b6 45 f3          	movzbl -0xd(%ebp),%eax
  2023bf:	83 e8 03             	sub    $0x3,%eax
  2023c2:	c6 44 05 cc 00       	movb   $0x0,-0x34(%ebp,%eax,1)
  2023c7:	83 ec 0c             	sub    $0xc,%esp
  2023ca:	8d 45 cc             	lea    -0x34(%ebp),%eax
  2023cd:	50                   	push   %eax
  2023ce:	e8 5b e8 ff ff       	call   200c2e <string_to_uint>
  2023d3:	83 c4 10             	add    $0x10,%esp
  2023d6:	89 45 e4             	mov    %eax,-0x1c(%ebp)
  2023d9:	83 7d e4 ff          	cmpl   $0xffffffff,-0x1c(%ebp)
  2023dd:	75 07                	jne    2023e6 <get_single_format_properties+0x116>
  2023df:	c7 45 d8 02 00 00 00 	movl   $0x2,-0x28(%ebp)
  2023e6:	8b 45 e4             	mov    -0x1c(%ebp),%eax
  2023e9:	88 45 e3             	mov    %al,-0x1d(%ebp)
  2023ec:	0f b6 45 e3          	movzbl -0x1d(%ebp),%eax
  2023f0:	88 45 dc             	mov    %al,-0x24(%ebp)
  2023f3:	8b 45 08             	mov    0x8(%ebp),%eax
  2023f6:	8b 55 d4             	mov    -0x2c(%ebp),%edx
  2023f9:	89 10                	mov    %edx,(%eax)
  2023fb:	8b 55 d8             	mov    -0x28(%ebp),%edx
  2023fe:	89 50 04             	mov    %edx,0x4(%eax)
  202401:	8b 55 dc             	mov    -0x24(%ebp),%edx
  202404:	89 50 08             	mov    %edx,0x8(%eax)
  202407:	8b 45 08             	mov    0x8(%ebp),%eax
  20240a:	c9                   	leave
  20240b:	c2 04 00             	ret    $0x4

0020240e <set_types_and_pos>:
  20240e:	55                   	push   %ebp
  20240f:	89 e5                	mov    %esp,%ebp
  202411:	83 ec 38             	sub    $0x38,%esp
  202414:	8b 45 10             	mov    0x10(%ebp),%eax
  202417:	88 45 d4             	mov    %al,-0x2c(%ebp)
  20241a:	8b 45 08             	mov    0x8(%ebp),%eax
  20241d:	89 45 f0             	mov    %eax,-0x10(%ebp)
  202420:	c6 45 f7 00          	movb   $0x0,-0x9(%ebp)
  202424:	66 c7 45 f4 00 00    	movw   $0x0,-0xc(%ebp)
  20242a:	c6 45 ef 00          	movb   $0x0,-0x11(%ebp)
  20242e:	e9 16 01 00 00       	jmp    202549 <set_types_and_pos+0x13b>
  202433:	0f b7 55 f4          	movzwl -0xc(%ebp),%edx
  202437:	8b 45 f0             	mov    -0x10(%ebp),%eax
  20243a:	01 d0                	add    %edx,%eax
  20243c:	0f b6 00             	movzbl (%eax),%eax
  20243f:	3c 25                	cmp    $0x25,%al
  202441:	0f 85 f7 00 00 00    	jne    20253e <set_types_and_pos+0x130>
  202447:	0f b6 45 d4          	movzbl -0x2c(%ebp),%eax
  20244b:	3a 45 f7             	cmp    -0x9(%ebp),%al
  20244e:	75 41                	jne    202491 <set_types_and_pos+0x83>
  202450:	0f b6 45 d4          	movzbl -0x2c(%ebp),%eax
  202454:	83 ec 08             	sub    $0x8,%esp
  202457:	50                   	push   %eax
  202458:	68 b5 57 20 00       	push   $0x2057b5
  20245d:	e8 cf fa ff ff       	call   201f31 <terminal_write_uint>
  202462:	83 c4 10             	add    $0x10,%esp
  202465:	0f b6 45 f7          	movzbl -0x9(%ebp),%eax
  202469:	83 ec 08             	sub    $0x8,%esp
  20246c:	50                   	push   %eax
  20246d:	68 c6 57 20 00       	push   $0x2057c6
  202472:	e8 ba fa ff ff       	call   201f31 <terminal_write_uint>
  202477:	83 c4 10             	add    $0x10,%esp
  20247a:	83 ec 04             	sub    $0x4,%esp
  20247d:	68 cf 57 20 00       	push   $0x2057cf
  202482:	68 b6 00 00 00       	push   $0xb6
  202487:	68 dd 57 20 00       	push   $0x2057dd
  20248c:	e8 7e fb ff ff       	call   20200f <_abort_msg>
  202491:	0f b7 55 f4          	movzwl -0xc(%ebp),%edx
  202495:	8b 45 f0             	mov    -0x10(%ebp),%eax
  202498:	01 d0                	add    %edx,%eax
  20249a:	89 45 e8             	mov    %eax,-0x18(%ebp)
  20249d:	8d 45 dc             	lea    -0x24(%ebp),%eax
  2024a0:	83 ec 08             	sub    $0x8,%esp
  2024a3:	ff 75 e8             	push   -0x18(%ebp)
  2024a6:	50                   	push   %eax
  2024a7:	e8 24 fe ff ff       	call   2022d0 <get_single_format_properties>
  2024ac:	83 c4 0c             	add    $0xc,%esp
  2024af:	0f b6 55 f7          	movzbl -0x9(%ebp),%edx
  2024b3:	89 d0                	mov    %edx,%eax
  2024b5:	01 c0                	add    %eax,%eax
  2024b7:	01 d0                	add    %edx,%eax
  2024b9:	c1 e0 02             	shl    $0x2,%eax
  2024bc:	89 c2                	mov    %eax,%edx
  2024be:	8b 45 0c             	mov    0xc(%ebp),%eax
  2024c1:	01 c2                	add    %eax,%edx
  2024c3:	0f b6 45 e5          	movzbl -0x1b(%ebp),%eax
  2024c7:	88 42 09             	mov    %al,0x9(%edx)
  2024ca:	0f b6 55 f7          	movzbl -0x9(%ebp),%edx
  2024ce:	89 d0                	mov    %edx,%eax
  2024d0:	01 c0                	add    %eax,%eax
  2024d2:	01 d0                	add    %edx,%eax
  2024d4:	c1 e0 02             	shl    $0x2,%eax
  2024d7:	89 c2                	mov    %eax,%edx
  2024d9:	8b 45 0c             	mov    0xc(%ebp),%eax
  2024dc:	01 c2                	add    %eax,%edx
  2024de:	8b 45 e0             	mov    -0x20(%ebp),%eax
  2024e1:	89 42 04             	mov    %eax,0x4(%edx)
  2024e4:	0f b6 55 f7          	movzbl -0x9(%ebp),%edx
  2024e8:	89 d0                	mov    %edx,%eax
  2024ea:	01 c0                	add    %eax,%eax
  2024ec:	01 d0                	add    %edx,%eax
  2024ee:	c1 e0 02             	shl    $0x2,%eax
  2024f1:	89 c2                	mov    %eax,%edx
  2024f3:	8b 45 0c             	mov    0xc(%ebp),%eax
  2024f6:	01 c2                	add    %eax,%edx
  2024f8:	8b 45 dc             	mov    -0x24(%ebp),%eax
  2024fb:	89 02                	mov    %eax,(%edx)
  2024fd:	0f b6 55 f7          	movzbl -0x9(%ebp),%edx
  202501:	89 d0                	mov    %edx,%eax
  202503:	01 c0                	add    %eax,%eax
  202505:	01 d0                	add    %edx,%eax
  202507:	c1 e0 02             	shl    $0x2,%eax
  20250a:	89 c2                	mov    %eax,%edx
  20250c:	8b 45 0c             	mov    0xc(%ebp),%eax
  20250f:	01 c2                	add    %eax,%edx
  202511:	0f b6 45 e4          	movzbl -0x1c(%ebp),%eax
  202515:	88 42 08             	mov    %al,0x8(%edx)
  202518:	0f b6 55 f7          	movzbl -0x9(%ebp),%edx
  20251c:	89 d0                	mov    %edx,%eax
  20251e:	01 c0                	add    %eax,%eax
  202520:	01 d0                	add    %edx,%eax
  202522:	c1 e0 02             	shl    $0x2,%eax
  202525:	89 c2                	mov    %eax,%edx
  202527:	8b 45 0c             	mov    0xc(%ebp),%eax
  20252a:	01 c2                	add    %eax,%edx
  20252c:	0f b7 45 f4          	movzwl -0xc(%ebp),%eax
  202530:	66 89 42 0a          	mov    %ax,0xa(%edx)
  202534:	0f b6 45 f7          	movzbl -0x9(%ebp),%eax
  202538:	83 c0 01             	add    $0x1,%eax
  20253b:	88 45 f7             	mov    %al,-0x9(%ebp)
  20253e:	0f b7 45 f4          	movzwl -0xc(%ebp),%eax
  202542:	83 c0 01             	add    $0x1,%eax
  202545:	66 89 45 f4          	mov    %ax,-0xc(%ebp)
  202549:	0f b7 55 f4          	movzwl -0xc(%ebp),%edx
  20254d:	8b 45 f0             	mov    -0x10(%ebp),%eax
  202550:	01 d0                	add    %edx,%eax
  202552:	0f b6 00             	movzbl (%eax),%eax
  202555:	84 c0                	test   %al,%al
  202557:	0f 85 d6 fe ff ff    	jne    202433 <set_types_and_pos+0x25>
  20255d:	90                   	nop
  20255e:	90                   	nop
  20255f:	c9                   	leave
  202560:	c3                   	ret

00202561 <nop>:
  202561:	55                   	push   %ebp
  202562:	89 e5                	mov    %esp,%ebp
  202564:	90                   	nop
  202565:	5d                   	pop    %ebp
  202566:	c3                   	ret

00202567 <terminal_write_offsets>:
  202567:	55                   	push   %ebp
  202568:	89 e5                	mov    %esp,%ebp
  20256a:	83 ec 28             	sub    $0x28,%esp
  20256d:	8b 55 0c             	mov    0xc(%ebp),%edx
  202570:	8b 45 10             	mov    0x10(%ebp),%eax
  202573:	66 89 55 e4          	mov    %dx,-0x1c(%ebp)
  202577:	66 89 45 e0          	mov    %ax,-0x20(%ebp)
  20257b:	0f b7 45 e0          	movzwl -0x20(%ebp),%eax
  20257f:	66 39 45 e4          	cmp    %ax,-0x1c(%ebp)
  202583:	73 4b                	jae    2025d0 <terminal_write_offsets+0x69>
  202585:	0f b7 45 e4          	movzwl -0x1c(%ebp),%eax
  202589:	66 89 45 f6          	mov    %ax,-0xa(%ebp)
  20258d:	eb 35                	jmp    2025c4 <terminal_write_offsets+0x5d>
  20258f:	0f b7 55 f6          	movzwl -0xa(%ebp),%edx
  202593:	8b 45 08             	mov    0x8(%ebp),%eax
  202596:	01 d0                	add    %edx,%eax
  202598:	0f b6 00             	movzbl (%eax),%eax
  20259b:	88 45 f5             	mov    %al,-0xb(%ebp)
  20259e:	0f b7 55 f6          	movzwl -0xa(%ebp),%edx
  2025a2:	8b 45 08             	mov    0x8(%ebp),%eax
  2025a5:	01 d0                	add    %edx,%eax
  2025a7:	0f b6 00             	movzbl (%eax),%eax
  2025aa:	0f be c0             	movsbl %al,%eax
  2025ad:	83 ec 0c             	sub    $0xc,%esp
  2025b0:	50                   	push   %eax
  2025b1:	e8 9e f2 ff ff       	call   201854 <terminal_putchar>
  2025b6:	83 c4 10             	add    $0x10,%esp
  2025b9:	0f b7 45 f6          	movzwl -0xa(%ebp),%eax
  2025bd:	83 c0 01             	add    $0x1,%eax
  2025c0:	66 89 45 f6          	mov    %ax,-0xa(%ebp)
  2025c4:	0f b7 45 f6          	movzwl -0xa(%ebp),%eax
  2025c8:	66 3b 45 e0          	cmp    -0x20(%ebp),%ax
  2025cc:	72 c1                	jb     20258f <terminal_write_offsets+0x28>
  2025ce:	eb 01                	jmp    2025d1 <terminal_write_offsets+0x6a>
  2025d0:	90                   	nop
  2025d1:	c9                   	leave
  2025d2:	c3                   	ret

002025d3 <kprintf_argc>:
  2025d3:	55                   	push   %ebp
  2025d4:	89 e5                	mov    %esp,%ebp
  2025d6:	57                   	push   %edi
  2025d7:	56                   	push   %esi
  2025d8:	53                   	push   %ebx
  2025d9:	83 ec 7c             	sub    $0x7c,%esp
  2025dc:	89 e0                	mov    %esp,%eax
  2025de:	89 45 84             	mov    %eax,-0x7c(%ebp)
  2025e1:	8b 45 08             	mov    0x8(%ebp),%eax
  2025e4:	83 e8 01             	sub    $0x1,%eax
  2025e7:	88 45 e5             	mov    %al,-0x1b(%ebp)
  2025ea:	83 ec 08             	sub    $0x8,%esp
  2025ed:	6a 25                	push   $0x25
  2025ef:	ff 75 0c             	push   0xc(%ebp)
  2025f2:	e8 4d 05 00 00       	call   202b44 <count_char>
  2025f7:	83 c4 10             	add    $0x10,%esp
  2025fa:	88 45 e4             	mov    %al,-0x1c(%ebp)
  2025fd:	0f b6 45 e5          	movzbl -0x1b(%ebp),%eax
  202601:	3a 45 e4             	cmp    -0x1c(%ebp),%al
  202604:	74 51                	je     202657 <kprintf_argc+0x84>
  202606:	83 ec 0c             	sub    $0xc,%esp
  202609:	68 ea 57 20 00       	push   $0x2057ea
  20260e:	e8 5c f3 ff ff       	call   20196f <terminal_writestring>
  202613:	83 c4 10             	add    $0x10,%esp
  202616:	0f b6 45 e5          	movzbl -0x1b(%ebp),%eax
  20261a:	83 ec 08             	sub    $0x8,%esp
  20261d:	50                   	push   %eax
  20261e:	68 a7 57 20 00       	push   $0x2057a7
  202623:	e8 09 f9 ff ff       	call   201f31 <terminal_write_uint>
  202628:	83 c4 10             	add    $0x10,%esp
  20262b:	0f b6 45 e4          	movzbl -0x1c(%ebp),%eax
  20262f:	83 ec 08             	sub    $0x8,%esp
  202632:	50                   	push   %eax
  202633:	68 fc 57 20 00       	push   $0x2057fc
  202638:	e8 f4 f8 ff ff       	call   201f31 <terminal_write_uint>
  20263d:	83 c4 10             	add    $0x10,%esp
  202640:	83 ec 04             	sub    $0x4,%esp
  202643:	68 cf 57 20 00       	push   $0x2057cf
  202648:	68 e5 00 00 00       	push   $0xe5
  20264d:	68 dd 57 20 00       	push   $0x2057dd
  202652:	e8 b8 f9 ff ff       	call   20200f <_abort_msg>
  202657:	0f b6 4d e5          	movzbl -0x1b(%ebp),%ecx
  20265b:	0f b6 c1             	movzbl %cl,%eax
  20265e:	83 e8 01             	sub    $0x1,%eax
  202661:	89 45 e0             	mov    %eax,-0x20(%ebp)
  202664:	0f b6 c1             	movzbl %cl,%eax
  202667:	89 c6                	mov    %eax,%esi
  202669:	bf 00 00 00 00       	mov    $0x0,%edi
  20266e:	89 f0                	mov    %esi,%eax
  202670:	89 fa                	mov    %edi,%edx
  202672:	01 c0                	add    %eax,%eax
  202674:	11 d2                	adc    %edx,%edx
  202676:	01 f0                	add    %esi,%eax
  202678:	11 fa                	adc    %edi,%edx
  20267a:	0f a4 c2 05          	shld   $0x5,%eax,%edx
  20267e:	c1 e0 05             	shl    $0x5,%eax
  202681:	0f b6 d1             	movzbl %cl,%edx
  202684:	89 d0                	mov    %edx,%eax
  202686:	01 c0                	add    %eax,%eax
  202688:	01 d0                	add    %edx,%eax
  20268a:	c1 e0 02             	shl    $0x2,%eax
  20268d:	0f b6 c1             	movzbl %cl,%eax
  202690:	89 c6                	mov    %eax,%esi
  202692:	bf 00 00 00 00       	mov    $0x0,%edi
  202697:	89 f0                	mov    %esi,%eax
  202699:	89 fa                	mov    %edi,%edx
  20269b:	01 c0                	add    %eax,%eax
  20269d:	11 d2                	adc    %edx,%edx
  20269f:	01 f0                	add    %esi,%eax
  2026a1:	11 fa                	adc    %edi,%edx
  2026a3:	0f a4 c2 05          	shld   $0x5,%eax,%edx
  2026a7:	c1 e0 05             	shl    $0x5,%eax
  2026aa:	0f b6 d1             	movzbl %cl,%edx
  2026ad:	89 d0                	mov    %edx,%eax
  2026af:	01 c0                	add    %eax,%eax
  2026b1:	01 d0                	add    %edx,%eax
  2026b3:	c1 e0 02             	shl    $0x2,%eax
  2026b6:	89 c2                	mov    %eax,%edx
  2026b8:	b8 10 00 00 00       	mov    $0x10,%eax
  2026bd:	83 e8 01             	sub    $0x1,%eax
  2026c0:	01 d0                	add    %edx,%eax
  2026c2:	bf 10 00 00 00       	mov    $0x10,%edi
  2026c7:	ba 00 00 00 00       	mov    $0x0,%edx
  2026cc:	f7 f7                	div    %edi
  2026ce:	6b c0 10             	imul   $0x10,%eax,%eax
  2026d1:	29 c4                	sub    %eax,%esp
  2026d3:	89 e0                	mov    %esp,%eax
  2026d5:	83 c0 03             	add    $0x3,%eax
  2026d8:	c1 e8 02             	shr    $0x2,%eax
  2026db:	c1 e0 02             	shl    $0x2,%eax
  2026de:	89 45 dc             	mov    %eax,-0x24(%ebp)
  2026e1:	0f b6 45 e5          	movzbl -0x1b(%ebp),%eax
  2026e5:	83 ec 04             	sub    $0x4,%esp
  2026e8:	50                   	push   %eax
  2026e9:	ff 75 dc             	push   -0x24(%ebp)
  2026ec:	ff 75 0c             	push   0xc(%ebp)
  2026ef:	e8 1a fd ff ff       	call   20240e <set_types_and_pos>
  2026f4:	83 c4 10             	add    $0x10,%esp
  2026f7:	83 ec 0c             	sub    $0xc,%esp
  2026fa:	ff 75 0c             	push   0xc(%ebp)
  2026fd:	e8 79 e1 ff ff       	call   20087b <strlen>
  202702:	83 c4 10             	add    $0x10,%esp
  202705:	66 89 45 da          	mov    %ax,-0x26(%ebp)
  202709:	0f b6 45 e5          	movzbl -0x1b(%ebp),%eax
  20270d:	8d 50 ff             	lea    -0x1(%eax),%edx
  202710:	8b 4d dc             	mov    -0x24(%ebp),%ecx
  202713:	89 d0                	mov    %edx,%eax
  202715:	01 c0                	add    %eax,%eax
  202717:	01 d0                	add    %edx,%eax
  202719:	c1 e0 02             	shl    $0x2,%eax
  20271c:	01 c8                	add    %ecx,%eax
  20271e:	83 c0 0a             	add    $0xa,%eax
  202721:	0f b7 18             	movzwl (%eax),%ebx
  202724:	0f b6 45 e5          	movzbl -0x1b(%ebp),%eax
  202728:	8d 50 ff             	lea    -0x1(%eax),%edx
  20272b:	8b 4d dc             	mov    -0x24(%ebp),%ecx
  20272e:	89 d0                	mov    %edx,%eax
  202730:	01 c0                	add    %eax,%eax
  202732:	01 d0                	add    %edx,%eax
  202734:	c1 e0 02             	shl    $0x2,%eax
  202737:	01 c8                	add    %ecx,%eax
  202739:	83 c0 09             	add    $0x9,%eax
  20273c:	0f b6 00             	movzbl (%eax),%eax
  20273f:	0f b6 c0             	movzbl %al,%eax
  202742:	01 d8                	add    %ebx,%eax
  202744:	66 89 45 d8          	mov    %ax,-0x28(%ebp)
  202748:	8b 45 08             	mov    0x8(%ebp),%eax
  20274b:	89 c2                	mov    %eax,%edx
  20274d:	83 ea 01             	sub    $0x1,%edx
  202750:	89 55 d4             	mov    %edx,-0x2c(%ebp)
  202753:	8d 14 85 00 00 00 00 	lea    0x0(,%eax,4),%edx
  20275a:	b8 10 00 00 00       	mov    $0x10,%eax
  20275f:	83 e8 01             	sub    $0x1,%eax
  202762:	01 d0                	add    %edx,%eax
  202764:	bf 10 00 00 00       	mov    $0x10,%edi
  202769:	ba 00 00 00 00       	mov    $0x0,%edx
  20276e:	f7 f7                	div    %edi
  202770:	6b c0 10             	imul   $0x10,%eax,%eax
  202773:	29 c4                	sub    %eax,%esp
  202775:	89 e0                	mov    %esp,%eax
  202777:	83 c0 01             	add    $0x1,%eax
  20277a:	d1 e8                	shr    $1,%eax
  20277c:	01 c0                	add    %eax,%eax
  20277e:	89 45 d0             	mov    %eax,-0x30(%ebp)
  202781:	8b 45 d0             	mov    -0x30(%ebp),%eax
  202784:	66 c7 00 00 00       	movw   $0x0,(%eax)
  202789:	8b 45 dc             	mov    -0x24(%ebp),%eax
  20278c:	0f b7 40 0a          	movzwl 0xa(%eax),%eax
  202790:	8d 50 ff             	lea    -0x1(%eax),%edx
  202793:	8b 45 d0             	mov    -0x30(%ebp),%eax
  202796:	66 89 50 02          	mov    %dx,0x2(%eax)
  20279a:	c6 45 e7 01          	movb   $0x1,-0x19(%ebp)
  20279e:	eb 78                	jmp    202818 <kprintf_argc+0x245>
  2027a0:	0f b6 45 e7          	movzbl -0x19(%ebp),%eax
  2027a4:	8d 50 ff             	lea    -0x1(%eax),%edx
  2027a7:	8b 4d dc             	mov    -0x24(%ebp),%ecx
  2027aa:	89 d0                	mov    %edx,%eax
  2027ac:	01 c0                	add    %eax,%eax
  2027ae:	01 d0                	add    %edx,%eax
  2027b0:	c1 e0 02             	shl    $0x2,%eax
  2027b3:	01 c8                	add    %ecx,%eax
  2027b5:	83 c0 0a             	add    $0xa,%eax
  2027b8:	0f b7 18             	movzwl (%eax),%ebx
  2027bb:	0f b6 45 e7          	movzbl -0x19(%ebp),%eax
  2027bf:	8d 50 ff             	lea    -0x1(%eax),%edx
  2027c2:	8b 4d dc             	mov    -0x24(%ebp),%ecx
  2027c5:	89 d0                	mov    %edx,%eax
  2027c7:	01 c0                	add    %eax,%eax
  2027c9:	01 d0                	add    %edx,%eax
  2027cb:	c1 e0 02             	shl    $0x2,%eax
  2027ce:	01 c8                	add    %ecx,%eax
  2027d0:	83 c0 09             	add    $0x9,%eax
  2027d3:	0f b6 00             	movzbl (%eax),%eax
  2027d6:	0f b6 c0             	movzbl %al,%eax
  2027d9:	0f b6 55 e7          	movzbl -0x19(%ebp),%edx
  2027dd:	8d 0c 03             	lea    (%ebx,%eax,1),%ecx
  2027e0:	8b 45 d0             	mov    -0x30(%ebp),%eax
  2027e3:	66 89 0c 90          	mov    %cx,(%eax,%edx,4)
  2027e7:	0f b6 55 e7          	movzbl -0x19(%ebp),%edx
  2027eb:	8b 4d dc             	mov    -0x24(%ebp),%ecx
  2027ee:	89 d0                	mov    %edx,%eax
  2027f0:	01 c0                	add    %eax,%eax
  2027f2:	01 d0                	add    %edx,%eax
  2027f4:	c1 e0 02             	shl    $0x2,%eax
  2027f7:	01 c8                	add    %ecx,%eax
  2027f9:	83 c0 0a             	add    $0xa,%eax
  2027fc:	0f b7 00             	movzwl (%eax),%eax
  2027ff:	0f b6 55 e7          	movzbl -0x19(%ebp),%edx
  202803:	8d 48 ff             	lea    -0x1(%eax),%ecx
  202806:	8b 45 d0             	mov    -0x30(%ebp),%eax
  202809:	66 89 4c 90 02       	mov    %cx,0x2(%eax,%edx,4)
  20280e:	0f b6 45 e7          	movzbl -0x19(%ebp),%eax
  202812:	83 c0 01             	add    $0x1,%eax
  202815:	88 45 e7             	mov    %al,-0x19(%ebp)
  202818:	0f b6 45 e7          	movzbl -0x19(%ebp),%eax
  20281c:	3a 45 e5             	cmp    -0x1b(%ebp),%al
  20281f:	0f 82 7b ff ff ff    	jb     2027a0 <kprintf_argc+0x1cd>
  202825:	80 7d e5 00          	cmpb   $0x0,-0x1b(%ebp)
  202829:	74 5a                	je     202885 <kprintf_argc+0x2b2>
  20282b:	0f b6 45 e5          	movzbl -0x1b(%ebp),%eax
  20282f:	8d 50 ff             	lea    -0x1(%eax),%edx
  202832:	8b 4d dc             	mov    -0x24(%ebp),%ecx
  202835:	89 d0                	mov    %edx,%eax
  202837:	01 c0                	add    %eax,%eax
  202839:	01 d0                	add    %edx,%eax
  20283b:	c1 e0 02             	shl    $0x2,%eax
  20283e:	01 c8                	add    %ecx,%eax
  202840:	83 c0 0a             	add    $0xa,%eax
  202843:	0f b7 18             	movzwl (%eax),%ebx
  202846:	0f b6 45 e5          	movzbl -0x1b(%ebp),%eax
  20284a:	8d 50 ff             	lea    -0x1(%eax),%edx
  20284d:	8b 4d dc             	mov    -0x24(%ebp),%ecx
  202850:	89 d0                	mov    %edx,%eax
  202852:	01 c0                	add    %eax,%eax
  202854:	01 d0                	add    %edx,%eax
  202856:	c1 e0 02             	shl    $0x2,%eax
  202859:	01 c8                	add    %ecx,%eax
  20285b:	83 c0 09             	add    $0x9,%eax
  20285e:	0f b6 00             	movzbl (%eax),%eax
  202861:	0f b6 c0             	movzbl %al,%eax
  202864:	0f b6 55 e5          	movzbl -0x1b(%ebp),%edx
  202868:	8d 0c 03             	lea    (%ebx,%eax,1),%ecx
  20286b:	8b 45 d0             	mov    -0x30(%ebp),%eax
  20286e:	66 89 0c 90          	mov    %cx,(%eax,%edx,4)
  202872:	0f b6 55 e5          	movzbl -0x1b(%ebp),%edx
  202876:	0f b7 45 da          	movzwl -0x26(%ebp),%eax
  20287a:	8d 48 ff             	lea    -0x1(%eax),%ecx
  20287d:	8b 45 d0             	mov    -0x30(%ebp),%eax
  202880:	66 89 4c 90 02       	mov    %cx,0x2(%eax,%edx,4)
  202885:	8b 45 d0             	mov    -0x30(%ebp),%eax
  202888:	0f b7 40 02          	movzwl 0x2(%eax),%eax
  20288c:	83 c0 01             	add    $0x1,%eax
  20288f:	0f b7 d0             	movzwl %ax,%edx
  202892:	8b 45 d0             	mov    -0x30(%ebp),%eax
  202895:	0f b7 00             	movzwl (%eax),%eax
  202898:	0f b7 c0             	movzwl %ax,%eax
  20289b:	83 ec 04             	sub    $0x4,%esp
  20289e:	52                   	push   %edx
  20289f:	50                   	push   %eax
  2028a0:	ff 75 0c             	push   0xc(%ebp)
  2028a3:	e8 bf fc ff ff       	call   202567 <terminal_write_offsets>
  2028a8:	83 c4 10             	add    $0x10,%esp
  2028ab:	8d 45 10             	lea    0x10(%ebp),%eax
  2028ae:	89 45 b0             	mov    %eax,-0x50(%ebp)
  2028b1:	c6 45 e6 00          	movb   $0x0,-0x1a(%ebp)
  2028b5:	e9 71 02 00 00       	jmp    202b2b <kprintf_argc+0x558>
  2028ba:	0f b6 55 e6          	movzbl -0x1a(%ebp),%edx
  2028be:	8b 4d dc             	mov    -0x24(%ebp),%ecx
  2028c1:	89 d0                	mov    %edx,%eax
  2028c3:	01 c0                	add    %eax,%eax
  2028c5:	01 d0                	add    %edx,%eax
  2028c7:	c1 e0 02             	shl    $0x2,%eax
  2028ca:	01 c8                	add    %ecx,%eax
  2028cc:	8b 00                	mov    (%eax),%eax
  2028ce:	83 f8 75             	cmp    $0x75,%eax
  2028d1:	0f 84 c0 00 00 00    	je     202997 <kprintf_argc+0x3c4>
  2028d7:	83 f8 75             	cmp    $0x75,%eax
  2028da:	0f 87 05 02 00 00    	ja     202ae5 <kprintf_argc+0x512>
  2028e0:	83 f8 73             	cmp    $0x73,%eax
  2028e3:	74 70                	je     202955 <kprintf_argc+0x382>
  2028e5:	83 f8 73             	cmp    $0x73,%eax
  2028e8:	0f 87 f7 01 00 00    	ja     202ae5 <kprintf_argc+0x512>
  2028ee:	83 f8 68             	cmp    $0x68,%eax
  2028f1:	0f 84 28 01 00 00    	je     202a1f <kprintf_argc+0x44c>
  2028f7:	83 f8 68             	cmp    $0x68,%eax
  2028fa:	0f 87 e5 01 00 00    	ja     202ae5 <kprintf_argc+0x512>
  202900:	83 f8 66             	cmp    $0x66,%eax
  202903:	0f 84 af 00 00 00    	je     2029b8 <kprintf_argc+0x3e5>
  202909:	83 f8 66             	cmp    $0x66,%eax
  20290c:	0f 87 d3 01 00 00    	ja     202ae5 <kprintf_argc+0x512>
  202912:	83 f8 64             	cmp    $0x64,%eax
  202915:	74 5f                	je     202976 <kprintf_argc+0x3a3>
  202917:	83 f8 64             	cmp    $0x64,%eax
  20291a:	0f 87 c5 01 00 00    	ja     202ae5 <kprintf_argc+0x512>
  202920:	83 f8 62             	cmp    $0x62,%eax
  202923:	0f 84 59 01 00 00    	je     202a82 <kprintf_argc+0x4af>
  202929:	83 f8 63             	cmp    $0x63,%eax
  20292c:	0f 85 b3 01 00 00    	jne    202ae5 <kprintf_argc+0x512>
  202932:	8b 45 b0             	mov    -0x50(%ebp),%eax
  202935:	8d 50 04             	lea    0x4(%eax),%edx
  202938:	89 55 b0             	mov    %edx,-0x50(%ebp)
  20293b:	8b 00                	mov    (%eax),%eax
  20293d:	88 45 bb             	mov    %al,-0x45(%ebp)
  202940:	0f be 45 bb          	movsbl -0x45(%ebp),%eax
  202944:	83 ec 0c             	sub    $0xc,%esp
  202947:	50                   	push   %eax
  202948:	e8 07 ef ff ff       	call   201854 <terminal_putchar>
  20294d:	83 c4 10             	add    $0x10,%esp
  202950:	e9 96 01 00 00       	jmp    202aeb <kprintf_argc+0x518>
  202955:	8b 45 b0             	mov    -0x50(%ebp),%eax
  202958:	8d 50 04             	lea    0x4(%eax),%edx
  20295b:	89 55 b0             	mov    %edx,-0x50(%ebp)
  20295e:	8b 00                	mov    (%eax),%eax
  202960:	89 45 c8             	mov    %eax,-0x38(%ebp)
  202963:	83 ec 0c             	sub    $0xc,%esp
  202966:	ff 75 c8             	push   -0x38(%ebp)
  202969:	e8 01 f0 ff ff       	call   20196f <terminal_writestring>
  20296e:	83 c4 10             	add    $0x10,%esp
  202971:	e9 75 01 00 00       	jmp    202aeb <kprintf_argc+0x518>
  202976:	8b 45 b0             	mov    -0x50(%ebp),%eax
  202979:	8d 50 04             	lea    0x4(%eax),%edx
  20297c:	89 55 b0             	mov    %edx,-0x50(%ebp)
  20297f:	8b 00                	mov    (%eax),%eax
  202981:	89 45 bc             	mov    %eax,-0x44(%ebp)
  202984:	83 ec 0c             	sub    $0xc,%esp
  202987:	ff 75 bc             	push   -0x44(%ebp)
  20298a:	e8 6f f2 ff ff       	call   201bfe <print_int_var_no_newline>
  20298f:	83 c4 10             	add    $0x10,%esp
  202992:	e9 54 01 00 00       	jmp    202aeb <kprintf_argc+0x518>
  202997:	8b 45 b0             	mov    -0x50(%ebp),%eax
  20299a:	8d 50 04             	lea    0x4(%eax),%edx
  20299d:	89 55 b0             	mov    %edx,-0x50(%ebp)
  2029a0:	8b 00                	mov    (%eax),%eax
  2029a2:	89 45 cc             	mov    %eax,-0x34(%ebp)
  2029a5:	83 ec 0c             	sub    $0xc,%esp
  2029a8:	ff 75 cc             	push   -0x34(%ebp)
  2029ab:	e8 8d f3 ff ff       	call   201d3d <print_uint_var_no_newline>
  2029b0:	83 c4 10             	add    $0x10,%esp
  2029b3:	e9 33 01 00 00       	jmp    202aeb <kprintf_argc+0x518>
  2029b8:	8b 45 b0             	mov    -0x50(%ebp),%eax
  2029bb:	8d 50 08             	lea    0x8(%eax),%edx
  2029be:	89 55 b0             	mov    %edx,-0x50(%ebp)
  2029c1:	dd 00                	fldl   (%eax)
  2029c3:	d9 5d c0             	fstps  -0x40(%ebp)
  2029c6:	0f b6 55 e6          	movzbl -0x1a(%ebp),%edx
  2029ca:	8b 4d dc             	mov    -0x24(%ebp),%ecx
  2029cd:	89 d0                	mov    %edx,%eax
  2029cf:	01 c0                	add    %eax,%eax
  2029d1:	01 d0                	add    %edx,%eax
  2029d3:	c1 e0 02             	shl    $0x2,%eax
  2029d6:	01 c8                	add    %ecx,%eax
  2029d8:	8b 10                	mov    (%eax),%edx
  2029da:	89 55 a4             	mov    %edx,-0x5c(%ebp)
  2029dd:	8b 50 04             	mov    0x4(%eax),%edx
  2029e0:	89 55 a8             	mov    %edx,-0x58(%ebp)
  2029e3:	8b 40 08             	mov    0x8(%eax),%eax
  2029e6:	89 45 ac             	mov    %eax,-0x54(%ebp)
  2029e9:	8b 45 a8             	mov    -0x58(%ebp),%eax
  2029ec:	83 f8 2e             	cmp    $0x2e,%eax
  2029ef:	75 1b                	jne    202a0c <kprintf_argc+0x439>
  2029f1:	0f b6 45 ac          	movzbl -0x54(%ebp),%eax
  2029f5:	0f b6 c0             	movzbl %al,%eax
  2029f8:	83 ec 08             	sub    $0x8,%esp
  2029fb:	50                   	push   %eax
  2029fc:	ff 75 c0             	push   -0x40(%ebp)
  2029ff:	e8 d2 f3 ff ff       	call   201dd6 <print_float_var_no_newline_precision>
  202a04:	83 c4 10             	add    $0x10,%esp
  202a07:	e9 df 00 00 00       	jmp    202aeb <kprintf_argc+0x518>
  202a0c:	83 ec 0c             	sub    $0xc,%esp
  202a0f:	ff 75 c0             	push   -0x40(%ebp)
  202a12:	e8 5e f3 ff ff       	call   201d75 <print_float_var_no_newline>
  202a17:	83 c4 10             	add    $0x10,%esp
  202a1a:	e9 cc 00 00 00       	jmp    202aeb <kprintf_argc+0x518>
  202a1f:	8b 45 b0             	mov    -0x50(%ebp),%eax
  202a22:	8d 50 04             	lea    0x4(%eax),%edx
  202a25:	89 55 b0             	mov    %edx,-0x50(%ebp)
  202a28:	8b 00                	mov    (%eax),%eax
  202a2a:	89 45 c4             	mov    %eax,-0x3c(%ebp)
  202a2d:	0f b6 55 e6          	movzbl -0x1a(%ebp),%edx
  202a31:	8b 4d dc             	mov    -0x24(%ebp),%ecx
  202a34:	89 d0                	mov    %edx,%eax
  202a36:	01 c0                	add    %eax,%eax
  202a38:	01 d0                	add    %edx,%eax
  202a3a:	c1 e0 02             	shl    $0x2,%eax
  202a3d:	01 c8                	add    %ecx,%eax
  202a3f:	8b 10                	mov    (%eax),%edx
  202a41:	89 55 98             	mov    %edx,-0x68(%ebp)
  202a44:	8b 50 04             	mov    0x4(%eax),%edx
  202a47:	89 55 9c             	mov    %edx,-0x64(%ebp)
  202a4a:	8b 40 08             	mov    0x8(%eax),%eax
  202a4d:	89 45 a0             	mov    %eax,-0x60(%ebp)
  202a50:	8b 45 9c             	mov    -0x64(%ebp),%eax
  202a53:	83 f8 3a             	cmp    $0x3a,%eax
  202a56:	75 18                	jne    202a70 <kprintf_argc+0x49d>
  202a58:	0f b6 45 a0          	movzbl -0x60(%ebp),%eax
  202a5c:	0f b6 c0             	movzbl %al,%eax
  202a5f:	83 ec 08             	sub    $0x8,%esp
  202a62:	50                   	push   %eax
  202a63:	ff 75 c4             	push   -0x3c(%ebp)
  202a66:	e8 a9 e7 ff ff       	call   201214 <print_hex_f>
  202a6b:	83 c4 10             	add    $0x10,%esp
  202a6e:	eb 7b                	jmp    202aeb <kprintf_argc+0x518>
  202a70:	83 ec 08             	sub    $0x8,%esp
  202a73:	6a 00                	push   $0x0
  202a75:	ff 75 c4             	push   -0x3c(%ebp)
  202a78:	e8 97 e7 ff ff       	call   201214 <print_hex_f>
  202a7d:	83 c4 10             	add    $0x10,%esp
  202a80:	eb 69                	jmp    202aeb <kprintf_argc+0x518>
  202a82:	8b 45 b0             	mov    -0x50(%ebp),%eax
  202a85:	8d 50 04             	lea    0x4(%eax),%edx
  202a88:	89 55 b0             	mov    %edx,-0x50(%ebp)
  202a8b:	8b 00                	mov    (%eax),%eax
  202a8d:	89 45 b4             	mov    %eax,-0x4c(%ebp)
  202a90:	0f b6 55 e6          	movzbl -0x1a(%ebp),%edx
  202a94:	8b 4d dc             	mov    -0x24(%ebp),%ecx
  202a97:	89 d0                	mov    %edx,%eax
  202a99:	01 c0                	add    %eax,%eax
  202a9b:	01 d0                	add    %edx,%eax
  202a9d:	c1 e0 02             	shl    $0x2,%eax
  202aa0:	01 c8                	add    %ecx,%eax
  202aa2:	8b 10                	mov    (%eax),%edx
  202aa4:	89 55 8c             	mov    %edx,-0x74(%ebp)
  202aa7:	8b 50 04             	mov    0x4(%eax),%edx
  202aaa:	89 55 90             	mov    %edx,-0x70(%ebp)
  202aad:	8b 40 08             	mov    0x8(%eax),%eax
  202ab0:	89 45 94             	mov    %eax,-0x6c(%ebp)
  202ab3:	8b 45 90             	mov    -0x70(%ebp),%eax
  202ab6:	83 f8 3a             	cmp    $0x3a,%eax
  202ab9:	75 18                	jne    202ad3 <kprintf_argc+0x500>
  202abb:	0f b6 45 94          	movzbl -0x6c(%ebp),%eax
  202abf:	0f b6 c0             	movzbl %al,%eax
  202ac2:	83 ec 08             	sub    $0x8,%esp
  202ac5:	50                   	push   %eax
  202ac6:	ff 75 b4             	push   -0x4c(%ebp)
  202ac9:	e8 96 e6 ff ff       	call   201164 <print_binary_var_no_newline>
  202ace:	83 c4 10             	add    $0x10,%esp
  202ad1:	eb 18                	jmp    202aeb <kprintf_argc+0x518>
  202ad3:	83 ec 08             	sub    $0x8,%esp
  202ad6:	6a 00                	push   $0x0
  202ad8:	ff 75 b4             	push   -0x4c(%ebp)
  202adb:	e8 84 e6 ff ff       	call   201164 <print_binary_var_no_newline>
  202ae0:	83 c4 10             	add    $0x10,%esp
  202ae3:	eb 06                	jmp    202aeb <kprintf_argc+0x518>
  202ae5:	e8 77 fa ff ff       	call   202561 <nop>
  202aea:	90                   	nop
  202aeb:	0f b6 45 e6          	movzbl -0x1a(%ebp),%eax
  202aef:	8d 50 01             	lea    0x1(%eax),%edx
  202af2:	8b 45 d0             	mov    -0x30(%ebp),%eax
  202af5:	0f b7 44 90 02       	movzwl 0x2(%eax,%edx,4),%eax
  202afa:	83 c0 01             	add    $0x1,%eax
  202afd:	0f b7 d0             	movzwl %ax,%edx
  202b00:	0f b6 45 e6          	movzbl -0x1a(%ebp),%eax
  202b04:	8d 48 01             	lea    0x1(%eax),%ecx
  202b07:	8b 45 d0             	mov    -0x30(%ebp),%eax
  202b0a:	0f b7 04 88          	movzwl (%eax,%ecx,4),%eax
  202b0e:	0f b7 c0             	movzwl %ax,%eax
  202b11:	83 ec 04             	sub    $0x4,%esp
  202b14:	52                   	push   %edx
  202b15:	50                   	push   %eax
  202b16:	ff 75 0c             	push   0xc(%ebp)
  202b19:	e8 49 fa ff ff       	call   202567 <terminal_write_offsets>
  202b1e:	83 c4 10             	add    $0x10,%esp
  202b21:	0f b6 45 e6          	movzbl -0x1a(%ebp),%eax
  202b25:	83 c0 01             	add    $0x1,%eax
  202b28:	88 45 e6             	mov    %al,-0x1a(%ebp)
  202b2b:	0f b6 45 e6          	movzbl -0x1a(%ebp),%eax
  202b2f:	3a 45 e5             	cmp    -0x1b(%ebp),%al
  202b32:	0f 82 82 fd ff ff    	jb     2028ba <kprintf_argc+0x2e7>
  202b38:	8b 65 84             	mov    -0x7c(%ebp),%esp
  202b3b:	90                   	nop
  202b3c:	8d 65 f4             	lea    -0xc(%ebp),%esp
  202b3f:	5b                   	pop    %ebx
  202b40:	5e                   	pop    %esi
  202b41:	5f                   	pop    %edi
  202b42:	5d                   	pop    %ebp
  202b43:	c3                   	ret

00202b44 <count_char>:
  202b44:	55                   	push   %ebp
  202b45:	89 e5                	mov    %esp,%ebp
  202b47:	83 ec 14             	sub    $0x14,%esp
  202b4a:	8b 45 0c             	mov    0xc(%ebp),%eax
  202b4d:	88 45 ec             	mov    %al,-0x14(%ebp)
  202b50:	8b 45 08             	mov    0x8(%ebp),%eax
  202b53:	89 45 fc             	mov    %eax,-0x4(%ebp)
  202b56:	c6 45 fb 00          	movb   $0x0,-0x5(%ebp)
  202b5a:	eb 19                	jmp    202b75 <count_char+0x31>
  202b5c:	8b 45 fc             	mov    -0x4(%ebp),%eax
  202b5f:	0f b6 00             	movzbl (%eax),%eax
  202b62:	38 45 ec             	cmp    %al,-0x14(%ebp)
  202b65:	75 0a                	jne    202b71 <count_char+0x2d>
  202b67:	0f b6 45 fb          	movzbl -0x5(%ebp),%eax
  202b6b:	83 c0 01             	add    $0x1,%eax
  202b6e:	88 45 fb             	mov    %al,-0x5(%ebp)
  202b71:	83 45 fc 01          	addl   $0x1,-0x4(%ebp)
  202b75:	8b 45 fc             	mov    -0x4(%ebp),%eax
  202b78:	0f b6 00             	movzbl (%eax),%eax
  202b7b:	84 c0                	test   %al,%al
  202b7d:	75 dd                	jne    202b5c <count_char+0x18>
  202b7f:	0f b6 45 fb          	movzbl -0x5(%ebp),%eax
  202b83:	c9                   	leave
  202b84:	c3                   	ret

00202b85 <_abort>:
  202b85:	55                   	push   %ebp
  202b86:	89 e5                	mov    %esp,%ebp
  202b88:	83 ec 08             	sub    $0x8,%esp
  202b8b:	83 ec 0c             	sub    $0xc,%esp
  202b8e:	68 09 58 20 00       	push   $0x205809
  202b93:	e8 d7 ed ff ff       	call   20196f <terminal_writestring>
  202b98:	83 c4 10             	add    $0x10,%esp
  202b9b:	fa                   	cli
  202b9c:	f4                   	hlt
  202b9d:	eb fc                	jmp    202b9b <_abort+0x16>

00202b9f <_abort_msg>:
  202b9f:	55                   	push   %ebp
  202ba0:	89 e5                	mov    %esp,%ebp
  202ba2:	83 ec 08             	sub    $0x8,%esp
  202ba5:	83 ec 0c             	sub    $0xc,%esp
  202ba8:	ff 75 0c             	push   0xc(%ebp)
  202bab:	ff 75 10             	push   0x10(%ebp)
  202bae:	ff 75 08             	push   0x8(%ebp)
  202bb1:	68 12 58 20 00       	push   $0x205812
  202bb6:	6a 04                	push   $0x4
  202bb8:	e8 16 fa ff ff       	call   2025d3 <kprintf_argc>
  202bbd:	83 c4 20             	add    $0x20,%esp
  202bc0:	e8 c0 ff ff ff       	call   202b85 <_abort>

00202bc5 <assert_handler>:
  202bc5:	55                   	push   %ebp
  202bc6:	89 e5                	mov    %esp,%ebp
  202bc8:	83 ec 18             	sub    $0x18,%esp
  202bcb:	8b 45 08             	mov    0x8(%ebp),%eax
  202bce:	88 45 f4             	mov    %al,-0xc(%ebp)
  202bd1:	0f b6 45 f4          	movzbl -0xc(%ebp),%eax
  202bd5:	83 f0 01             	xor    $0x1,%eax
  202bd8:	84 c0                	test   %al,%al
  202bda:	74 23                	je     202bff <assert_handler+0x3a>
  202bdc:	83 ec 08             	sub    $0x8,%esp
  202bdf:	68 29 58 20 00       	push   $0x205829
  202be4:	6a 01                	push   $0x1
  202be6:	e8 e8 f9 ff ff       	call   2025d3 <kprintf_argc>
  202beb:	83 c4 10             	add    $0x10,%esp
  202bee:	83 ec 04             	sub    $0x4,%esp
  202bf1:	ff 75 14             	push   0x14(%ebp)
  202bf4:	ff 75 10             	push   0x10(%ebp)
  202bf7:	ff 75 0c             	push   0xc(%ebp)
  202bfa:	e8 a0 ff ff ff       	call   202b9f <_abort_msg>
  202bff:	90                   	nop
  202c00:	c9                   	leave
  202c01:	c3                   	ret

00202c02 <is_valid_gate_type32>:
  202c02:	55                   	push   %ebp
  202c03:	89 e5                	mov    %esp,%ebp
  202c05:	83 7d 08 07          	cmpl   $0x7,0x8(%ebp)
  202c09:	77 08                	ja     202c13 <is_valid_gate_type32+0x11>
  202c0b:	83 7d 08 05          	cmpl   $0x5,0x8(%ebp)
  202c0f:	73 0d                	jae    202c1e <is_valid_gate_type32+0x1c>
  202c11:	eb 12                	jmp    202c25 <is_valid_gate_type32+0x23>
  202c13:	8b 45 08             	mov    0x8(%ebp),%eax
  202c16:	83 e8 0e             	sub    $0xe,%eax
  202c19:	83 f8 01             	cmp    $0x1,%eax
  202c1c:	77 07                	ja     202c25 <is_valid_gate_type32+0x23>
  202c1e:	b8 01 00 00 00       	mov    $0x1,%eax
  202c23:	eb 05                	jmp    202c2a <is_valid_gate_type32+0x28>
  202c25:	b8 00 00 00 00       	mov    $0x0,%eax
  202c2a:	5d                   	pop    %ebp
  202c2b:	c3                   	ret

00202c2c <__lidt>:
  202c2c:	55                   	push   %ebp
  202c2d:	89 e5                	mov    %esp,%ebp
  202c2f:	0f 01 5d 08          	lidtl  0x8(%ebp)
  202c33:	90                   	nop
  202c34:	5d                   	pop    %ebp
  202c35:	c3                   	ret

00202c36 <__sti>:
  202c36:	55                   	push   %ebp
  202c37:	89 e5                	mov    %esp,%ebp
  202c39:	fb                   	sti
  202c3a:	90                   	nop
  202c3b:	5d                   	pop    %ebp
  202c3c:	c3                   	ret

00202c3d <exception_handler>:
  202c3d:	55                   	push   %ebp
  202c3e:	89 e5                	mov    %esp,%ebp
  202c40:	fa                   	cli
  202c41:	f4                   	hlt
  202c42:	eb fc                	jmp    202c40 <exception_handler+0x3>

00202c44 <idt_set_descriptor>:
  202c44:	55                   	push   %ebp
  202c45:	89 e5                	mov    %esp,%ebp
  202c47:	83 ec 28             	sub    $0x28,%esp
  202c4a:	8b 4d 08             	mov    0x8(%ebp),%ecx
  202c4d:	8b 55 14             	mov    0x14(%ebp),%edx
  202c50:	8b 45 18             	mov    0x18(%ebp),%eax
  202c53:	88 4d e4             	mov    %cl,-0x1c(%ebp)
  202c56:	88 55 e0             	mov    %dl,-0x20(%ebp)
  202c59:	88 45 dc             	mov    %al,-0x24(%ebp)
  202c5c:	ff 75 10             	push   0x10(%ebp)
  202c5f:	e8 9e ff ff ff       	call   202c02 <is_valid_gate_type32>
  202c64:	83 c4 04             	add    $0x4,%esp
  202c67:	0f b6 c0             	movzbl %al,%eax
  202c6a:	68 3b 58 20 00       	push   $0x20583b
  202c6f:	6a 22                	push   $0x22
  202c71:	68 45 58 20 00       	push   $0x205845
  202c76:	50                   	push   %eax
  202c77:	e8 49 ff ff ff       	call   202bc5 <assert_handler>
  202c7c:	83 c4 10             	add    $0x10,%esp
  202c7f:	0f b6 45 e4          	movzbl -0x1c(%ebp),%eax
  202c83:	c1 e0 03             	shl    $0x3,%eax
  202c86:	05 20 21 23 00       	add    $0x232120,%eax
  202c8b:	89 45 f4             	mov    %eax,-0xc(%ebp)
  202c8e:	8b 45 0c             	mov    0xc(%ebp),%eax
  202c91:	89 c2                	mov    %eax,%edx
  202c93:	8b 45 f4             	mov    -0xc(%ebp),%eax
  202c96:	66 89 10             	mov    %dx,(%eax)
  202c99:	8b 45 0c             	mov    0xc(%ebp),%eax
  202c9c:	c1 e8 10             	shr    $0x10,%eax
  202c9f:	89 c2                	mov    %eax,%edx
  202ca1:	8b 45 f4             	mov    -0xc(%ebp),%eax
  202ca4:	66 89 50 06          	mov    %dx,0x6(%eax)
  202ca8:	8b 45 f4             	mov    -0xc(%ebp),%eax
  202cab:	0f b6 50 02          	movzbl 0x2(%eax),%edx
  202caf:	83 e2 fc             	and    $0xfffffffc,%edx
  202cb2:	88 50 02             	mov    %dl,0x2(%eax)
  202cb5:	8b 45 f4             	mov    -0xc(%ebp),%eax
  202cb8:	0f b6 50 02          	movzbl 0x2(%eax),%edx
  202cbc:	83 e2 fb             	and    $0xfffffffb,%edx
  202cbf:	88 50 02             	mov    %dl,0x2(%eax)
  202cc2:	8b 45 f4             	mov    -0xc(%ebp),%eax
  202cc5:	0f b6 50 02          	movzbl 0x2(%eax),%edx
  202cc9:	83 e2 07             	and    $0x7,%edx
  202ccc:	83 ca 10             	or     $0x10,%edx
  202ccf:	88 50 02             	mov    %dl,0x2(%eax)
  202cd2:	0f b6 50 03          	movzbl 0x3(%eax),%edx
  202cd6:	83 e2 00             	and    $0x0,%edx
  202cd9:	88 50 03             	mov    %dl,0x3(%eax)
  202cdc:	0f b6 45 e0          	movzbl -0x20(%ebp),%eax
  202ce0:	83 e0 03             	and    $0x3,%eax
  202ce3:	89 c2                	mov    %eax,%edx
  202ce5:	8b 45 f4             	mov    -0xc(%ebp),%eax
  202ce8:	83 e2 03             	and    $0x3,%edx
  202ceb:	89 d1                	mov    %edx,%ecx
  202ced:	c1 e1 05             	shl    $0x5,%ecx
  202cf0:	0f b6 50 05          	movzbl 0x5(%eax),%edx
  202cf4:	83 e2 9f             	and    $0xffffff9f,%edx
  202cf7:	09 ca                	or     %ecx,%edx
  202cf9:	88 50 05             	mov    %dl,0x5(%eax)
  202cfc:	8b 45 f4             	mov    -0xc(%ebp),%eax
  202cff:	0f b6 55 dc          	movzbl -0x24(%ebp),%edx
  202d03:	89 d1                	mov    %edx,%ecx
  202d05:	c1 e1 07             	shl    $0x7,%ecx
  202d08:	0f b6 50 05          	movzbl 0x5(%eax),%edx
  202d0c:	83 e2 7f             	and    $0x7f,%edx
  202d0f:	09 ca                	or     %ecx,%edx
  202d11:	88 50 05             	mov    %dl,0x5(%eax)
  202d14:	8b 45 10             	mov    0x10(%ebp),%eax
  202d17:	83 e0 0f             	and    $0xf,%eax
  202d1a:	8b 55 f4             	mov    -0xc(%ebp),%edx
  202d1d:	83 e0 0f             	and    $0xf,%eax
  202d20:	89 c1                	mov    %eax,%ecx
  202d22:	0f b6 42 05          	movzbl 0x5(%edx),%eax
  202d26:	83 e0 f0             	and    $0xfffffff0,%eax
  202d29:	09 c8                	or     %ecx,%eax
  202d2b:	88 42 05             	mov    %al,0x5(%edx)
  202d2e:	8b 45 f4             	mov    -0xc(%ebp),%eax
  202d31:	c6 40 04 00          	movb   $0x0,0x4(%eax)
  202d35:	8b 45 f4             	mov    -0xc(%ebp),%eax
  202d38:	0f b6 50 05          	movzbl 0x5(%eax),%edx
  202d3c:	83 e2 ef             	and    $0xffffffef,%edx
  202d3f:	88 50 05             	mov    %dl,0x5(%eax)
  202d42:	90                   	nop
  202d43:	c9                   	leave
  202d44:	c3                   	ret

00202d45 <idt_init>:
  202d45:	55                   	push   %ebp
  202d46:	89 e5                	mov    %esp,%ebp
  202d48:	83 ec 18             	sub    $0x18,%esp
  202d4b:	c7 05 22 29 23 00 20 	movl   $0x232120,0x232922
  202d52:	21 23 00 
  202d55:	66 c7 05 20 29 23 00 	movw   $0x7ff,0x232920
  202d5c:	ff 07 
  202d5e:	c6 45 f7 00          	movb   $0x0,-0x9(%ebp)
  202d62:	eb 37                	jmp    202d9b <idt_init+0x56>
  202d64:	0f b6 45 f7          	movzbl -0x9(%ebp),%eax
  202d68:	8b 14 85 19 31 20 00 	mov    0x203119(,%eax,4),%edx
  202d6f:	0f b6 45 f7          	movzbl -0x9(%ebp),%eax
  202d73:	83 ec 0c             	sub    $0xc,%esp
  202d76:	6a 01                	push   $0x1
  202d78:	6a 00                	push   $0x0
  202d7a:	6a 0e                	push   $0xe
  202d7c:	52                   	push   %edx
  202d7d:	50                   	push   %eax
  202d7e:	e8 c1 fe ff ff       	call   202c44 <idt_set_descriptor>
  202d83:	83 c4 20             	add    $0x20,%esp
  202d86:	0f b6 45 f7          	movzbl -0x9(%ebp),%eax
  202d8a:	c6 80 40 29 23 00 01 	movb   $0x1,0x232940(%eax)
  202d91:	0f b6 45 f7          	movzbl -0x9(%ebp),%eax
  202d95:	83 c0 01             	add    $0x1,%eax
  202d98:	88 45 f7             	mov    %al,-0x9(%ebp)
  202d9b:	80 7d f7 1f          	cmpb   $0x1f,-0x9(%ebp)
  202d9f:	76 c3                	jbe    202d64 <idt_init+0x1f>
  202da1:	83 ec 0c             	sub    $0xc,%esp
  202da4:	6a 01                	push   $0x1
  202da6:	6a 00                	push   $0x0
  202da8:	6a 0e                	push   $0xe
  202daa:	68 2a 32 20 00       	push   $0x20322a
  202daf:	6a 08                	push   $0x8
  202db1:	e8 8e fe ff ff       	call   202c44 <idt_set_descriptor>
  202db6:	83 c4 20             	add    $0x20,%esp
  202db9:	c6 05 48 29 23 00 01 	movb   $0x1,0x232948
  202dc0:	83 ec 08             	sub    $0x8,%esp
  202dc3:	83 ec 08             	sub    $0x8,%esp
  202dc6:	89 e0                	mov    %esp,%eax
  202dc8:	8b 15 20 29 23 00    	mov    0x232920,%edx
  202dce:	89 10                	mov    %edx,(%eax)
  202dd0:	0f b7 15 24 29 23 00 	movzwl 0x232924,%edx
  202dd7:	66 89 50 04          	mov    %dx,0x4(%eax)
  202ddb:	e8 4c fe ff ff       	call   202c2c <__lidt>
  202de0:	83 c4 10             	add    $0x10,%esp
  202de3:	e8 4e fe ff ff       	call   202c36 <__sti>
  202de8:	90                   	nop
  202de9:	c9                   	leave
  202dea:	c3                   	ret
  202deb:	66 90                	xchg   %ax,%ax
  202ded:	66 90                	xchg   %ax,%ax
  202def:	90                   	nop

00202df0 <hlt_loop>:
  202df0:	b8 cd ab 34 12       	mov    $0x1234abcd,%eax
  202df5:	fa                   	cli
  202df6:	f4                   	hlt
  202df7:	eb f7                	jmp    202df0 <hlt_loop>

00202df9 <isr_stub_0>:
  202df9:	55                   	push   %ebp
  202dfa:	89 e5                	mov    %esp,%ebp
  202dfc:	6a 00                	push   $0x0
  202dfe:	68 60 58 20 00       	push   $0x205860
  202e03:	ff 35 5c 58 20 00    	push   0x20585c
  202e09:	e8 c5 f7 ff ff       	call   2025d3 <kprintf_argc>
  202e0e:	89 ec                	mov    %ebp,%esp
  202e10:	5d                   	pop    %ebp
  202e11:	cf                   	iret

00202e12 <isr_stub_1>:
  202e12:	55                   	push   %ebp
  202e13:	89 e5                	mov    %esp,%ebp
  202e15:	6a 01                	push   $0x1
  202e17:	68 60 58 20 00       	push   $0x205860
  202e1c:	ff 35 5c 58 20 00    	push   0x20585c
  202e22:	e8 ac f7 ff ff       	call   2025d3 <kprintf_argc>
  202e27:	89 ec                	mov    %ebp,%esp
  202e29:	5d                   	pop    %ebp
  202e2a:	cf                   	iret

00202e2b <isr_stub_2>:
  202e2b:	55                   	push   %ebp
  202e2c:	89 e5                	mov    %esp,%ebp
  202e2e:	6a 02                	push   $0x2
  202e30:	68 60 58 20 00       	push   $0x205860
  202e35:	ff 35 5c 58 20 00    	push   0x20585c
  202e3b:	e8 93 f7 ff ff       	call   2025d3 <kprintf_argc>
  202e40:	89 ec                	mov    %ebp,%esp
  202e42:	5d                   	pop    %ebp
  202e43:	cf                   	iret

00202e44 <isr_stub_3>:
  202e44:	55                   	push   %ebp
  202e45:	89 e5                	mov    %esp,%ebp
  202e47:	6a 03                	push   $0x3
  202e49:	68 60 58 20 00       	push   $0x205860
  202e4e:	ff 35 5c 58 20 00    	push   0x20585c
  202e54:	e8 7a f7 ff ff       	call   2025d3 <kprintf_argc>
  202e59:	89 ec                	mov    %ebp,%esp
  202e5b:	5d                   	pop    %ebp
  202e5c:	cf                   	iret

00202e5d <isr_stub_4>:
  202e5d:	55                   	push   %ebp
  202e5e:	89 e5                	mov    %esp,%ebp
  202e60:	6a 04                	push   $0x4
  202e62:	68 60 58 20 00       	push   $0x205860
  202e67:	ff 35 5c 58 20 00    	push   0x20585c
  202e6d:	e8 61 f7 ff ff       	call   2025d3 <kprintf_argc>
  202e72:	89 ec                	mov    %ebp,%esp
  202e74:	5d                   	pop    %ebp
  202e75:	cf                   	iret

00202e76 <isr_stub_5>:
  202e76:	55                   	push   %ebp
  202e77:	89 e5                	mov    %esp,%ebp
  202e79:	6a 05                	push   $0x5
  202e7b:	68 60 58 20 00       	push   $0x205860
  202e80:	ff 35 5c 58 20 00    	push   0x20585c
  202e86:	e8 48 f7 ff ff       	call   2025d3 <kprintf_argc>
  202e8b:	89 ec                	mov    %ebp,%esp
  202e8d:	5d                   	pop    %ebp
  202e8e:	cf                   	iret

00202e8f <isr_stub_6>:
  202e8f:	55                   	push   %ebp
  202e90:	89 e5                	mov    %esp,%ebp
  202e92:	6a 06                	push   $0x6
  202e94:	68 60 58 20 00       	push   $0x205860
  202e99:	ff 35 5c 58 20 00    	push   0x20585c
  202e9f:	e8 2f f7 ff ff       	call   2025d3 <kprintf_argc>
  202ea4:	89 ec                	mov    %ebp,%esp
  202ea6:	5d                   	pop    %ebp
  202ea7:	cf                   	iret

00202ea8 <isr_stub_7>:
  202ea8:	55                   	push   %ebp
  202ea9:	89 e5                	mov    %esp,%ebp
  202eab:	6a 07                	push   $0x7
  202ead:	68 60 58 20 00       	push   $0x205860
  202eb2:	ff 35 5c 58 20 00    	push   0x20585c
  202eb8:	e8 16 f7 ff ff       	call   2025d3 <kprintf_argc>
  202ebd:	89 ec                	mov    %ebp,%esp
  202ebf:	5d                   	pop    %ebp
  202ec0:	cf                   	iret

00202ec1 <isr_stub_8>:
  202ec1:	55                   	push   %ebp
  202ec2:	89 e5                	mov    %esp,%ebp
  202ec4:	6a 08                	push   $0x8
  202ec6:	68 60 58 20 00       	push   $0x205860
  202ecb:	ff 35 5c 58 20 00    	push   0x20585c
  202ed1:	e8 fd f6 ff ff       	call   2025d3 <kprintf_argc>
  202ed6:	89 ec                	mov    %ebp,%esp
  202ed8:	5d                   	pop    %ebp
  202ed9:	cf                   	iret

00202eda <isr_stub_9>:
  202eda:	55                   	push   %ebp
  202edb:	89 e5                	mov    %esp,%ebp
  202edd:	6a 09                	push   $0x9
  202edf:	68 60 58 20 00       	push   $0x205860
  202ee4:	ff 35 5c 58 20 00    	push   0x20585c
  202eea:	e8 e4 f6 ff ff       	call   2025d3 <kprintf_argc>
  202eef:	89 ec                	mov    %ebp,%esp
  202ef1:	5d                   	pop    %ebp
  202ef2:	cf                   	iret

00202ef3 <isr_stub_10>:
  202ef3:	55                   	push   %ebp
  202ef4:	89 e5                	mov    %esp,%ebp
  202ef6:	6a 0a                	push   $0xa
  202ef8:	68 60 58 20 00       	push   $0x205860
  202efd:	ff 35 5c 58 20 00    	push   0x20585c
  202f03:	e8 cb f6 ff ff       	call   2025d3 <kprintf_argc>
  202f08:	89 ec                	mov    %ebp,%esp
  202f0a:	5d                   	pop    %ebp
  202f0b:	cf                   	iret

00202f0c <isr_stub_11>:
  202f0c:	55                   	push   %ebp
  202f0d:	89 e5                	mov    %esp,%ebp
  202f0f:	6a 0b                	push   $0xb
  202f11:	68 60 58 20 00       	push   $0x205860
  202f16:	ff 35 5c 58 20 00    	push   0x20585c
  202f1c:	e8 b2 f6 ff ff       	call   2025d3 <kprintf_argc>
  202f21:	89 ec                	mov    %ebp,%esp
  202f23:	5d                   	pop    %ebp
  202f24:	cf                   	iret

00202f25 <isr_stub_12>:
  202f25:	55                   	push   %ebp
  202f26:	89 e5                	mov    %esp,%ebp
  202f28:	6a 0c                	push   $0xc
  202f2a:	68 60 58 20 00       	push   $0x205860
  202f2f:	ff 35 5c 58 20 00    	push   0x20585c
  202f35:	e8 99 f6 ff ff       	call   2025d3 <kprintf_argc>
  202f3a:	89 ec                	mov    %ebp,%esp
  202f3c:	5d                   	pop    %ebp
  202f3d:	cf                   	iret

00202f3e <isr_stub_13>:
  202f3e:	55                   	push   %ebp
  202f3f:	89 e5                	mov    %esp,%ebp
  202f41:	6a 0d                	push   $0xd
  202f43:	68 60 58 20 00       	push   $0x205860
  202f48:	ff 35 5c 58 20 00    	push   0x20585c
  202f4e:	e8 80 f6 ff ff       	call   2025d3 <kprintf_argc>
  202f53:	89 ec                	mov    %ebp,%esp
  202f55:	5d                   	pop    %ebp
  202f56:	cf                   	iret

00202f57 <isr_stub_14>:
  202f57:	55                   	push   %ebp
  202f58:	89 e5                	mov    %esp,%ebp
  202f5a:	6a 0e                	push   $0xe
  202f5c:	68 60 58 20 00       	push   $0x205860
  202f61:	ff 35 5c 58 20 00    	push   0x20585c
  202f67:	e8 67 f6 ff ff       	call   2025d3 <kprintf_argc>
  202f6c:	89 ec                	mov    %ebp,%esp
  202f6e:	5d                   	pop    %ebp
  202f6f:	cf                   	iret

00202f70 <isr_stub_15>:
  202f70:	55                   	push   %ebp
  202f71:	89 e5                	mov    %esp,%ebp
  202f73:	6a 0f                	push   $0xf
  202f75:	68 60 58 20 00       	push   $0x205860
  202f7a:	ff 35 5c 58 20 00    	push   0x20585c
  202f80:	e8 4e f6 ff ff       	call   2025d3 <kprintf_argc>
  202f85:	89 ec                	mov    %ebp,%esp
  202f87:	5d                   	pop    %ebp
  202f88:	cf                   	iret

00202f89 <isr_stub_16>:
  202f89:	55                   	push   %ebp
  202f8a:	89 e5                	mov    %esp,%ebp
  202f8c:	6a 10                	push   $0x10
  202f8e:	68 60 58 20 00       	push   $0x205860
  202f93:	ff 35 5c 58 20 00    	push   0x20585c
  202f99:	e8 35 f6 ff ff       	call   2025d3 <kprintf_argc>
  202f9e:	89 ec                	mov    %ebp,%esp
  202fa0:	5d                   	pop    %ebp
  202fa1:	cf                   	iret

00202fa2 <isr_stub_17>:
  202fa2:	55                   	push   %ebp
  202fa3:	89 e5                	mov    %esp,%ebp
  202fa5:	6a 11                	push   $0x11
  202fa7:	68 60 58 20 00       	push   $0x205860
  202fac:	ff 35 5c 58 20 00    	push   0x20585c
  202fb2:	e8 1c f6 ff ff       	call   2025d3 <kprintf_argc>
  202fb7:	89 ec                	mov    %ebp,%esp
  202fb9:	5d                   	pop    %ebp
  202fba:	cf                   	iret

00202fbb <isr_stub_18>:
  202fbb:	55                   	push   %ebp
  202fbc:	89 e5                	mov    %esp,%ebp
  202fbe:	6a 12                	push   $0x12
  202fc0:	68 60 58 20 00       	push   $0x205860
  202fc5:	ff 35 5c 58 20 00    	push   0x20585c
  202fcb:	e8 03 f6 ff ff       	call   2025d3 <kprintf_argc>
  202fd0:	89 ec                	mov    %ebp,%esp
  202fd2:	5d                   	pop    %ebp
  202fd3:	cf                   	iret

00202fd4 <isr_stub_19>:
  202fd4:	55                   	push   %ebp
  202fd5:	89 e5                	mov    %esp,%ebp
  202fd7:	6a 13                	push   $0x13
  202fd9:	68 60 58 20 00       	push   $0x205860
  202fde:	ff 35 5c 58 20 00    	push   0x20585c
  202fe4:	e8 ea f5 ff ff       	call   2025d3 <kprintf_argc>
  202fe9:	89 ec                	mov    %ebp,%esp
  202feb:	5d                   	pop    %ebp
  202fec:	cf                   	iret

00202fed <isr_stub_20>:
  202fed:	55                   	push   %ebp
  202fee:	89 e5                	mov    %esp,%ebp
  202ff0:	6a 14                	push   $0x14
  202ff2:	68 60 58 20 00       	push   $0x205860
  202ff7:	ff 35 5c 58 20 00    	push   0x20585c
  202ffd:	e8 d1 f5 ff ff       	call   2025d3 <kprintf_argc>
  203002:	89 ec                	mov    %ebp,%esp
  203004:	5d                   	pop    %ebp
  203005:	cf                   	iret

00203006 <isr_stub_21>:
  203006:	55                   	push   %ebp
  203007:	89 e5                	mov    %esp,%ebp
  203009:	6a 15                	push   $0x15
  20300b:	68 60 58 20 00       	push   $0x205860
  203010:	ff 35 5c 58 20 00    	push   0x20585c
  203016:	e8 b8 f5 ff ff       	call   2025d3 <kprintf_argc>
  20301b:	89 ec                	mov    %ebp,%esp
  20301d:	5d                   	pop    %ebp
  20301e:	cf                   	iret

0020301f <isr_stub_22>:
  20301f:	55                   	push   %ebp
  203020:	89 e5                	mov    %esp,%ebp
  203022:	6a 16                	push   $0x16
  203024:	68 60 58 20 00       	push   $0x205860
  203029:	ff 35 5c 58 20 00    	push   0x20585c
  20302f:	e8 9f f5 ff ff       	call   2025d3 <kprintf_argc>
  203034:	89 ec                	mov    %ebp,%esp
  203036:	5d                   	pop    %ebp
  203037:	cf                   	iret

00203038 <isr_stub_23>:
  203038:	55                   	push   %ebp
  203039:	89 e5                	mov    %esp,%ebp
  20303b:	6a 17                	push   $0x17
  20303d:	68 60 58 20 00       	push   $0x205860
  203042:	ff 35 5c 58 20 00    	push   0x20585c
  203048:	e8 86 f5 ff ff       	call   2025d3 <kprintf_argc>
  20304d:	89 ec                	mov    %ebp,%esp
  20304f:	5d                   	pop    %ebp
  203050:	cf                   	iret

00203051 <isr_stub_24>:
  203051:	55                   	push   %ebp
  203052:	89 e5                	mov    %esp,%ebp
  203054:	6a 18                	push   $0x18
  203056:	68 60 58 20 00       	push   $0x205860
  20305b:	ff 35 5c 58 20 00    	push   0x20585c
  203061:	e8 6d f5 ff ff       	call   2025d3 <kprintf_argc>
  203066:	89 ec                	mov    %ebp,%esp
  203068:	5d                   	pop    %ebp
  203069:	cf                   	iret

0020306a <isr_stub_25>:
  20306a:	55                   	push   %ebp
  20306b:	89 e5                	mov    %esp,%ebp
  20306d:	6a 19                	push   $0x19
  20306f:	68 60 58 20 00       	push   $0x205860
  203074:	ff 35 5c 58 20 00    	push   0x20585c
  20307a:	e8 54 f5 ff ff       	call   2025d3 <kprintf_argc>
  20307f:	89 ec                	mov    %ebp,%esp
  203081:	5d                   	pop    %ebp
  203082:	cf                   	iret

00203083 <isr_stub_26>:
  203083:	55                   	push   %ebp
  203084:	89 e5                	mov    %esp,%ebp
  203086:	6a 1a                	push   $0x1a
  203088:	68 60 58 20 00       	push   $0x205860
  20308d:	ff 35 5c 58 20 00    	push   0x20585c
  203093:	e8 3b f5 ff ff       	call   2025d3 <kprintf_argc>
  203098:	89 ec                	mov    %ebp,%esp
  20309a:	5d                   	pop    %ebp
  20309b:	cf                   	iret

0020309c <isr_stub_27>:
  20309c:	55                   	push   %ebp
  20309d:	89 e5                	mov    %esp,%ebp
  20309f:	6a 1b                	push   $0x1b
  2030a1:	68 60 58 20 00       	push   $0x205860
  2030a6:	ff 35 5c 58 20 00    	push   0x20585c
  2030ac:	e8 22 f5 ff ff       	call   2025d3 <kprintf_argc>
  2030b1:	89 ec                	mov    %ebp,%esp
  2030b3:	5d                   	pop    %ebp
  2030b4:	cf                   	iret

002030b5 <isr_stub_28>:
  2030b5:	55                   	push   %ebp
  2030b6:	89 e5                	mov    %esp,%ebp
  2030b8:	6a 1c                	push   $0x1c
  2030ba:	68 60 58 20 00       	push   $0x205860
  2030bf:	ff 35 5c 58 20 00    	push   0x20585c
  2030c5:	e8 09 f5 ff ff       	call   2025d3 <kprintf_argc>
  2030ca:	89 ec                	mov    %ebp,%esp
  2030cc:	5d                   	pop    %ebp
  2030cd:	cf                   	iret

002030ce <isr_stub_29>:
  2030ce:	55                   	push   %ebp
  2030cf:	89 e5                	mov    %esp,%ebp
  2030d1:	6a 1d                	push   $0x1d
  2030d3:	68 60 58 20 00       	push   $0x205860
  2030d8:	ff 35 5c 58 20 00    	push   0x20585c
  2030de:	e8 f0 f4 ff ff       	call   2025d3 <kprintf_argc>
  2030e3:	89 ec                	mov    %ebp,%esp
  2030e5:	5d                   	pop    %ebp
  2030e6:	cf                   	iret

002030e7 <isr_stub_30>:
  2030e7:	55                   	push   %ebp
  2030e8:	89 e5                	mov    %esp,%ebp
  2030ea:	6a 1e                	push   $0x1e
  2030ec:	68 60 58 20 00       	push   $0x205860
  2030f1:	ff 35 5c 58 20 00    	push   0x20585c
  2030f7:	e8 d7 f4 ff ff       	call   2025d3 <kprintf_argc>
  2030fc:	89 ec                	mov    %ebp,%esp
  2030fe:	5d                   	pop    %ebp
  2030ff:	cf                   	iret

00203100 <isr_stub_31>:
  203100:	55                   	push   %ebp
  203101:	89 e5                	mov    %esp,%ebp
  203103:	6a 1f                	push   $0x1f
  203105:	68 60 58 20 00       	push   $0x205860
  20310a:	ff 35 5c 58 20 00    	push   0x20585c
  203110:	e8 be f4 ff ff       	call   2025d3 <kprintf_argc>
  203115:	89 ec                	mov    %ebp,%esp
  203117:	5d                   	pop    %ebp
  203118:	cf                   	iret

00203119 <isr_stub_table>:
  203119:	f9                   	stc
  20311a:	2d 20 00 12 2e       	sub    $0x2e120020,%eax
  20311f:	20 00                	and    %al,(%eax)
  203121:	2b 2e                	sub    (%esi),%ebp
  203123:	20 00                	and    %al,(%eax)
  203125:	44                   	inc    %esp
  203126:	2e 20 00             	and    %al,%cs:(%eax)
  203129:	5d                   	pop    %ebp
  20312a:	2e 20 00             	and    %al,%cs:(%eax)
  20312d:	76 2e                	jbe    20315d <isr_stub_table+0x44>
  20312f:	20 00                	and    %al,(%eax)
  203131:	8f                   	(bad)
  203132:	2e 20 00             	and    %al,%cs:(%eax)
  203135:	a8 2e                	test   $0x2e,%al
  203137:	20 00                	and    %al,(%eax)
  203139:	c1 2e 20             	shrl   $0x20,(%esi)
  20313c:	00 da                	add    %bl,%dl
  20313e:	2e 20 00             	and    %al,%cs:(%eax)
  203141:	f3 2e 20 00          	repz and %al,%cs:(%eax)
  203145:	0c 2f                	or     $0x2f,%al
  203147:	20 00                	and    %al,(%eax)
  203149:	25 2f 20 00 3e       	and    $0x3e00202f,%eax
  20314e:	2f                   	das
  20314f:	20 00                	and    %al,(%eax)
  203151:	57                   	push   %edi
  203152:	2f                   	das
  203153:	20 00                	and    %al,(%eax)
  203155:	70 2f                	jo     203186 <isr_stub_table+0x6d>
  203157:	20 00                	and    %al,(%eax)
  203159:	89 2f                	mov    %ebp,(%edi)
  20315b:	20 00                	and    %al,(%eax)
  20315d:	a2 2f 20 00 bb       	mov    %al,0xbb00202f
  203162:	2f                   	das
  203163:	20 00                	and    %al,(%eax)
  203165:	d4 2f                	aam    $0x2f
  203167:	20 00                	and    %al,(%eax)
  203169:	ed                   	in     (%dx),%eax
  20316a:	2f                   	das
  20316b:	20 00                	and    %al,(%eax)
  20316d:	06                   	push   %es
  20316e:	30 20                	xor    %ah,(%eax)
  203170:	00 1f                	add    %bl,(%edi)
  203172:	30 20                	xor    %ah,(%eax)
  203174:	00 38                	add    %bh,(%eax)
  203176:	30 20                	xor    %ah,(%eax)
  203178:	00 51 30             	add    %dl,0x30(%ecx)
  20317b:	20 00                	and    %al,(%eax)
  20317d:	6a 30                	push   $0x30
  20317f:	20 00                	and    %al,(%eax)
  203181:	83 30 20             	xorl   $0x20,(%eax)
  203184:	00 9c 30 20 00 b5 30 	add    %bl,0x30b50020(%eax,%esi,1)
  20318b:	20 00                	and    %al,(%eax)
  20318d:	ce                   	into
  20318e:	30 20                	xor    %ah,(%eax)
  203190:	00 e7                	add    %ah,%bh
  203192:	30 20                	xor    %ah,(%eax)
  203194:	00 00                	add    %al,(%eax)
  203196:	31 20                	xor    %esp,(%eax)
	...

00203199 <interrupt_34_handler>:
  203199:	55                   	push   %ebp
  20319a:	89 e5                	mov    %esp,%ebp
  20319c:	6a 22                	push   $0x22
  20319e:	68 60 58 20 00       	push   $0x205860
  2031a3:	ff 35 5c 58 20 00    	push   0x20585c
  2031a9:	e8 25 f4 ff ff       	call   2025d3 <kprintf_argc>
  2031ae:	83 c4 0c             	add    $0xc,%esp
  2031b1:	89 ec                	mov    %ebp,%esp
  2031b3:	5d                   	pop    %ebp
  2031b4:	cf                   	iret

002031b5 <interrupt_69_handler>:
  2031b5:	55                   	push   %ebp
  2031b6:	89 e5                	mov    %esp,%ebp
  2031b8:	6a 45                	push   $0x45
  2031ba:	68 7b 58 20 00       	push   $0x20587b
  2031bf:	ff 35 5c 58 20 00    	push   0x20585c
  2031c5:	e8 09 f4 ff ff       	call   2025d3 <kprintf_argc>
  2031ca:	83 c4 0c             	add    $0xc,%esp
  2031cd:	89 ec                	mov    %ebp,%esp
  2031cf:	5d                   	pop    %ebp
  2031d0:	cf                   	iret

002031d1 <interrupt_8_fmt>:
  2031d1:	49                   	dec    %ecx
  2031d2:	6e                   	outsb  %ds:(%esi),(%dx)
  2031d3:	20 49 6e             	and    %cl,0x6e(%ecx)
  2031d6:	74 65                	je     20323d <interrupt_8_handler+0x13>
  2031d8:	72 72                	jb     20324c <interrupt_8_handler+0x22>
  2031da:	75 70                	jne    20324c <interrupt_8_handler+0x22>
  2031dc:	74 20                	je     2031fe <err_inf_fmt+0x5>
  2031de:	68 61 6e 64 6c       	push   $0x6c646e61
  2031e3:	65 72 3a             	gs jb  203220 <err_inf_fmt+0x27>
  2031e6:	20 25 64 2c 20 44    	and    %ah,0x44202c64
  2031ec:	4f                   	dec    %edi
  2031ed:	55                   	push   %ebp
  2031ee:	42                   	inc    %edx
  2031ef:	4c                   	dec    %esp
  2031f0:	45                   	inc    %ebp
  2031f1:	5f                   	pop    %edi
  2031f2:	46                   	inc    %esi
  2031f3:	41                   	inc    %ecx
  2031f4:	55                   	push   %ebp
  2031f5:	4c                   	dec    %esp
  2031f6:	54                   	push   %esp
  2031f7:	0a 00                	or     (%eax),%al

002031f9 <err_inf_fmt>:
  2031f9:	45                   	inc    %ebp
  2031fa:	72 72                	jb     20326e <interrupt_8_handler+0x44>
  2031fc:	6f                   	outsl  %ds:(%esi),(%dx)
  2031fd:	72 20                	jb     20321f <err_inf_fmt+0x26>
  2031ff:	43                   	inc    %ebx
  203200:	6f                   	outsl  %ds:(%esi),(%dx)
  203201:	64 65 20 3d 20 25 75 	fs and %bh,%gs:0x2c752520
  203208:	2c 
  203209:	20 45 49             	and    %al,0x49(%ebp)
  20320c:	50                   	push   %eax
  20320d:	20 3d 20 25 75 2c    	and    %bh,0x2c752520
  203213:	20 43 53             	and    %al,0x53(%ebx)
  203216:	20 3d 20 25 75 2c    	and    %bh,0x2c752520
  20321c:	20 45 66             	and    %al,0x66(%ebp)
  20321f:	6c                   	insb   (%dx),%es:(%edi)
  203220:	61                   	popa
  203221:	67 73 20             	addr16 jae 203244 <interrupt_8_handler+0x1a>
  203224:	3d 20 25 62 0a       	cmp    $0xa622520,%eax
	...

0020322a <interrupt_8_handler>:
  20322a:	55                   	push   %ebp
  20322b:	89 e5                	mov    %esp,%ebp
  20322d:	60                   	pusha
  20322e:	1e                   	push   %ds
  20322f:	06                   	push   %es
  203230:	0f a0                	push   %fs
  203232:	0f a8                	push   %gs
  203234:	6a 08                	push   $0x8
  203236:	68 d1 31 20 00       	push   $0x2031d1
  20323b:	6a 02                	push   $0x2
  20323d:	e8 91 f3 ff ff       	call   2025d3 <kprintf_argc>
  203242:	83 c4 0c             	add    $0xc,%esp
  203245:	67 8b 46 04          	mov    0x4(%bp),%eax
  203249:	67 8b 5e 08          	mov    0x8(%bp),%ebx
  20324d:	67 8b 4e 0c          	mov    0xc(%bp),%ecx
  203251:	67 8b 56 10          	mov    0x10(%bp),%edx
  203255:	52                   	push   %edx
  203256:	51                   	push   %ecx
  203257:	53                   	push   %ebx
  203258:	50                   	push   %eax
  203259:	68 f9 31 20 00       	push   $0x2031f9
  20325e:	6a 05                	push   $0x5
  203260:	e8 6e f3 ff ff       	call   2025d3 <kprintf_argc>
  203265:	83 c4 18             	add    $0x18,%esp
  203268:	0f a9                	pop    %gs
  20326a:	0f a1                	pop    %fs
  20326c:	07                   	pop    %es
  20326d:	1f                   	pop    %ds
  20326e:	61                   	popa
  20326f:	89 ec                	mov    %ebp,%esp
  203271:	5d                   	pop    %ebp
  203272:	cf                   	iret

00203273 <page_index>:
  203273:	55                   	push   %ebp
  203274:	89 e5                	mov    %esp,%ebp
  203276:	8b 45 08             	mov    0x8(%ebp),%eax
  203279:	c1 e8 0c             	shr    $0xc,%eax
  20327c:	5d                   	pop    %ebp
  20327d:	c3                   	ret

0020327e <set_page_present>:
  20327e:	55                   	push   %ebp
  20327f:	89 e5                	mov    %esp,%ebp
  203281:	56                   	push   %esi
  203282:	53                   	push   %ebx
  203283:	8b 45 08             	mov    0x8(%ebp),%eax
  203286:	c1 e8 03             	shr    $0x3,%eax
  203289:	0f b6 90 00 50 23 00 	movzbl 0x235000(%eax),%edx
  203290:	89 d6                	mov    %edx,%esi
  203292:	8b 55 08             	mov    0x8(%ebp),%edx
  203295:	83 e2 07             	and    $0x7,%edx
  203298:	bb 01 00 00 00       	mov    $0x1,%ebx
  20329d:	89 d1                	mov    %edx,%ecx
  20329f:	d3 e3                	shl    %cl,%ebx
  2032a1:	89 da                	mov    %ebx,%edx
  2032a3:	09 f2                	or     %esi,%edx
  2032a5:	88 90 00 50 23 00    	mov    %dl,0x235000(%eax)
  2032ab:	90                   	nop
  2032ac:	5b                   	pop    %ebx
  2032ad:	5e                   	pop    %esi
  2032ae:	5d                   	pop    %ebp
  2032af:	c3                   	ret

002032b0 <clear_page_present>:
  2032b0:	55                   	push   %ebp
  2032b1:	89 e5                	mov    %esp,%ebp
  2032b3:	56                   	push   %esi
  2032b4:	53                   	push   %ebx
  2032b5:	8b 45 08             	mov    0x8(%ebp),%eax
  2032b8:	c1 e8 03             	shr    $0x3,%eax
  2032bb:	0f b6 90 00 50 23 00 	movzbl 0x235000(%eax),%edx
  2032c2:	89 d6                	mov    %edx,%esi
  2032c4:	8b 55 08             	mov    0x8(%ebp),%edx
  2032c7:	83 e2 07             	and    $0x7,%edx
  2032ca:	bb 01 00 00 00       	mov    $0x1,%ebx
  2032cf:	89 d1                	mov    %edx,%ecx
  2032d1:	d3 e3                	shl    %cl,%ebx
  2032d3:	89 da                	mov    %ebx,%edx
  2032d5:	f7 d2                	not    %edx
  2032d7:	21 f2                	and    %esi,%edx
  2032d9:	88 90 00 50 23 00    	mov    %dl,0x235000(%eax)
  2032df:	90                   	nop
  2032e0:	5b                   	pop    %ebx
  2032e1:	5e                   	pop    %esi
  2032e2:	5d                   	pop    %ebp
  2032e3:	c3                   	ret

002032e4 <init_page_bitmap>:
  2032e4:	55                   	push   %ebp
  2032e5:	89 e5                	mov    %esp,%ebp
  2032e7:	83 ec 10             	sub    $0x10,%esp
  2032ea:	c7 45 f8 00 00 00 00 	movl   $0x0,-0x8(%ebp)
  2032f1:	90                   	nop
  2032f2:	c7 45 fc 00 00 00 00 	movl   $0x0,-0x4(%ebp)
  2032f9:	eb 0f                	jmp    20330a <init_page_bitmap+0x26>
  2032fb:	ff 75 fc             	push   -0x4(%ebp)
  2032fe:	e8 7b ff ff ff       	call   20327e <set_page_present>
  203303:	83 c4 04             	add    $0x4,%esp
  203306:	83 45 fc 01          	addl   $0x1,-0x4(%ebp)
  20330a:	81 7d fc ff 03 00 00 	cmpl   $0x3ff,-0x4(%ebp)
  203311:	76 e8                	jbe    2032fb <init_page_bitmap+0x17>
  203313:	90                   	nop
  203314:	90                   	nop
  203315:	c9                   	leave
  203316:	c3                   	ret

00203317 <init_paging>:
  203317:	55                   	push   %ebp
  203318:	89 e5                	mov    %esp,%ebp
  20331a:	83 ec 10             	sub    $0x10,%esp
  20331d:	c7 45 fc 00 00 00 00 	movl   $0x0,-0x4(%ebp)
  203324:	eb 19                	jmp    20333f <init_paging+0x28>
  203326:	8b 45 fc             	mov    -0x4(%ebp),%eax
  203329:	c1 e0 0c             	shl    $0xc,%eax
  20332c:	83 c8 03             	or     $0x3,%eax
  20332f:	89 c2                	mov    %eax,%edx
  203331:	8b 45 fc             	mov    -0x4(%ebp),%eax
  203334:	89 14 85 00 40 23 00 	mov    %edx,0x234000(,%eax,4)
  20333b:	83 45 fc 01          	addl   $0x1,-0x4(%ebp)
  20333f:	81 7d fc ff 03 00 00 	cmpl   $0x3ff,-0x4(%ebp)
  203346:	7e de                	jle    203326 <init_paging+0xf>
  203348:	b8 00 40 23 00       	mov    $0x234000,%eax
  20334d:	83 c8 03             	or     $0x3,%eax
  203350:	a3 00 30 23 00       	mov    %eax,0x233000
  203355:	ba 00 30 23 00       	mov    $0x233000,%edx
  20335a:	0f 22 da             	mov    %edx,%cr3
  20335d:	0f 20 c0             	mov    %cr0,%eax
  203360:	0d 00 00 00 80       	or     $0x80000000,%eax
  203365:	0f 22 c0             	mov    %eax,%cr0
  203368:	90                   	nop
  203369:	c9                   	leave
  20336a:	c3                   	ret

0020336b <alloc_page>:
  20336b:	55                   	push   %ebp
  20336c:	89 e5                	mov    %esp,%ebp
  20336e:	83 ec 10             	sub    $0x10,%esp
  203371:	c7 45 fc 00 00 00 00 	movl   $0x0,-0x4(%ebp)
  203378:	90                   	nop
  203379:	b8 00 00 00 00       	mov    $0x0,%eax
  20337e:	c9                   	leave
  20337f:	c3                   	ret

00203380 <free_page>:
  203380:	55                   	push   %ebp
  203381:	89 e5                	mov    %esp,%ebp
  203383:	83 ec 10             	sub    $0x10,%esp
  203386:	ff 75 08             	push   0x8(%ebp)
  203389:	e8 e5 fe ff ff       	call   203273 <page_index>
  20338e:	83 c4 04             	add    $0x4,%esp
  203391:	89 45 fc             	mov    %eax,-0x4(%ebp)
  203394:	ff 75 fc             	push   -0x4(%ebp)
  203397:	e8 14 ff ff ff       	call   2032b0 <clear_page_present>
  20339c:	83 c4 04             	add    $0x4,%esp
  20339f:	90                   	nop
  2033a0:	c9                   	leave
  2033a1:	c3                   	ret

002033a2 <alloc_n_pages>:
  2033a2:	55                   	push   %ebp
  2033a3:	89 e5                	mov    %esp,%ebp
  2033a5:	83 ec 10             	sub    $0x10,%esp
  2033a8:	83 7d 08 00          	cmpl   $0x0,0x8(%ebp)
  2033ac:	74 06                	je     2033b4 <alloc_n_pages+0x12>
  2033ae:	83 7d 08 00          	cmpl   $0x0,0x8(%ebp)
  2033b2:	74 07                	je     2033bb <alloc_n_pages+0x19>
  2033b4:	b8 00 00 00 00       	mov    $0x0,%eax
  2033b9:	eb 1b                	jmp    2033d6 <alloc_n_pages+0x34>
  2033bb:	c7 45 fc 00 00 00 00 	movl   $0x0,-0x4(%ebp)
  2033c2:	c7 45 f8 00 00 00 00 	movl   $0x0,-0x8(%ebp)
  2033c9:	c7 45 f4 00 00 00 00 	movl   $0x0,-0xc(%ebp)
  2033d0:	90                   	nop
  2033d1:	b8 00 00 00 00       	mov    $0x0,%eax
  2033d6:	c9                   	leave
  2033d7:	c3                   	ret

002033d8 <free_n_pages>:
  2033d8:	55                   	push   %ebp
  2033d9:	89 e5                	mov    %esp,%ebp
  2033db:	83 ec 10             	sub    $0x10,%esp
  2033de:	ff 75 08             	push   0x8(%ebp)
  2033e1:	e8 8d fe ff ff       	call   203273 <page_index>
  2033e6:	83 c4 04             	add    $0x4,%esp
  2033e9:	89 45 f8             	mov    %eax,-0x8(%ebp)
  2033ec:	c7 45 fc 00 00 00 00 	movl   $0x0,-0x4(%ebp)
  2033f3:	eb 15                	jmp    20340a <free_n_pages+0x32>
  2033f5:	8b 55 f8             	mov    -0x8(%ebp),%edx
  2033f8:	8b 45 fc             	mov    -0x4(%ebp),%eax
  2033fb:	01 d0                	add    %edx,%eax
  2033fd:	50                   	push   %eax
  2033fe:	e8 ad fe ff ff       	call   2032b0 <clear_page_present>
  203403:	83 c4 04             	add    $0x4,%esp
  203406:	83 45 fc 01          	addl   $0x1,-0x4(%ebp)
  20340a:	8b 45 fc             	mov    -0x4(%ebp),%eax
  20340d:	3b 45 0c             	cmp    0xc(%ebp),%eax
  203410:	72 e3                	jb     2033f5 <free_n_pages+0x1d>
  203412:	90                   	nop
  203413:	90                   	nop
  203414:	c9                   	leave
  203415:	c3                   	ret

00203416 <virt_to_phys>:
  203416:	55                   	push   %ebp
  203417:	89 e5                	mov    %esp,%ebp
  203419:	83 ec 20             	sub    $0x20,%esp
  20341c:	8b 45 08             	mov    0x8(%ebp),%eax
  20341f:	c1 e8 16             	shr    $0x16,%eax
  203422:	89 45 fc             	mov    %eax,-0x4(%ebp)
  203425:	8b 45 08             	mov    0x8(%ebp),%eax
  203428:	c1 e8 0c             	shr    $0xc,%eax
  20342b:	25 ff 03 00 00       	and    $0x3ff,%eax
  203430:	89 45 f8             	mov    %eax,-0x8(%ebp)
  203433:	8b 45 08             	mov    0x8(%ebp),%eax
  203436:	25 ff 0f 00 00       	and    $0xfff,%eax
  20343b:	89 45 f4             	mov    %eax,-0xc(%ebp)
  20343e:	8b 45 fc             	mov    -0x4(%ebp),%eax
  203441:	8b 04 85 00 30 23 00 	mov    0x233000(,%eax,4),%eax
  203448:	89 45 f0             	mov    %eax,-0x10(%ebp)
  20344b:	8b 45 f0             	mov    -0x10(%ebp),%eax
  20344e:	83 e0 01             	and    $0x1,%eax
  203451:	85 c0                	test   %eax,%eax
  203453:	75 07                	jne    20345c <virt_to_phys+0x46>
  203455:	b8 00 00 00 00       	mov    $0x0,%eax
  20345a:	eb 45                	jmp    2034a1 <virt_to_phys+0x8b>
  20345c:	8b 45 f0             	mov    -0x10(%ebp),%eax
  20345f:	25 00 f0 ff ff       	and    $0xfffff000,%eax
  203464:	89 45 ec             	mov    %eax,-0x14(%ebp)
  203467:	8b 45 f8             	mov    -0x8(%ebp),%eax
  20346a:	8d 14 85 00 00 00 00 	lea    0x0(,%eax,4),%edx
  203471:	8b 45 ec             	mov    -0x14(%ebp),%eax
  203474:	01 d0                	add    %edx,%eax
  203476:	8b 00                	mov    (%eax),%eax
  203478:	89 45 e8             	mov    %eax,-0x18(%ebp)
  20347b:	8b 45 e8             	mov    -0x18(%ebp),%eax
  20347e:	83 e0 01             	and    $0x1,%eax
  203481:	85 c0                	test   %eax,%eax
  203483:	75 07                	jne    20348c <virt_to_phys+0x76>
  203485:	b8 00 00 00 00       	mov    $0x0,%eax
  20348a:	eb 15                	jmp    2034a1 <virt_to_phys+0x8b>
  20348c:	8b 45 e8             	mov    -0x18(%ebp),%eax
