
build/myos.bin:     file format elf32-i386

Sections:
Idx Name          Size      VMA       LMA       File off  Algn
  0 .multiboot_start 0000000c  00007000  00007000  00001000  2**12
                  CONTENTS, ALLOC, LOAD, READONLY, DATA
  1 .stack16      00004000  00007010  00007010  0000100c  2**4
                  ALLOC
  2 .args16       00000030  0000b020  0000b020  0000100c  2**2
                  ALLOC
  3 .pm32_to_pm16_section 00000040  0000b060  0000b060  00005060  2**4
                  CONTENTS, ALLOC, LOAD, READONLY, DATA
  4 .saved_sp16   00000002  0000b0a0  0000b0a0  000050a0  2**4
                  CONTENTS, ALLOC, LOAD, READONLY, DATA
  5 .pm16_and_real16_wrappers 00000082  0000b0b0  0000b0b0  000050b0  2**4
                  CONTENTS, ALLOC, LOAD, READONLY, DATA
  6 .realmode16_functions 0000002e  0000b140  0000b140  00005140  2**4
                  CONTENTS, ALLOC, LOAD, READONLY, CODE
  7 .resume32     00000023  0000b170  0000b170  00005170  2**4
                  CONTENTS, ALLOC, LOAD, READONLY, DATA
  8 .misc32       00000026  0000b1a0  0000b1a0  000051a0  2**4
                  CONTENTS, ALLOC, LOAD, READONLY, DATA
  9 .text         000054cd  00200000  00200000  00006000  2**12
                  CONTENTS, ALLOC, LOAD, READONLY, CODE
 10 .rodata       000005f6  00206000  00206000  0000c000  2**12
                  CONTENTS, ALLOC, LOAD, READONLY, DATA
 11 .rodata.str1.1 000002f4  002065f6  002065f6  0000c5f6  2**0
                  CONTENTS, ALLOC, LOAD, READONLY, DATA
 12 .rodata.str1.4 00000226  002068ec  002068ec  0000c8ec  2**2
                  CONTENTS, ALLOC, LOAD, READONLY, DATA
 13 .rodata.cst8  00000008  00206b18  00206b18  0000cb18  2**3
                  CONTENTS, ALLOC, LOAD, READONLY, DATA
 14 .bss.interrupts 00000002  00206b20  00206b20  0000cb20  2**0
                  CONTENTS, ALLOC, LOAD, READONLY, DATA
 15 .data         00000004  00207000  00207000  0000d000  2**12
                  CONTENTS, ALLOC, LOAD, DATA
 16 .bss          0004e000  00208000  00208000  0000d004  2**12
                  ALLOC
 17 .comment      00000023  00000000  00000000  0000d004  2**0
                  CONTENTS, READONLY

Disassembly of section .multiboot_start:

00007000 <.multiboot_start>:
    7000:	02 b0 ad 1b 03 00    	add    0x31bad(%eax),%dh
    7006:	00 00                	add    %al,(%eax)
    7008:	fb                   	sti
    7009:	4f                   	dec    %edi
    700a:	52                   	push   %edx
    700b:	e4                   	.byte 0xe4

Disassembly of section .pm32_to_pm16_section:

0000b060 <pm32_to_pm16>:
    b060:	60                   	pusha
    b061:	9c                   	pushf
    b062:	1e                   	push   %ds
    b063:	06                   	push   %es
    b064:	0f a0                	push   %fs
    b066:	0f a8                	push   %gs
    b068:	0f 01 05 20 b0 00 00 	sgdtl  0xb020
    b06f:	89 25 28 b0 00 00    	mov    %esp,0xb028
    b075:	66 8c d0             	mov    %ss,%ax
    b078:	66 a3 2c b0 00 00    	mov    %ax,0xb02c
    b07e:	0e                   	push   %cs
    b07f:	66 58                	pop    %ax
    b081:	66 a3 2e b0 00 00    	mov    %ax,0xb02e
    b087:	bc 00 00 00 00       	mov    $0x0,%esp
    b08c:	bd 00 00 00 00       	mov    $0x0,%ebp
    b091:	fa                   	cli
    b092:	0f 01 15 a0 b1 00 00 	lgdtl  0xb1a0
    b099:	ea b0 b0 00 00 10 00 	ljmp   $0x10,$0xb0b0

Disassembly of section .saved_sp16:

0000b0a0 <saved_sp16>:
	...

Disassembly of section .pm16_and_real16_wrappers:

0000b0b0 <pm16_to_real16>:
    b0b0:	b8 18 00 8e d8       	mov    $0xd88e0018,%eax
    b0b5:	8e c0                	mov    %eax,%es
    b0b7:	8e e0                	mov    %eax,%fs
    b0b9:	8e e8                	mov    %eax,%gs
    b0bb:	8e d0                	mov    %eax,%ss
    b0bd:	0f 20 c0             	mov    %cr0,%eax
    b0c0:	66 83 e0 fe          	and    $0xfffe,%ax
    b0c4:	0f 22 c0             	mov    %eax,%cr0
    b0c7:	ea cc b0 00 00   	ljmp   $0xb8,$0xb0cc

0000b0cc <call_real16_function>:
    b0cc:	b8 00 00 8e d8       	mov    $0xd88e0000,%eax
    b0d1:	8e c0                	mov    %eax,%es
    b0d3:	8e e0                	mov    %eax,%fs
    b0d5:	8e e8                	mov    %eax,%gs
    b0d7:	66 b8 10 70          	mov    $0x7010,%ax
    b0db:	00 00                	add    %al,(%eax)
    b0dd:	66 c1 e8 04          	shr    $0x4,%ax
    b0e1:	8e d0                	mov    %eax,%ss
    b0e3:	66 bc 00 40          	mov    $0x4000,%sp
    b0e7:	00 00                	add    %al,(%eax)
    b0e9:	89 26                	mov    %esp,(%esi)
    b0eb:	a0 b0 8b 0e 38       	mov    0x380e8bb0,%al
    b0f0:	b0 83                	mov    $0x83,%al
    b0f2:	f9                   	stc
    b0f3:	00 74 1c 8c          	add    %dh,-0x74(%esp,%ebx,1)
    b0f7:	d0 8e c0 89 e7 8d    	rorb   $1,-0x72187640(%esi)
    b0fd:	36 3a b0 d1 e1 01 ce 	cmp    %ss:-0x31fe1e2f(%eax),%dh
    b104:	83 ee 02             	sub    $0x2,%esi
    b107:	29 cc                	sub    %ecx,%esp
    b109:	83 c4 02             	add    $0x2,%esp
    b10c:	d1 e9                	shr    $1,%ecx
    b10e:	fd                   	std
    b10f:	f3 a5                	rep movsl %ds:(%esi),%es:(%edi)
    b111:	fc                   	cld

0000b112 <args_done>:
    b112:	a1 34 b0 ff d0       	mov    0xd0ffb034,%eax

0000b117 <after_call>:
    b117:	a3 30 b0 8b 26       	mov    %eax,0x268bb030
    b11c:	a0 b0 0f 01 16       	mov    0x16010fb0,%al
    b121:	20 b0 0f 20 c0 66    	and    %dh,0x66c0200f(%eax)
    b127:	83 c8 01             	or     $0x1,%eax
    b12a:	0f 22 c0             	mov    %eax,%cr0
    b12d:	ea                   	.byte 0xea
    b12e:	70 b1                	jo     b0e1 <call_real16_function+0x15>
    b130:	10 00                	adc    %al,(%eax)

Disassembly of section .realmode16_functions:

0000b140 <add16_ref>:
    b140:	55                   	push   %ebp
    b141:	89 e5                	mov    %esp,%ebp
    b143:	8b 46 06             	mov    0x6(%esi),%eax
    b146:	03 46 04             	add    0x4(%esi),%eax
    b149:	5d                   	pop    %ebp
    b14a:	c3                   	ret

0000b14b <ret_5>:
    b14b:	55                   	push   %ebp
    b14c:	89 e5                	mov    %esp,%ebp
    b14e:	b8 05 00 5d c3       	mov    $0xc35d0005,%eax

0000b153 <complex_operation>:
    b153:	55                   	push   %ebp
    b154:	89 e5                	mov    %esp,%ebp
    b156:	8b 56 0a             	mov    0xa(%esi),%edx
    b159:	89 d0                	mov    %edx,%eax
    b15b:	d1 e0                	shl    $1,%eax
    b15d:	01 d0                	add    %edx,%eax
    b15f:	03 46 06             	add    0x6(%esi),%eax
    b162:	2b 46 08             	sub    0x8(%esi),%eax
    b165:	8b 56 04             	mov    0x4(%esi),%edx
    b168:	d1 e2                	shl    $1,%edx
    b16a:	01 d0                	add    %edx,%eax
    b16c:	5d                   	pop    %ebp
    b16d:	c3                   	ret

Disassembly of section .resume32:

0000b170 <resume32>:
    b170:	8b 25 28 b0 00 00    	mov    0xb028,%esp
    b176:	66 a1 2c b0 00 00    	mov    0xb02c,%ax
    b17c:	8e d0                	mov    %eax,%ss
    b17e:	8e d0                	mov    %eax,%ss
    b180:	0f a9                	pop    %gs
    b182:	0f a1                	pop    %fs
    b184:	07                   	pop    %es
    b185:	1f                   	pop    %ds
    b186:	9d                   	popf
    b187:	61                   	popa
    b188:	0f b7 05 30 b0 00 00 	movzwl 0xb030,%eax
    b18f:	c3                   	ret

0000b190 <halt_loop2>:
    b190:	f4                   	hlt
    b191:	eb fd                	jmp    b190 <halt_loop2>

Disassembly of section .misc32:

0000b1a0 <GDT16_DESCRIPTOR>:
    b1a0:	1f                   	pop    %ds
    b1a1:	00 a6 b1 00 00     	add    %ah,0xb1(%esi)

0000b1a6 <GDT16_START>:
	...

0000b1b6 <GDT16_START.CODE.limit_low>:
    b1b6:	ff                   	(bad)
    b1b7:	ff                 	incl   (%eax)

0000b1b8 <GDT16_START.CODE.base_low>:
	...

0000b1ba <GDT16_START.CODE.base_mid>:
	...

0000b1bb <GDT16_START.CODE.access>:
    b1bb:	9a       	lcall  $0x0,$0xffff0000

0000b1bc <GDT16_START.CODE.flags_LimitHigh>:
	...

0000b1bd <GDT16_START.CODE.base_high>:
	...

0000b1be <GDT16_START.DATA.limit_low>:
    b1be:	ff                   	(bad)
    b1bf:	ff                 	incl   (%eax)

0000b1c0 <GDT16_START.DATA.base_low>:
	...

0000b1c2 <GDT16_START.DATA.base_mid>:
	...

0000b1c3 <GDT16_START.DATA.access>:
    b1c3:	92                   	xchg   %eax,%edx

0000b1c4 <GDT16_START.DATA.flags_limitHigh>:
	...

0000b1c5 <GDT16_START.DATA.base_high>:
	...

Disassembly of section .text:

00200000 <_start>:
  200000:	b8 c0 fa ad de       	mov    $0xdeadfac0,%eax
  200005:	bc 00 c0 20 00       	mov    $0x20c000,%esp
  20000a:	e8 bf 07 00 00       	call   2007ce <kernel_main>

0020000f <halt_loop>:
  20000f:	fa                   	cli
  200010:	f4                   	hlt
  200011:	eb fc                	jmp    20000f <halt_loop>

00200013 <get_ss_selector>:
  200013:	55                   	push   %ebp
  200014:	89 e5                	mov    %esp,%ebp
  200016:	83 ec 10             	sub    $0x10,%esp
  200019:	66 8c d0             	mov    %ss,%ax
  20001c:	66 89 45 fe          	mov    %ax,-0x2(%ebp)
  200020:	0f b7 45 fe          	movzwl -0x2(%ebp),%eax
  200024:	c9                   	leave
  200025:	c3                   	ret

00200026 <get_cs_selector>:
  200026:	55                   	push   %ebp
  200027:	89 e5                	mov    %esp,%ebp
  200029:	83 ec 10             	sub    $0x10,%esp
  20002c:	66 8c c8             	mov    %cs,%ax
  20002f:	66 89 45 fe          	mov    %ax,-0x2(%ebp)
  200033:	0f b7 45 fe          	movzwl -0x2(%ebp),%eax
  200037:	c9                   	leave
  200038:	c3                   	ret

00200039 <get_es_selector>:
  200039:	55                   	push   %ebp
  20003a:	89 e5                	mov    %esp,%ebp
  20003c:	83 ec 10             	sub    $0x10,%esp
  20003f:	66 8c c0             	mov    %es,%ax
  200042:	66 89 45 fe          	mov    %ax,-0x2(%ebp)
  200046:	0f b7 45 fe          	movzwl -0x2(%ebp),%eax
  20004a:	c9                   	leave
  20004b:	c3                   	ret

0020004c <get_fs_selector>:
  20004c:	55                   	push   %ebp
  20004d:	89 e5                	mov    %esp,%ebp
  20004f:	83 ec 10             	sub    $0x10,%esp
  200052:	66 8c e0             	mov    %fs,%ax
  200055:	66 89 45 fe          	mov    %ax,-0x2(%ebp)
  200059:	0f b7 45 fe          	movzwl -0x2(%ebp),%eax
  20005d:	c9                   	leave
  20005e:	c3                   	ret

0020005f <get_gs_selector>:
  20005f:	55                   	push   %ebp
  200060:	89 e5                	mov    %esp,%ebp
  200062:	83 ec 10             	sub    $0x10,%esp
  200065:	66 8c e8             	mov    %gs,%ax
  200068:	66 89 45 fe          	mov    %ax,-0x2(%ebp)
  20006c:	0f b7 45 fe          	movzwl -0x2(%ebp),%eax
  200070:	c9                   	leave
  200071:	c3                   	ret

00200072 <get_ds_selector>:
  200072:	55                   	push   %ebp
  200073:	89 e5                	mov    %esp,%ebp
  200075:	83 ec 10             	sub    $0x10,%esp
  200078:	66 8c d8             	mov    %ds,%ax
  20007b:	66 89 45 fe          	mov    %ax,-0x2(%ebp)
  20007f:	0f b7 45 fe          	movzwl -0x2(%ebp),%eax
  200083:	c9                   	leave
  200084:	c3                   	ret

00200085 <gdt_analize>:
  200085:	55                   	push   %ebp
  200086:	89 e5                	mov    %esp,%ebp
  200088:	83 ec 18             	sub    $0x18,%esp
  20008b:	8b 45 0c             	mov    0xc(%ebp),%eax
  20008e:	8d 14 c5 00 00 00 00 	lea    0x0(,%eax,8),%edx
  200095:	8b 45 08             	mov    0x8(%ebp),%eax
  200098:	01 d0                	add    %edx,%eax
  20009a:	89 45 f4             	mov    %eax,-0xc(%ebp)
  20009d:	8b 45 f4             	mov    -0xc(%ebp),%eax
  2000a0:	8b 40 04             	mov    0x4(%eax),%eax
  2000a3:	83 ec 08             	sub    $0x8,%esp
  2000a6:	68 f6 65 20 00       	push   $0x2065f6
  2000ab:	50                   	push   %eax
  2000ac:	e8 6f 0f 00 00       	call   201020 <printBinary>
  2000b1:	83 c4 10             	add    $0x10,%esp
  2000b4:	8b 45 f4             	mov    -0xc(%ebp),%eax
  2000b7:	8b 00                	mov    (%eax),%eax
  2000b9:	83 ec 08             	sub    $0x8,%esp
  2000bc:	68 fd 65 20 00       	push   $0x2065fd
  2000c1:	50                   	push   %eax
  2000c2:	e8 59 0f 00 00       	call   201020 <printBinary>
  2000c7:	83 c4 10             	add    $0x10,%esp
  2000ca:	83 ec 0c             	sub    $0xc,%esp
  2000cd:	68 03 66 20 00       	push   $0x206603
  2000d2:	e8 00 19 00 00       	call   2019d7 <terminal_writestring>
  2000d7:	83 c4 10             	add    $0x10,%esp
  2000da:	83 ec 0c             	sub    $0xc,%esp
  2000dd:	ff 75 f4             	push   -0xc(%ebp)
  2000e0:	e8 b3 43 00 00       	call   204498 <getBaseAddress>
  2000e5:	83 c4 10             	add    $0x10,%esp
  2000e8:	89 45 f0             	mov    %eax,-0x10(%ebp)
  2000eb:	83 ec 08             	sub    $0x8,%esp
  2000ee:	68 1e 66 20 00       	push   $0x20661e
  2000f3:	ff 75 f0             	push   -0x10(%ebp)
  2000f6:	e8 25 0f 00 00       	call   201020 <printBinary>
  2000fb:	83 c4 10             	add    $0x10,%esp
  2000fe:	83 ec 0c             	sub    $0xc,%esp
  200101:	ff 75 f4             	push   -0xc(%ebp)
  200104:	e8 a0 40 00 00       	call   2041a9 <getSegmentLimit>
  200109:	83 c4 10             	add    $0x10,%esp
  20010c:	83 ec 04             	sub    $0x4,%esp
  20010f:	6a 14                	push   $0x14
  200111:	68 2b 66 20 00       	push   $0x20662b
  200116:	50                   	push   %eax
  200117:	e8 87 0f 00 00       	call   2010a3 <printBinarySize>
  20011c:	83 c4 10             	add    $0x10,%esp
  20011f:	83 ec 0c             	sub    $0xc,%esp
  200122:	68 bd 68 20 00       	push   $0x2068bd
  200127:	e8 ab 18 00 00       	call   2019d7 <terminal_writestring>
  20012c:	83 c4 10             	add    $0x10,%esp
  20012f:	83 ec 0c             	sub    $0xc,%esp
  200132:	ff 75 f4             	push   -0xc(%ebp)
  200135:	e8 d3 44 00 00       	call   20460d <printFlags>
  20013a:	83 c4 10             	add    $0x10,%esp
  20013d:	83 ec 0c             	sub    $0xc,%esp
  200140:	ff 75 f4             	push   -0xc(%ebp)
  200143:	e8 22 45 00 00       	call   20466a <printAccess>
  200148:	83 c4 10             	add    $0x10,%esp
  20014b:	83 ec 0c             	sub    $0xc,%esp
  20014e:	68 bd 68 20 00       	push   $0x2068bd
  200153:	e8 7f 18 00 00       	call   2019d7 <terminal_writestring>
  200158:	83 c4 10             	add    $0x10,%esp
  20015b:	83 ec 0c             	sub    $0xc,%esp
  20015e:	ff 75 f4             	push   -0xc(%ebp)
  200161:	e8 b1 42 00 00       	call   204417 <getGranularity>
  200166:	83 c4 10             	add    $0x10,%esp
  200169:	0f b6 c0             	movzbl %al,%eax
  20016c:	83 ec 08             	sub    $0x8,%esp
  20016f:	50                   	push   %eax
  200170:	68 44 66 20 00       	push   $0x206644
  200175:	e8 1f 1e 00 00       	call   201f99 <terminal_write_uint>
  20017a:	83 c4 10             	add    $0x10,%esp
  20017d:	83 ec 0c             	sub    $0xc,%esp
  200180:	ff 75 f4             	push   -0xc(%ebp)
  200183:	e8 0e 42 00 00       	call   204396 <getDefaultOperationSize>
  200188:	83 c4 10             	add    $0x10,%esp
  20018b:	0f b6 c0             	movzbl %al,%eax
  20018e:	83 ec 08             	sub    $0x8,%esp
  200191:	50                   	push   %eax
  200192:	68 53 66 20 00       	push   $0x206653
  200197:	e8 fd 1d 00 00       	call   201f99 <terminal_write_uint>
  20019c:	83 c4 10             	add    $0x10,%esp
  20019f:	83 ec 0c             	sub    $0xc,%esp
  2001a2:	ff 75 f4             	push   -0xc(%ebp)
  2001a5:	e8 8b 41 00 00       	call   204335 <getLongMode>
  2001aa:	83 c4 10             	add    $0x10,%esp
  2001ad:	0f b6 c0             	movzbl %al,%eax
  2001b0:	83 ec 08             	sub    $0x8,%esp
  2001b3:	50                   	push   %eax
  2001b4:	68 6b 66 20 00       	push   $0x20666b
  2001b9:	e8 db 1d 00 00       	call   201f99 <terminal_write_uint>
  2001be:	83 c4 10             	add    $0x10,%esp
  2001c1:	83 ec 0c             	sub    $0xc,%esp
  2001c4:	ff 75 f4             	push   -0xc(%ebp)
  2001c7:	e8 e8 40 00 00       	call   2042b4 <getAVL>
  2001cc:	83 c4 10             	add    $0x10,%esp
  2001cf:	0f b6 c0             	movzbl %al,%eax
  2001d2:	83 ec 08             	sub    $0x8,%esp
  2001d5:	50                   	push   %eax
  2001d6:	68 77 66 20 00       	push   $0x206677
  2001db:	e8 b9 1d 00 00       	call   201f99 <terminal_write_uint>
  2001e0:	83 c4 10             	add    $0x10,%esp
  2001e3:	83 ec 0c             	sub    $0xc,%esp
  2001e6:	68 bd 68 20 00       	push   $0x2068bd
  2001eb:	e8 e7 17 00 00       	call   2019d7 <terminal_writestring>
  2001f0:	83 c4 10             	add    $0x10,%esp
  2001f3:	83 ec 0c             	sub    $0xc,%esp
  2001f6:	ff 75 f4             	push   -0xc(%ebp)
  2001f9:	e8 3e 3f 00 00       	call   20413c <getPresent>
  2001fe:	83 c4 10             	add    $0x10,%esp
  200201:	0f b6 c0             	movzbl %al,%eax
  200204:	83 ec 08             	sub    $0x8,%esp
  200207:	50                   	push   %eax
  200208:	68 7e 66 20 00       	push   $0x20667e
  20020d:	e8 87 1d 00 00       	call   201f99 <terminal_write_uint>
  200212:	83 c4 10             	add    $0x10,%esp
  200215:	83 ec 0c             	sub    $0xc,%esp
  200218:	ff 75 f4             	push   -0xc(%ebp)
  20021b:	e8 9b 3e 00 00       	call   2040bb <getPriviledgeDPL>
  200220:	83 c4 10             	add    $0x10,%esp
  200223:	0f b6 c0             	movzbl %al,%eax
  200226:	83 ec 04             	sub    $0x4,%esp
  200229:	6a 02                	push   $0x2
  20022b:	68 89 66 20 00       	push   $0x206689
  200230:	50                   	push   %eax
  200231:	e8 6d 0e 00 00       	call   2010a3 <printBinarySize>
  200236:	83 c4 10             	add    $0x10,%esp
  200239:	83 ec 0c             	sub    $0xc,%esp
  20023c:	ff 75 f4             	push   -0xc(%ebp)
  20023f:	e8 f6 3d 00 00       	call   20403a <getDescriptorTypeS>
  200244:	83 c4 10             	add    $0x10,%esp
  200247:	0f b6 c0             	movzbl %al,%eax
  20024a:	83 ec 08             	sub    $0x8,%esp
  20024d:	50                   	push   %eax
  20024e:	68 9a 66 20 00       	push   $0x20669a
  200253:	e8 41 1d 00 00       	call   201f99 <terminal_write_uint>
  200258:	83 c4 10             	add    $0x10,%esp
  20025b:	83 ec 0c             	sub    $0xc,%esp
  20025e:	ff 75 f4             	push   -0xc(%ebp)
  200261:	e8 53 3d 00 00       	call   203fb9 <getType>
  200266:	83 c4 10             	add    $0x10,%esp
  200269:	0f b6 c0             	movzbl %al,%eax
  20026c:	83 ec 04             	sub    $0x4,%esp
  20026f:	6a 04                	push   $0x4
  200271:	68 ad 66 20 00       	push   $0x2066ad
  200276:	50                   	push   %eax
  200277:	e8 27 0e 00 00       	call   2010a3 <printBinarySize>
  20027c:	83 c4 10             	add    $0x10,%esp
  20027f:	90                   	nop
  200280:	c9                   	leave
  200281:	c3                   	ret

00200282 <analyse_code>:
  200282:	55                   	push   %ebp
  200283:	89 e5                	mov    %esp,%ebp
  200285:	83 ec 18             	sub    $0x18,%esp
  200288:	83 ec 0c             	sub    $0xc,%esp
  20028b:	68 bd 68 20 00       	push   $0x2068bd
  200290:	e8 42 17 00 00       	call   2019d7 <terminal_writestring>
  200295:	83 c4 10             	add    $0x10,%esp
  200298:	83 ec 0c             	sub    $0xc,%esp
  20029b:	68 ec 68 20 00       	push   $0x2068ec
  2002a0:	e8 32 17 00 00       	call   2019d7 <terminal_writestring>
  2002a5:	83 c4 10             	add    $0x10,%esp
  2002a8:	c7 45 f4 00 00 00 00 	movl   $0x0,-0xc(%ebp)
  2002af:	eb 1d                	jmp    2002ce <analyse_code+0x4c>
  2002b1:	8b 45 08             	mov    0x8(%ebp),%eax
  2002b4:	8b 55 f4             	mov    -0xc(%ebp),%edx
  2002b7:	c1 e2 02             	shl    $0x2,%edx
  2002ba:	01 d0                	add    %edx,%eax
  2002bc:	8b 00                	mov    (%eax),%eax
  2002be:	83 ec 0c             	sub    $0xc,%esp
  2002c1:	50                   	push   %eax
  2002c2:	e8 d7 19 00 00       	call   201c9e <print_hex_var>
  2002c7:	83 c4 10             	add    $0x10,%esp
  2002ca:	83 45 f4 01          	addl   $0x1,-0xc(%ebp)
  2002ce:	83 7d f4 31          	cmpl   $0x31,-0xc(%ebp)
  2002d2:	7e dd                	jle    2002b1 <analyse_code+0x2f>
  2002d4:	83 ec 0c             	sub    $0xc,%esp
  2002d7:	68 bd 68 20 00       	push   $0x2068bd
  2002dc:	e8 f6 16 00 00       	call   2019d7 <terminal_writestring>
  2002e1:	83 c4 10             	add    $0x10,%esp
  2002e4:	83 ec 0c             	sub    $0xc,%esp
  2002e7:	68 ec 68 20 00       	push   $0x2068ec
  2002ec:	e8 e6 16 00 00       	call   2019d7 <terminal_writestring>
  2002f1:	83 c4 10             	add    $0x10,%esp
  2002f4:	c7 45 f0 00 00 00 00 	movl   $0x0,-0x10(%ebp)
  2002fb:	eb 1d                	jmp    20031a <analyse_code+0x98>
  2002fd:	8b 45 0c             	mov    0xc(%ebp),%eax
  200300:	8b 55 f0             	mov    -0x10(%ebp),%edx
  200303:	c1 e2 02             	shl    $0x2,%edx
  200306:	01 d0                	add    %edx,%eax
  200308:	8b 00                	mov    (%eax),%eax
  20030a:	83 ec 0c             	sub    $0xc,%esp
  20030d:	50                   	push   %eax
  20030e:	e8 8b 19 00 00       	call   201c9e <print_hex_var>
  200313:	83 c4 10             	add    $0x10,%esp
  200316:	83 45 f0 01          	addl   $0x1,-0x10(%ebp)
  20031a:	83 7d f0 31          	cmpl   $0x31,-0x10(%ebp)
  20031e:	7e dd                	jle    2002fd <analyse_code+0x7b>
  200320:	83 ec 0c             	sub    $0xc,%esp
  200323:	68 bd 68 20 00       	push   $0x2068bd
  200328:	e8 aa 16 00 00       	call   2019d7 <terminal_writestring>
  20032d:	83 c4 10             	add    $0x10,%esp
  200330:	83 ec 0c             	sub    $0xc,%esp
  200333:	68 20 69 20 00       	push   $0x206920
  200338:	e8 9a 16 00 00       	call   2019d7 <terminal_writestring>
  20033d:	83 c4 10             	add    $0x10,%esp
  200340:	c7 45 ec 00 00 00 00 	movl   $0x0,-0x14(%ebp)
  200347:	eb 1d                	jmp    200366 <analyse_code+0xe4>
  200349:	8b 45 10             	mov    0x10(%ebp),%eax
  20034c:	8b 55 ec             	mov    -0x14(%ebp),%edx
  20034f:	c1 e2 02             	shl    $0x2,%edx
  200352:	01 d0                	add    %edx,%eax
  200354:	8b 00                	mov    (%eax),%eax
  200356:	83 ec 0c             	sub    $0xc,%esp
  200359:	50                   	push   %eax
  20035a:	e8 3f 19 00 00       	call   201c9e <print_hex_var>
  20035f:	83 c4 10             	add    $0x10,%esp
  200362:	83 45 ec 01          	addl   $0x1,-0x14(%ebp)
  200366:	83 7d ec 31          	cmpl   $0x31,-0x14(%ebp)
  20036a:	7e dd                	jle    200349 <analyse_code+0xc7>
  20036c:	83 ec 0c             	sub    $0xc,%esp
  20036f:	68 bd 68 20 00       	push   $0x2068bd
  200374:	e8 5e 16 00 00       	call   2019d7 <terminal_writestring>
  200379:	83 c4 10             	add    $0x10,%esp
  20037c:	83 ec 0c             	sub    $0xc,%esp
  20037f:	68 5c 69 20 00       	push   $0x20695c
  200384:	e8 4e 16 00 00       	call   2019d7 <terminal_writestring>
  200389:	83 c4 10             	add    $0x10,%esp
  20038c:	c7 45 e8 00 00 00 00 	movl   $0x0,-0x18(%ebp)
  200393:	eb 1d                	jmp    2003b2 <analyse_code+0x130>
  200395:	8b 45 18             	mov    0x18(%ebp),%eax
  200398:	8b 55 e8             	mov    -0x18(%ebp),%edx
  20039b:	c1 e2 02             	shl    $0x2,%edx
  20039e:	01 d0                	add    %edx,%eax
  2003a0:	8b 00                	mov    (%eax),%eax
  2003a2:	83 ec 0c             	sub    $0xc,%esp
  2003a5:	50                   	push   %eax
  2003a6:	e8 f3 18 00 00       	call   201c9e <print_hex_var>
  2003ab:	83 c4 10             	add    $0x10,%esp
  2003ae:	83 45 e8 01          	addl   $0x1,-0x18(%ebp)
  2003b2:	83 7d e8 31          	cmpl   $0x31,-0x18(%ebp)
  2003b6:	7e dd                	jle    200395 <analyse_code+0x113>
  2003b8:	90                   	nop
  2003b9:	90                   	nop
  2003ba:	c9                   	leave
  2003bb:	c3                   	ret

002003bc <before>:
  2003bc:	55                   	push   %ebp
  2003bd:	89 e5                	mov    %esp,%ebp
  2003bf:	83 ec 08             	sub    $0x8,%esp
  2003c2:	83 ec 0c             	sub    $0xc,%esp
  2003c5:	68 be 66 20 00       	push   $0x2066be
  2003ca:	e8 08 16 00 00       	call   2019d7 <terminal_writestring>
  2003cf:	83 c4 10             	add    $0x10,%esp
  2003d2:	90                   	nop
  2003d3:	c9                   	leave
  2003d4:	c3                   	ret

002003d5 <kernel_test>:
  2003d5:	55                   	push   %ebp
  2003d6:	89 e5                	mov    %esp,%ebp
  2003d8:	83 ec 38             	sub    $0x38,%esp
  2003db:	83 ec 0c             	sub    $0xc,%esp
  2003de:	68 80 69 20 00       	push   $0x206980
  2003e3:	e8 ef 15 00 00       	call   2019d7 <terminal_writestring>
  2003e8:	83 c4 10             	add    $0x10,%esp
  2003eb:	68 cd 3b 12 00       	push   $0x123bcd
  2003f0:	6a 1b                	push   $0x1b
  2003f2:	dd 05 18 6b 20 00    	fldl   0x206b18
  2003f8:	8d 64 24 f8          	lea    -0x8(%esp),%esp
  2003fc:	dd 1c 24             	fstpl  (%esp)
  2003ff:	6a 02                	push   $0x2
  200401:	6a 01                	push   $0x1
  200403:	68 a4 69 20 00       	push   $0x2069a4
  200408:	6a 06                	push   $0x6
  20040a:	e8 2c 22 00 00       	call   20263b <kprintf_argc>
  20040f:	83 c4 20             	add    $0x20,%esp
  200412:	83 ec 08             	sub    $0x8,%esp
  200415:	68 6b 08 20 00       	push   $0x20086b
  20041a:	68 ec 69 20 00       	push   $0x2069ec
  20041f:	e8 36 1b 00 00       	call   201f5a <print_extern_address>
  200424:	83 c4 10             	add    $0x10,%esp
  200427:	83 ec 08             	sub    $0x8,%esp
  20042a:	68 75 08 20 00       	push   $0x200875
  20042f:	68 d9 66 20 00       	push   $0x2066d9
  200434:	e8 21 1b 00 00       	call   201f5a <print_extern_address>
  200439:	83 c4 10             	add    $0x10,%esp
  20043c:	83 ec 08             	sub    $0x8,%esp
  20043f:	68 7f 08 20 00       	push   $0x20087f
  200444:	68 f6 66 20 00       	push   $0x2066f6
  200449:	e8 0c 1b 00 00       	call   201f5a <print_extern_address>
  20044e:	83 c4 10             	add    $0x10,%esp
  200451:	83 ec 08             	sub    $0x8,%esp
  200454:	68 89 08 20 00       	push   $0x200889
  200459:	68 14 67 20 00       	push   $0x206714
  20045e:	e8 f7 1a 00 00       	call   201f5a <print_extern_address>
  200463:	83 c4 10             	add    $0x10,%esp
  200466:	83 ec 08             	sub    $0x8,%esp
  200469:	68 cf 08 20 00       	push   $0x2008cf
  20046e:	68 0c 6a 20 00       	push   $0x206a0c
  200473:	e8 e2 1a 00 00       	call   201f5a <print_extern_address>
  200478:	83 c4 10             	add    $0x10,%esp
  20047b:	83 ec 08             	sub    $0x8,%esp
  20047e:	68 d9 08 20 00       	push   $0x2008d9
  200483:	68 30 67 20 00       	push   $0x206730
  200488:	e8 cd 1a 00 00       	call   201f5a <print_extern_address>
  20048d:	83 c4 10             	add    $0x10,%esp
  200490:	89 45 f4             	mov    %eax,-0xc(%ebp)
  200493:	83 ec 08             	sub    $0x8,%esp
  200496:	68 b1 08 20 00       	push   $0x2008b1
  20049b:	68 38 6a 20 00       	push   $0x206a38
  2004a0:	e8 b5 1a 00 00       	call   201f5a <print_extern_address>
  2004a5:	83 c4 10             	add    $0x10,%esp
  2004a8:	89 45 f0             	mov    %eax,-0x10(%ebp)
  2004ab:	83 ec 08             	sub    $0x8,%esp
  2004ae:	68 bb 08 20 00       	push   $0x2008bb
  2004b3:	68 58 6a 20 00       	push   $0x206a58
  2004b8:	e8 9d 1a 00 00       	call   201f5a <print_extern_address>
  2004bd:	83 c4 10             	add    $0x10,%esp
  2004c0:	89 45 ec             	mov    %eax,-0x14(%ebp)
  2004c3:	83 ec 08             	sub    $0x8,%esp
  2004c6:	68 c5 08 20 00       	push   $0x2008c5
  2004cb:	68 4e 67 20 00       	push   $0x20674e
  2004d0:	e8 85 1a 00 00       	call   201f5a <print_extern_address>
  2004d5:	83 c4 10             	add    $0x10,%esp
  2004d8:	89 45 e8             	mov    %eax,-0x18(%ebp)
  2004db:	83 ec 08             	sub    $0x8,%esp
  2004de:	68 a7 08 20 00       	push   $0x2008a7
  2004e3:	68 68 67 20 00       	push   $0x206768
  2004e8:	e8 6d 1a 00 00       	call   201f5a <print_extern_address>
  2004ed:	83 c4 10             	add    $0x10,%esp
  2004f0:	89 45 e4             	mov    %eax,-0x1c(%ebp)
  2004f3:	83 ec 08             	sub    $0x8,%esp
  2004f6:	68 93 08 20 00       	push   $0x200893
  2004fb:	68 86 67 20 00       	push   $0x206786
  200500:	e8 55 1a 00 00       	call   201f5a <print_extern_address>
  200505:	83 c4 10             	add    $0x10,%esp
  200508:	83 ec 08             	sub    $0x8,%esp
  20050b:	68 9d 08 20 00       	push   $0x20089d
  200510:	68 a1 67 20 00       	push   $0x2067a1
  200515:	e8 40 1a 00 00       	call   201f5a <print_extern_address>
  20051a:	83 c4 10             	add    $0x10,%esp
  20051d:	83 ec 08             	sub    $0x8,%esp
  200520:	68 26 00 20 00       	push   $0x200026
  200525:	68 bc 67 20 00       	push   $0x2067bc
  20052a:	e8 fe 1a 00 00       	call   20202d <print_extern_address16>
  20052f:	83 c4 10             	add    $0x10,%esp
  200532:	83 ec 08             	sub    $0x8,%esp
  200535:	68 13 00 20 00       	push   $0x200013
  20053a:	68 cf 67 20 00       	push   $0x2067cf
  20053f:	e8 e9 1a 00 00       	call   20202d <print_extern_address16>
  200544:	83 c4 10             	add    $0x10,%esp
  200547:	83 ec 08             	sub    $0x8,%esp
  20054a:	68 72 00 20 00       	push   $0x200072
  20054f:	68 e2 67 20 00       	push   $0x2067e2
  200554:	e8 d4 1a 00 00       	call   20202d <print_extern_address16>
  200559:	83 c4 10             	add    $0x10,%esp
  20055c:	83 ec 08             	sub    $0x8,%esp
  20055f:	68 4c 00 20 00       	push   $0x20004c
  200564:	68 f5 67 20 00       	push   $0x2067f5
  200569:	e8 bf 1a 00 00       	call   20202d <print_extern_address16>
  20056e:	83 c4 10             	add    $0x10,%esp
  200571:	83 ec 08             	sub    $0x8,%esp
  200574:	68 4c 00 20 00       	push   $0x20004c
  200579:	68 08 68 20 00       	push   $0x206808
  20057e:	e8 aa 1a 00 00       	call   20202d <print_extern_address16>
  200583:	83 c4 10             	add    $0x10,%esp
  200586:	83 ec 08             	sub    $0x8,%esp
  200589:	68 5f 00 20 00       	push   $0x20005f
  20058e:	68 1b 68 20 00       	push   $0x20681b
  200593:	e8 95 1a 00 00       	call   20202d <print_extern_address16>
  200598:	83 c4 10             	add    $0x10,%esp
  20059b:	8d 45 cc             	lea    -0x34(%ebp),%eax
  20059e:	83 ec 0c             	sub    $0xc,%esp
  2005a1:	50                   	push   %eax
  2005a2:	e8 45 4b 00 00       	call   2050ec <get_gdt_root>
  2005a7:	83 c4 0c             	add    $0xc,%esp
  2005aa:	8b 45 ce             	mov    -0x32(%ebp),%eax
  2005ad:	89 45 e0             	mov    %eax,-0x20(%ebp)
  2005b0:	8b 45 ce             	mov    -0x32(%ebp),%eax
  2005b3:	83 ec 08             	sub    $0x8,%esp
  2005b6:	50                   	push   %eax
  2005b7:	68 2e 68 20 00       	push   $0x20682e
  2005bc:	e8 47 1a 00 00       	call   202008 <terminal_write_ptr>
  2005c1:	83 c4 10             	add    $0x10,%esp
  2005c4:	0f b7 45 cc          	movzwl -0x34(%ebp),%eax
  2005c8:	0f b7 c0             	movzwl %ax,%eax
  2005cb:	83 ec 08             	sub    $0x8,%esp
  2005ce:	50                   	push   %eax
  2005cf:	68 42 68 20 00       	push   $0x206842
  2005d4:	e8 c0 19 00 00       	call   201f99 <terminal_write_uint>
  2005d9:	83 c4 10             	add    $0x10,%esp
  2005dc:	a1 a2 b1 00 00       	mov    0xb1a2,%eax
  2005e1:	89 45 dc             	mov    %eax,-0x24(%ebp)
  2005e4:	0f b7 05 a0 b1 00 00 	movzwl 0xb1a0,%eax
  2005eb:	66 89 45 da          	mov    %ax,-0x26(%ebp)
  2005ef:	a1 00 70 20 00       	mov    0x207000,%eax
  2005f4:	83 ec 08             	sub    $0x8,%esp
  2005f7:	50                   	push   %eax
  2005f8:	68 54 68 20 00       	push   $0x206854
  2005fd:	e8 06 1a 00 00       	call   202008 <terminal_write_ptr>
  200602:	83 c4 10             	add    $0x10,%esp
  200605:	a1 a2 b1 00 00       	mov    0xb1a2,%eax
  20060a:	83 ec 08             	sub    $0x8,%esp
  20060d:	50                   	push   %eax
  20060e:	68 68 68 20 00       	push   $0x206868
  200613:	e8 f0 19 00 00       	call   202008 <terminal_write_ptr>
  200618:	83 c4 10             	add    $0x10,%esp
  20061b:	0f b7 05 a0 b1 00 00 	movzwl 0xb1a0,%eax
  200622:	0f b7 c0             	movzwl %ax,%eax
  200625:	83 ec 08             	sub    $0x8,%esp
  200628:	50                   	push   %eax
  200629:	68 68 68 20 00       	push   $0x206868
  20062e:	e8 66 19 00 00       	call   201f99 <terminal_write_uint>
  200633:	83 c4 10             	add    $0x10,%esp
  200636:	83 ec 0c             	sub    $0xc,%esp
  200639:	68 88 6a 20 00       	push   $0x206a88
  20063e:	e8 94 13 00 00       	call   2019d7 <terminal_writestring>
  200643:	83 c4 10             	add    $0x10,%esp
  200646:	83 ec 0c             	sub    $0xc,%esp
  200649:	68 71 68 20 00       	push   $0x206871
  20064e:	e8 84 13 00 00       	call   2019d7 <terminal_writestring>
  200653:	83 c4 10             	add    $0x10,%esp
  200656:	83 ec 08             	sub    $0x8,%esp
  200659:	6a 02                	push   $0x2
  20065b:	ff 75 e0             	push   -0x20(%ebp)
  20065e:	e8 22 fa ff ff       	call   200085 <gdt_analize>
  200663:	83 c4 10             	add    $0x10,%esp
  200666:	83 ec 0c             	sub    $0xc,%esp
  200669:	68 89 68 20 00       	push   $0x206889
  20066e:	e8 64 13 00 00       	call   2019d7 <terminal_writestring>
  200673:	83 c4 10             	add    $0x10,%esp
  200676:	83 ec 08             	sub    $0x8,%esp
  200679:	6a 03                	push   $0x3
  20067b:	ff 75 e0             	push   -0x20(%ebp)
  20067e:	e8 02 fa ff ff       	call   200085 <gdt_analize>
  200683:	83 c4 10             	add    $0x10,%esp
  200686:	83 ec 0c             	sub    $0xc,%esp
  200689:	68 a1 68 20 00       	push   $0x2068a1
  20068e:	e8 44 13 00 00       	call   2019d7 <terminal_writestring>
  200693:	83 c4 10             	add    $0x10,%esp
  200696:	83 ec 0c             	sub    $0xc,%esp
  200699:	68 a8 6a 20 00       	push   $0x206aa8
  20069e:	e8 34 13 00 00       	call   2019d7 <terminal_writestring>
  2006a3:	83 c4 10             	add    $0x10,%esp
  2006a6:	83 ec 0c             	sub    $0xc,%esp
  2006a9:	68 71 68 20 00       	push   $0x206871
  2006ae:	e8 24 13 00 00       	call   2019d7 <terminal_writestring>
  2006b3:	83 c4 10             	add    $0x10,%esp
  2006b6:	83 ec 08             	sub    $0x8,%esp
  2006b9:	6a 02                	push   $0x2
  2006bb:	ff 75 dc             	push   -0x24(%ebp)
  2006be:	e8 c2 f9 ff ff       	call   200085 <gdt_analize>
  2006c3:	83 c4 10             	add    $0x10,%esp
  2006c6:	83 ec 0c             	sub    $0xc,%esp
  2006c9:	68 89 68 20 00       	push   $0x206889
  2006ce:	e8 04 13 00 00       	call   2019d7 <terminal_writestring>
  2006d3:	83 c4 10             	add    $0x10,%esp
  2006d6:	83 ec 08             	sub    $0x8,%esp
  2006d9:	6a 03                	push   $0x3
  2006db:	ff 75 dc             	push   -0x24(%ebp)
  2006de:	e8 a2 f9 ff ff       	call   200085 <gdt_analize>
  2006e3:	83 c4 10             	add    $0x10,%esp
  2006e6:	83 ec 0c             	sub    $0xc,%esp
  2006e9:	68 bf 68 20 00       	push   $0x2068bf
  2006ee:	e8 e4 12 00 00       	call   2019d7 <terminal_writestring>
  2006f3:	83 c4 10             	add    $0x10,%esp
  2006f6:	e8 c1 fc ff ff       	call   2003bc <before>
  2006fb:	83 ec 08             	sub    $0x8,%esp
  2006fe:	68 4b b1 00 00       	push   $0xb14b
  200703:	6a 01                	push   $0x1
  200705:	e8 11 4d 00 00       	call   20541b <call_real_mode_function_with_argc>
  20070a:	83 c4 10             	add    $0x10,%esp
  20070d:	66 89 45 d8          	mov    %ax,-0x28(%ebp)
  200711:	83 ec 0c             	sub    $0xc,%esp
  200714:	68 20 b0 00 00       	push   $0xb020
  200719:	e8 02 4a 00 00       	call   205120 <print_args16>
  20071e:	83 c4 10             	add    $0x10,%esp
  200721:	83 ec 08             	sub    $0x8,%esp
  200724:	68 dd 68 20 00       	push   $0x2068dd
  200729:	6a 01                	push   $0x1
  20072b:	e8 0b 1f 00 00       	call   20263b <kprintf_argc>
  200730:	83 c4 10             	add    $0x10,%esp
  200733:	68 c9 00 00 00       	push   $0xc9
  200738:	6a 68                	push   $0x68
  20073a:	68 40 b1 00 00       	push   $0xb140
  20073f:	6a 03                	push   $0x3
  200741:	e8 d5 4c 00 00       	call   20541b <call_real_mode_function_with_argc>
  200746:	83 c4 10             	add    $0x10,%esp
  200749:	66 89 45 d6          	mov    %ax,-0x2a(%ebp)
  20074d:	83 ec 0c             	sub    $0xc,%esp
  200750:	68 20 b0 00 00       	push   $0xb020
  200755:	e8 c6 49 00 00       	call   205120 <print_args16>
  20075a:	83 c4 10             	add    $0x10,%esp
  20075d:	0f b7 45 d6          	movzwl -0x2a(%ebp),%eax
  200761:	83 ec 08             	sub    $0x8,%esp
  200764:	50                   	push   %eax
  200765:	68 c8 6a 20 00       	push   $0x206ac8
  20076a:	e8 2a 18 00 00       	call   201f99 <terminal_write_uint>
  20076f:	83 c4 10             	add    $0x10,%esp
  200772:	83 ec 08             	sub    $0x8,%esp
  200775:	6a 2b                	push   $0x2b
  200777:	68 31 01 00 00       	push   $0x131
  20077c:	68 c9 00 00 00       	push   $0xc9
  200781:	6a 68                	push   $0x68
  200783:	68 53 b1 00 00       	push   $0xb153
  200788:	6a 05                	push   $0x5
  20078a:	e8 8c 4c 00 00       	call   20541b <call_real_mode_function_with_argc>
  20078f:	83 c4 20             	add    $0x20,%esp
  200792:	66 89 45 d4          	mov    %ax,-0x2c(%ebp)
  200796:	83 ec 0c             	sub    $0xc,%esp
  200799:	68 20 b0 00 00       	push   $0xb020
  20079e:	e8 7d 49 00 00       	call   205120 <print_args16>
  2007a3:	83 c4 10             	add    $0x10,%esp
  2007a6:	0f b7 45 d4          	movzwl -0x2c(%ebp),%eax
  2007aa:	83 ec 08             	sub    $0x8,%esp
  2007ad:	50                   	push   %eax
  2007ae:	68 c8 6a 20 00       	push   $0x206ac8
  2007b3:	e8 e1 17 00 00       	call   201f99 <terminal_write_uint>
  2007b8:	83 c4 10             	add    $0x10,%esp
  2007bb:	83 ec 0c             	sub    $0xc,%esp
  2007be:	68 f0 6a 20 00       	push   $0x206af0
  2007c3:	e8 0f 12 00 00       	call   2019d7 <terminal_writestring>
  2007c8:	83 c4 10             	add    $0x10,%esp
  2007cb:	90                   	nop
  2007cc:	c9                   	leave
  2007cd:	c3                   	ret

002007ce <kernel_main>:
  2007ce:	55                   	push   %ebp
  2007cf:	89 e5                	mov    %esp,%ebp
  2007d1:	83 ec 18             	sub    $0x18,%esp
  2007d4:	e8 95 0d 00 00       	call   20156e <initialize_terminal>
  2007d9:	83 ec 0c             	sub    $0xc,%esp
  2007dc:	6a 00                	push   $0x0
  2007de:	e8 cd 0e 00 00       	call   2016b0 <terminal_set_scroll>
  2007e3:	83 c4 10             	add    $0x10,%esp
  2007e6:	c6 45 f4 30          	movb   $0x30,-0xc(%ebp)
  2007ea:	0f b6 45 f5          	movzbl -0xb(%ebp),%eax
  2007ee:	83 e0 f0             	and    $0xfffffff0,%eax
  2007f1:	83 c8 04             	or     $0x4,%eax
  2007f4:	88 45 f5             	mov    %al,-0xb(%ebp)
  2007f7:	0f b6 45 f5          	movzbl -0xb(%ebp),%eax
  2007fb:	83 e0 0f             	and    $0xf,%eax
  2007fe:	88 45 f5             	mov    %al,-0xb(%ebp)
  200801:	e8 c0 25 00 00       	call   202dc6 <idt_init>
  200806:	83 ec 08             	sub    $0x8,%esp
  200809:	6a 28                	push   $0x28
  20080b:	6a 20                	push   $0x20
  20080d:	e8 be 2e 00 00       	call   2036d0 <PIC_remap>
  200812:	83 c4 10             	add    $0x10,%esp
  200815:	e8 8e 30 00 00       	call   2038a8 <initialize_irqs>
  20081a:	83 ec 0c             	sub    $0xc,%esp
  20081d:	6a 01                	push   $0x1
  20081f:	e8 fb 2f 00 00       	call   20381f <IRQ_clear_mask>
  200824:	83 c4 10             	add    $0x10,%esp
  200827:	90                   	nop
  200828:	eb fd                	jmp    200827 <kernel_main+0x59>

0020082a <memcpy>:
  20082a:	55                   	push   %ebp
  20082b:	89 e5                	mov    %esp,%ebp
  20082d:	83 ec 10             	sub    $0x10,%esp
  200830:	8b 45 08             	mov    0x8(%ebp),%eax
  200833:	89 45 f8             	mov    %eax,-0x8(%ebp)
  200836:	8b 45 0c             	mov    0xc(%ebp),%eax
  200839:	89 45 f4             	mov    %eax,-0xc(%ebp)
  20083c:	c7 45 fc 00 00 00 00 	movl   $0x0,-0x4(%ebp)
  200843:	eb 19                	jmp    20085e <memcpy+0x34>
  200845:	8b 55 f4             	mov    -0xc(%ebp),%edx
  200848:	8b 45 fc             	mov    -0x4(%ebp),%eax
  20084b:	01 d0                	add    %edx,%eax
  20084d:	8b 4d f8             	mov    -0x8(%ebp),%ecx
  200850:	8b 55 fc             	mov    -0x4(%ebp),%edx
  200853:	01 ca                	add    %ecx,%edx
  200855:	0f b6 00             	movzbl (%eax),%eax
  200858:	88 02                	mov    %al,(%edx)
  20085a:	83 45 fc 01          	addl   $0x1,-0x4(%ebp)
  20085e:	8b 45 fc             	mov    -0x4(%ebp),%eax
  200861:	3b 45 10             	cmp    0x10(%ebp),%eax
  200864:	72 df                	jb     200845 <memcpy+0x1b>
  200866:	8b 45 08             	mov    0x8(%ebp),%eax
  200869:	c9                   	leave
  20086a:	c3                   	ret

0020086b <get_stack16_start_address>:
  20086b:	55                   	push   %ebp
  20086c:	89 e5                	mov    %esp,%ebp
  20086e:	b8 10 70 00 00       	mov    $0x7010,%eax
  200873:	5d                   	pop    %ebp
  200874:	c3                   	ret

00200875 <get_stack16_end_address>:
  200875:	55                   	push   %ebp
  200876:	89 e5                	mov    %esp,%ebp
  200878:	b8 10 b0 00 00       	mov    $0xb010,%eax
  20087d:	5d                   	pop    %ebp
  20087e:	c3                   	ret

0020087f <get_args16_start_address>:
  20087f:	55                   	push   %ebp
  200880:	89 e5                	mov    %esp,%ebp
  200882:	b8 20 b0 00 00       	mov    $0xb020,%eax
  200887:	5d                   	pop    %ebp
  200888:	c3                   	ret

00200889 <get_args16_end_address>:
  200889:	55                   	push   %ebp
  20088a:	89 e5                	mov    %esp,%ebp
  20088c:	b8 50 b0 00 00       	mov    $0xb050,%eax
  200891:	5d                   	pop    %ebp
  200892:	c3                   	ret

00200893 <get_misc32_s1_address>:
  200893:	55                   	push   %ebp
  200894:	89 e5                	mov    %esp,%ebp
  200896:	b8 93 b1 00 00       	mov    $0xb193,%eax
  20089b:	5d                   	pop    %ebp
  20089c:	c3                   	ret

0020089d <get_misc32_s2_address>:
  20089d:	55                   	push   %ebp
  20089e:	89 e5                	mov    %esp,%ebp
  2008a0:	b8 a0 b1 00 00       	mov    $0xb1a0,%eax
  2008a5:	5d                   	pop    %ebp
  2008a6:	c3                   	ret

002008a7 <get_resume32_end_address>:
  2008a7:	55                   	push   %ebp
  2008a8:	89 e5                	mov    %esp,%ebp
  2008aa:	b8 93 b1 00 00       	mov    $0xb193,%eax
  2008af:	5d                   	pop    %ebp
  2008b0:	c3                   	ret

002008b1 <get_pm16_to_real16_address>:
  2008b1:	55                   	push   %ebp
  2008b2:	89 e5                	mov    %esp,%ebp
  2008b4:	b8 b0 b0 00 00       	mov    $0xb0b0,%eax
  2008b9:	5d                   	pop    %ebp
  2008ba:	c3                   	ret

002008bb <get_call_real16_function_address>:
  2008bb:	55                   	push   %ebp
  2008bc:	89 e5                	mov    %esp,%ebp
  2008be:	b8 cc b0 00 00       	mov    $0xb0cc,%eax
  2008c3:	5d                   	pop    %ebp
  2008c4:	c3                   	ret

002008c5 <get_resume32_start_address>:
  2008c5:	55                   	push   %ebp
  2008c6:	89 e5                	mov    %esp,%ebp
  2008c8:	b8 70 b1 00 00       	mov    $0xb170,%eax
  2008cd:	5d                   	pop    %ebp
  2008ce:	c3                   	ret

002008cf <get_call_realmode_func_with_args_address>:
  2008cf:	55                   	push   %ebp
  2008d0:	89 e5                	mov    %esp,%ebp
  2008d2:	b8 1b 54 20 00       	mov    $0x20541b,%eax
  2008d7:	5d                   	pop    %ebp
  2008d8:	c3                   	ret

002008d9 <get_pm32_to_pm16_address>:
  2008d9:	55                   	push   %ebp
  2008da:	89 e5                	mov    %esp,%ebp
  2008dc:	b8 60 b0 00 00       	mov    $0xb060,%eax
  2008e1:	5d                   	pop    %ebp
  2008e2:	c3                   	ret

002008e3 <strlen>:
  2008e3:	55                   	push   %ebp
  2008e4:	89 e5                	mov    %esp,%ebp
  2008e6:	83 ec 10             	sub    $0x10,%esp
  2008e9:	c7 45 fc 00 00 00 00 	movl   $0x0,-0x4(%ebp)
  2008f0:	eb 04                	jmp    2008f6 <strlen+0x13>
  2008f2:	83 45 fc 01          	addl   $0x1,-0x4(%ebp)
  2008f6:	8b 55 08             	mov    0x8(%ebp),%edx
  2008f9:	8b 45 fc             	mov    -0x4(%ebp),%eax
  2008fc:	01 d0                	add    %edx,%eax
  2008fe:	0f b6 00             	movzbl (%eax),%eax
  200901:	84 c0                	test   %al,%al
  200903:	75 ed                	jne    2008f2 <strlen+0xf>
  200905:	8b 45 fc             	mov    -0x4(%ebp),%eax
  200908:	c9                   	leave
  200909:	c3                   	ret

0020090a <itoa>:
  20090a:	55                   	push   %ebp
  20090b:	89 e5                	mov    %esp,%ebp
  20090d:	83 ec 20             	sub    $0x20,%esp
  200910:	c7 45 fc 00 00 00 00 	movl   $0x0,-0x4(%ebp)
  200917:	c7 45 f8 00 00 00 00 	movl   $0x0,-0x8(%ebp)
  20091e:	83 7d 08 00          	cmpl   $0x0,0x8(%ebp)
  200922:	75 24                	jne    200948 <itoa+0x3e>
  200924:	8b 45 fc             	mov    -0x4(%ebp),%eax
  200927:	8d 50 01             	lea    0x1(%eax),%edx
  20092a:	89 55 fc             	mov    %edx,-0x4(%ebp)
  20092d:	8b 55 0c             	mov    0xc(%ebp),%edx
  200930:	01 d0                	add    %edx,%eax
  200932:	c6 00 30             	movb   $0x30,(%eax)
  200935:	8b 55 0c             	mov    0xc(%ebp),%edx
  200938:	8b 45 fc             	mov    -0x4(%ebp),%eax
  20093b:	01 d0                	add    %edx,%eax
  20093d:	c6 00 00             	movb   $0x0,(%eax)
  200940:	8b 45 fc             	mov    -0x4(%ebp),%eax
  200943:	e9 e4 00 00 00       	jmp    200a2c <itoa+0x122>
  200948:	83 7d 08 00          	cmpl   $0x0,0x8(%ebp)
  20094c:	79 0a                	jns    200958 <itoa+0x4e>
  20094e:	c7 45 f8 01 00 00 00 	movl   $0x1,-0x8(%ebp)
  200955:	f7 5d 08             	negl   0x8(%ebp)
  200958:	8b 45 fc             	mov    -0x4(%ebp),%eax
  20095b:	89 45 f4             	mov    %eax,-0xc(%ebp)
  20095e:	eb 55                	jmp    2009b5 <itoa+0xab>
  200960:	8b 4d 08             	mov    0x8(%ebp),%ecx
  200963:	ba 67 66 66 66       	mov    $0x66666667,%edx
  200968:	89 c8                	mov    %ecx,%eax
  20096a:	f7 ea                	imul   %edx
  20096c:	c1 fa 02             	sar    $0x2,%edx
  20096f:	89 c8                	mov    %ecx,%eax
  200971:	c1 f8 1f             	sar    $0x1f,%eax
  200974:	29 c2                	sub    %eax,%edx
  200976:	89 d0                	mov    %edx,%eax
  200978:	c1 e0 02             	shl    $0x2,%eax
  20097b:	01 d0                	add    %edx,%eax
  20097d:	01 c0                	add    %eax,%eax
  20097f:	29 c1                	sub    %eax,%ecx
  200981:	89 ca                	mov    %ecx,%edx
  200983:	89 d0                	mov    %edx,%eax
  200985:	8d 48 30             	lea    0x30(%eax),%ecx
  200988:	8b 45 fc             	mov    -0x4(%ebp),%eax
  20098b:	8d 50 01             	lea    0x1(%eax),%edx
  20098e:	89 55 fc             	mov    %edx,-0x4(%ebp)
  200991:	8b 55 0c             	mov    0xc(%ebp),%edx
  200994:	01 d0                	add    %edx,%eax
  200996:	89 ca                	mov    %ecx,%edx
  200998:	88 10                	mov    %dl,(%eax)
  20099a:	8b 4d 08             	mov    0x8(%ebp),%ecx
  20099d:	ba 67 66 66 66       	mov    $0x66666667,%edx
  2009a2:	89 c8                	mov    %ecx,%eax
  2009a4:	f7 ea                	imul   %edx
  2009a6:	89 d0                	mov    %edx,%eax
  2009a8:	c1 f8 02             	sar    $0x2,%eax
  2009ab:	c1 f9 1f             	sar    $0x1f,%ecx
  2009ae:	89 ca                	mov    %ecx,%edx
  2009b0:	29 d0                	sub    %edx,%eax
  2009b2:	89 45 08             	mov    %eax,0x8(%ebp)
  2009b5:	83 7d 08 00          	cmpl   $0x0,0x8(%ebp)
  2009b9:	7f a5                	jg     200960 <itoa+0x56>
  2009bb:	83 7d f8 00          	cmpl   $0x0,-0x8(%ebp)
  2009bf:	74 11                	je     2009d2 <itoa+0xc8>
  2009c1:	8b 45 fc             	mov    -0x4(%ebp),%eax
  2009c4:	8d 50 01             	lea    0x1(%eax),%edx
  2009c7:	89 55 fc             	mov    %edx,-0x4(%ebp)
  2009ca:	8b 55 0c             	mov    0xc(%ebp),%edx
  2009cd:	01 d0                	add    %edx,%eax
  2009cf:	c6 00 2d             	movb   $0x2d,(%eax)
  2009d2:	8b 55 0c             	mov    0xc(%ebp),%edx
  2009d5:	8b 45 fc             	mov    -0x4(%ebp),%eax
  2009d8:	01 d0                	add    %edx,%eax
  2009da:	c6 00 00             	movb   $0x0,(%eax)
  2009dd:	8b 45 fc             	mov    -0x4(%ebp),%eax
  2009e0:	83 e8 01             	sub    $0x1,%eax
  2009e3:	89 45 f0             	mov    %eax,-0x10(%ebp)
  2009e6:	eb 39                	jmp    200a21 <itoa+0x117>
  2009e8:	8b 55 0c             	mov    0xc(%ebp),%edx
  2009eb:	8b 45 f4             	mov    -0xc(%ebp),%eax
  2009ee:	01 d0                	add    %edx,%eax
  2009f0:	0f b6 00             	movzbl (%eax),%eax
  2009f3:	88 45 ef             	mov    %al,-0x11(%ebp)
  2009f6:	8b 55 0c             	mov    0xc(%ebp),%edx
  2009f9:	8b 45 f0             	mov    -0x10(%ebp),%eax
  2009fc:	01 d0                	add    %edx,%eax
  2009fe:	8b 4d 0c             	mov    0xc(%ebp),%ecx
  200a01:	8b 55 f4             	mov    -0xc(%ebp),%edx
  200a04:	01 ca                	add    %ecx,%edx
  200a06:	0f b6 00             	movzbl (%eax),%eax
  200a09:	88 02                	mov    %al,(%edx)
  200a0b:	8b 55 0c             	mov    0xc(%ebp),%edx
  200a0e:	8b 45 f0             	mov    -0x10(%ebp),%eax
  200a11:	01 c2                	add    %eax,%edx
  200a13:	0f b6 45 ef          	movzbl -0x11(%ebp),%eax
  200a17:	88 02                	mov    %al,(%edx)
  200a19:	83 45 f4 01          	addl   $0x1,-0xc(%ebp)
  200a1d:	83 6d f0 01          	subl   $0x1,-0x10(%ebp)
  200a21:	8b 45 f4             	mov    -0xc(%ebp),%eax
  200a24:	3b 45 f0             	cmp    -0x10(%ebp),%eax
  200a27:	72 bf                	jb     2009e8 <itoa+0xde>
  200a29:	8b 45 fc             	mov    -0x4(%ebp),%eax
  200a2c:	c9                   	leave
  200a2d:	c3                   	ret

00200a2e <uitoa>:
  200a2e:	55                   	push   %ebp
  200a2f:	89 e5                	mov    %esp,%ebp
  200a31:	83 ec 10             	sub    $0x10,%esp
  200a34:	c7 45 fc 00 00 00 00 	movl   $0x0,-0x4(%ebp)
  200a3b:	83 7d 08 00          	cmpl   $0x0,0x8(%ebp)
  200a3f:	75 24                	jne    200a65 <uitoa+0x37>
  200a41:	8b 45 fc             	mov    -0x4(%ebp),%eax
  200a44:	8d 50 01             	lea    0x1(%eax),%edx
  200a47:	89 55 fc             	mov    %edx,-0x4(%ebp)
  200a4a:	8b 55 0c             	mov    0xc(%ebp),%edx
  200a4d:	01 d0                	add    %edx,%eax
  200a4f:	c6 00 30             	movb   $0x30,(%eax)
  200a52:	8b 55 0c             	mov    0xc(%ebp),%edx
  200a55:	8b 45 fc             	mov    -0x4(%ebp),%eax
  200a58:	01 d0                	add    %edx,%eax
  200a5a:	c6 00 00             	movb   $0x0,(%eax)
  200a5d:	8b 45 fc             	mov    -0x4(%ebp),%eax
  200a60:	e9 ad 00 00 00       	jmp    200b12 <uitoa+0xe4>
  200a65:	8b 45 fc             	mov    -0x4(%ebp),%eax
  200a68:	89 45 f8             	mov    %eax,-0x8(%ebp)
  200a6b:	eb 45                	jmp    200ab2 <uitoa+0x84>
  200a6d:	8b 4d 08             	mov    0x8(%ebp),%ecx
  200a70:	ba cd cc cc cc       	mov    $0xcccccccd,%edx
  200a75:	89 c8                	mov    %ecx,%eax
  200a77:	f7 e2                	mul    %edx
  200a79:	c1 ea 03             	shr    $0x3,%edx
  200a7c:	89 d0                	mov    %edx,%eax
  200a7e:	c1 e0 02             	shl    $0x2,%eax
  200a81:	01 d0                	add    %edx,%eax
  200a83:	01 c0                	add    %eax,%eax
  200a85:	29 c1                	sub    %eax,%ecx
  200a87:	89 ca                	mov    %ecx,%edx
  200a89:	89 d0                	mov    %edx,%eax
  200a8b:	8d 48 30             	lea    0x30(%eax),%ecx
  200a8e:	8b 45 fc             	mov    -0x4(%ebp),%eax
  200a91:	8d 50 01             	lea    0x1(%eax),%edx
  200a94:	89 55 fc             	mov    %edx,-0x4(%ebp)
  200a97:	8b 55 0c             	mov    0xc(%ebp),%edx
  200a9a:	01 d0                	add    %edx,%eax
  200a9c:	89 ca                	mov    %ecx,%edx
  200a9e:	88 10                	mov    %dl,(%eax)
  200aa0:	8b 45 08             	mov    0x8(%ebp),%eax
  200aa3:	ba cd cc cc cc       	mov    $0xcccccccd,%edx
  200aa8:	f7 e2                	mul    %edx
  200aaa:	89 d0                	mov    %edx,%eax
  200aac:	c1 e8 03             	shr    $0x3,%eax
  200aaf:	89 45 08             	mov    %eax,0x8(%ebp)
  200ab2:	83 7d 08 00          	cmpl   $0x0,0x8(%ebp)
  200ab6:	75 b5                	jne    200a6d <uitoa+0x3f>
  200ab8:	8b 55 0c             	mov    0xc(%ebp),%edx
  200abb:	8b 45 fc             	mov    -0x4(%ebp),%eax
  200abe:	01 d0                	add    %edx,%eax
  200ac0:	c6 00 00             	movb   $0x0,(%eax)
  200ac3:	8b 45 fc             	mov    -0x4(%ebp),%eax
  200ac6:	83 e8 01             	sub    $0x1,%eax
  200ac9:	89 45 f4             	mov    %eax,-0xc(%ebp)
  200acc:	eb 39                	jmp    200b07 <uitoa+0xd9>
  200ace:	8b 55 0c             	mov    0xc(%ebp),%edx
  200ad1:	8b 45 f8             	mov    -0x8(%ebp),%eax
  200ad4:	01 d0                	add    %edx,%eax
  200ad6:	0f b6 00             	movzbl (%eax),%eax
  200ad9:	88 45 f3             	mov    %al,-0xd(%ebp)
  200adc:	8b 55 0c             	mov    0xc(%ebp),%edx
  200adf:	8b 45 f4             	mov    -0xc(%ebp),%eax
  200ae2:	01 d0                	add    %edx,%eax
  200ae4:	8b 4d 0c             	mov    0xc(%ebp),%ecx
  200ae7:	8b 55 f8             	mov    -0x8(%ebp),%edx
  200aea:	01 ca                	add    %ecx,%edx
  200aec:	0f b6 00             	movzbl (%eax),%eax
  200aef:	88 02                	mov    %al,(%edx)
  200af1:	8b 55 0c             	mov    0xc(%ebp),%edx
  200af4:	8b 45 f4             	mov    -0xc(%ebp),%eax
  200af7:	01 c2                	add    %eax,%edx
  200af9:	0f b6 45 f3          	movzbl -0xd(%ebp),%eax
  200afd:	88 02                	mov    %al,(%edx)
  200aff:	83 45 f8 01          	addl   $0x1,-0x8(%ebp)
  200b03:	83 6d f4 01          	subl   $0x1,-0xc(%ebp)
  200b07:	8b 45 f8             	mov    -0x8(%ebp),%eax
  200b0a:	3b 45 f4             	cmp    -0xc(%ebp),%eax
  200b0d:	72 bf                	jb     200ace <uitoa+0xa0>
  200b0f:	8b 45 fc             	mov    -0x4(%ebp),%eax
  200b12:	c9                   	leave
  200b13:	c3                   	ret

00200b14 <ftoa>:
  200b14:	55                   	push   %ebp
  200b15:	89 e5                	mov    %esp,%ebp
  200b17:	83 ec 30             	sub    $0x30,%esp
  200b1a:	c7 45 fc 00 00 00 00 	movl   $0x0,-0x4(%ebp)
  200b21:	d9 45 08             	flds   0x8(%ebp)
  200b24:	d9 ee                	fldz
  200b26:	df f1                	fcomip %st(1),%st
  200b28:	dd d8                	fstp   %st(0)
  200b2a:	76 19                	jbe    200b45 <ftoa+0x31>
  200b2c:	8b 45 fc             	mov    -0x4(%ebp),%eax
  200b2f:	8d 50 01             	lea    0x1(%eax),%edx
  200b32:	89 55 fc             	mov    %edx,-0x4(%ebp)
  200b35:	8b 55 0c             	mov    0xc(%ebp),%edx
  200b38:	01 d0                	add    %edx,%eax
  200b3a:	c6 00 2d             	movb   $0x2d,(%eax)
  200b3d:	d9 45 08             	flds   0x8(%ebp)
  200b40:	d9 e0                	fchs
  200b42:	d9 5d 08             	fstps  0x8(%ebp)
  200b45:	d9 45 08             	flds   0x8(%ebp)
  200b48:	d9 7d de             	fnstcw -0x22(%ebp)
  200b4b:	0f b7 45 de          	movzwl -0x22(%ebp),%eax
  200b4f:	80 cc 0c             	or     $0xc,%ah
  200b52:	66 89 45 dc          	mov    %ax,-0x24(%ebp)
  200b56:	d9 6d dc             	fldcw  -0x24(%ebp)
  200b59:	df 7d d0             	fistpll -0x30(%ebp)
  200b5c:	d9 6d de             	fldcw  -0x22(%ebp)
  200b5f:	8b 45 d0             	mov    -0x30(%ebp),%eax
  200b62:	89 45 f0             	mov    %eax,-0x10(%ebp)
  200b65:	8b 45 f0             	mov    -0x10(%ebp),%eax
  200b68:	ba 00 00 00 00       	mov    $0x0,%edx
  200b6d:	89 45 d0             	mov    %eax,-0x30(%ebp)
  200b70:	89 55 d4             	mov    %edx,-0x2c(%ebp)
  200b73:	df 6d d0             	fildll -0x30(%ebp)
  200b76:	d9 45 08             	flds   0x8(%ebp)
  200b79:	de e1                	fsubp  %st,%st(1)
  200b7b:	d9 5d f8             	fstps  -0x8(%ebp)
  200b7e:	8b 55 0c             	mov    0xc(%ebp),%edx
  200b81:	8b 45 fc             	mov    -0x4(%ebp),%eax
  200b84:	01 d0                	add    %edx,%eax
  200b86:	50                   	push   %eax
  200b87:	ff 75 f0             	push   -0x10(%ebp)
  200b8a:	e8 9f fe ff ff       	call   200a2e <uitoa>
  200b8f:	83 c4 08             	add    $0x8,%esp
  200b92:	01 45 fc             	add    %eax,-0x4(%ebp)
  200b95:	83 7d 10 00          	cmpl   $0x0,0x10(%ebp)
  200b99:	75 13                	jne    200bae <ftoa+0x9a>
  200b9b:	8b 55 0c             	mov    0xc(%ebp),%edx
  200b9e:	8b 45 fc             	mov    -0x4(%ebp),%eax
  200ba1:	01 d0                	add    %edx,%eax
  200ba3:	c6 00 00             	movb   $0x0,(%eax)
  200ba6:	8b 45 fc             	mov    -0x4(%ebp),%eax
  200ba9:	e9 93 00 00 00       	jmp    200c41 <ftoa+0x12d>
  200bae:	8b 45 fc             	mov    -0x4(%ebp),%eax
  200bb1:	8d 50 01             	lea    0x1(%eax),%edx
  200bb4:	89 55 fc             	mov    %edx,-0x4(%ebp)
  200bb7:	8b 55 0c             	mov    0xc(%ebp),%edx
  200bba:	01 d0                	add    %edx,%eax
  200bbc:	c6 00 2e             	movb   $0x2e,(%eax)
  200bbf:	c7 45 f4 00 00 00 00 	movl   $0x0,-0xc(%ebp)
  200bc6:	eb 63                	jmp    200c2b <ftoa+0x117>
  200bc8:	d9 45 f8             	flds   -0x8(%ebp)
  200bcb:	d9 05 58 60 20 00    	flds   0x206058
  200bd1:	de c9                	fmulp  %st,%st(1)
  200bd3:	d9 5d f8             	fstps  -0x8(%ebp)
  200bd6:	d9 45 f8             	flds   -0x8(%ebp)
  200bd9:	d9 7d de             	fnstcw -0x22(%ebp)
  200bdc:	0f b7 45 de          	movzwl -0x22(%ebp),%eax
  200be0:	80 cc 0c             	or     $0xc,%ah
  200be3:	66 89 45 dc          	mov    %ax,-0x24(%ebp)
  200be7:	d9 6d dc             	fldcw  -0x24(%ebp)
  200bea:	df 7d d0             	fistpll -0x30(%ebp)
  200bed:	d9 6d de             	fldcw  -0x22(%ebp)
  200bf0:	8b 45 d0             	mov    -0x30(%ebp),%eax
  200bf3:	89 45 ec             	mov    %eax,-0x14(%ebp)
  200bf6:	8b 45 ec             	mov    -0x14(%ebp),%eax
  200bf9:	8d 48 30             	lea    0x30(%eax),%ecx
  200bfc:	8b 45 fc             	mov    -0x4(%ebp),%eax
  200bff:	8d 50 01             	lea    0x1(%eax),%edx
  200c02:	89 55 fc             	mov    %edx,-0x4(%ebp)
  200c05:	8b 55 0c             	mov    0xc(%ebp),%edx
  200c08:	01 d0                	add    %edx,%eax
  200c0a:	89 ca                	mov    %ecx,%edx
  200c0c:	88 10                	mov    %dl,(%eax)
  200c0e:	8b 45 ec             	mov    -0x14(%ebp),%eax
  200c11:	ba 00 00 00 00       	mov    $0x0,%edx
  200c16:	89 45 d0             	mov    %eax,-0x30(%ebp)
  200c19:	89 55 d4             	mov    %edx,-0x2c(%ebp)
  200c1c:	df 6d d0             	fildll -0x30(%ebp)
  200c1f:	d9 45 f8             	flds   -0x8(%ebp)
  200c22:	de e1                	fsubp  %st,%st(1)
  200c24:	d9 5d f8             	fstps  -0x8(%ebp)
  200c27:	83 45 f4 01          	addl   $0x1,-0xc(%ebp)
  200c2b:	8b 45 f4             	mov    -0xc(%ebp),%eax
  200c2e:	3b 45 10             	cmp    0x10(%ebp),%eax
  200c31:	72 95                	jb     200bc8 <ftoa+0xb4>
  200c33:	8b 55 0c             	mov    0xc(%ebp),%edx
  200c36:	8b 45 fc             	mov    -0x4(%ebp),%eax
  200c39:	01 d0                	add    %edx,%eax
  200c3b:	c6 00 00             	movb   $0x0,(%eax)
  200c3e:	8b 45 fc             	mov    -0x4(%ebp),%eax
  200c41:	c9                   	leave
  200c42:	c3                   	ret

00200c43 <is_digit>:
  200c43:	55                   	push   %ebp
  200c44:	89 e5                	mov    %esp,%ebp
  200c46:	83 ec 04             	sub    $0x4,%esp
  200c49:	8b 45 08             	mov    0x8(%ebp),%eax
  200c4c:	88 45 fc             	mov    %al,-0x4(%ebp)
  200c4f:	80 7d fc 2f          	cmpb   $0x2f,-0x4(%ebp)
  200c53:	7e 0d                	jle    200c62 <is_digit+0x1f>
  200c55:	80 7d fc 39          	cmpb   $0x39,-0x4(%ebp)
  200c59:	7f 07                	jg     200c62 <is_digit+0x1f>
  200c5b:	b8 01 00 00 00       	mov    $0x1,%eax
  200c60:	eb 05                	jmp    200c67 <is_digit+0x24>
  200c62:	b8 00 00 00 00       	mov    $0x0,%eax
  200c67:	c9                   	leave
  200c68:	c3                   	ret

00200c69 <char_to_uint>:
  200c69:	55                   	push   %ebp
  200c6a:	89 e5                	mov    %esp,%ebp
  200c6c:	83 ec 04             	sub    $0x4,%esp
  200c6f:	8b 45 08             	mov    0x8(%ebp),%eax
  200c72:	88 45 fc             	mov    %al,-0x4(%ebp)
  200c75:	0f be 45 fc          	movsbl -0x4(%ebp),%eax
  200c79:	50                   	push   %eax
  200c7a:	e8 c4 ff ff ff       	call   200c43 <is_digit>
  200c7f:	83 c4 04             	add    $0x4,%esp
  200c82:	85 c0                	test   %eax,%eax
  200c84:	75 07                	jne    200c8d <char_to_uint+0x24>
  200c86:	b8 0b 00 00 00       	mov    $0xb,%eax
  200c8b:	eb 07                	jmp    200c94 <char_to_uint+0x2b>
  200c8d:	0f b6 45 fc          	movzbl -0x4(%ebp),%eax
  200c91:	83 e8 30             	sub    $0x30,%eax
  200c94:	c9                   	leave
  200c95:	c3                   	ret

00200c96 <string_to_uint>:
  200c96:	55                   	push   %ebp
  200c97:	89 e5                	mov    %esp,%ebp
  200c99:	83 ec 10             	sub    $0x10,%esp
  200c9c:	c7 45 fc 01 00 00 00 	movl   $0x1,-0x4(%ebp)
  200ca3:	c7 45 f8 00 00 00 00 	movl   $0x0,-0x8(%ebp)
  200caa:	ff 75 08             	push   0x8(%ebp)
  200cad:	e8 31 fc ff ff       	call   2008e3 <strlen>
  200cb2:	83 c4 04             	add    $0x4,%esp
  200cb5:	88 45 f7             	mov    %al,-0x9(%ebp)
  200cb8:	0f b6 45 f7          	movzbl -0x9(%ebp),%eax
  200cbc:	83 e8 01             	sub    $0x1,%eax
  200cbf:	01 45 08             	add    %eax,0x8(%ebp)
  200cc2:	eb 40                	jmp    200d04 <string_to_uint+0x6e>
  200cc4:	8b 45 08             	mov    0x8(%ebp),%eax
  200cc7:	0f b6 00             	movzbl (%eax),%eax
  200cca:	0f be c0             	movsbl %al,%eax
  200ccd:	50                   	push   %eax
  200cce:	e8 96 ff ff ff       	call   200c69 <char_to_uint>
  200cd3:	83 c4 04             	add    $0x4,%esp
  200cd6:	88 45 f6             	mov    %al,-0xa(%ebp)
  200cd9:	80 7d f6 0b          	cmpb   $0xb,-0xa(%ebp)
  200cdd:	75 07                	jne    200ce6 <string_to_uint+0x50>
  200cdf:	b8 ff ff ff ff       	mov    $0xffffffff,%eax
  200ce4:	eb 2b                	jmp    200d11 <string_to_uint+0x7b>
  200ce6:	0f b6 45 f6          	movzbl -0xa(%ebp),%eax
  200cea:	0f af 45 fc          	imul   -0x4(%ebp),%eax
  200cee:	01 45 f8             	add    %eax,-0x8(%ebp)
  200cf1:	8b 55 fc             	mov    -0x4(%ebp),%edx
  200cf4:	89 d0                	mov    %edx,%eax
  200cf6:	c1 e0 02             	shl    $0x2,%eax
  200cf9:	01 d0                	add    %edx,%eax
  200cfb:	01 c0                	add    %eax,%eax
  200cfd:	89 45 fc             	mov    %eax,-0x4(%ebp)
  200d00:	83 6d 08 01          	subl   $0x1,0x8(%ebp)
  200d04:	8b 45 08             	mov    0x8(%ebp),%eax
  200d07:	0f b6 00             	movzbl (%eax),%eax
  200d0a:	84 c0                	test   %al,%al
  200d0c:	75 b6                	jne    200cc4 <string_to_uint+0x2e>
  200d0e:	8b 45 f8             	mov    -0x8(%ebp),%eax
  200d11:	c9                   	leave
  200d12:	c3                   	ret

00200d13 <uint_to_hex>:
  200d13:	55                   	push   %ebp
  200d14:	89 e5                	mov    %esp,%ebp
  200d16:	83 ec 20             	sub    $0x20,%esp
  200d19:	83 7d 10 00          	cmpl   $0x0,0x10(%ebp)
  200d1d:	74 09                	je     200d28 <uint_to_hex+0x15>
  200d1f:	c7 45 fc 34 60 20 00 	movl   $0x206034,-0x4(%ebp)
  200d26:	eb 07                	jmp    200d2f <uint_to_hex+0x1c>
  200d28:	c7 45 fc 45 60 20 00 	movl   $0x206045,-0x4(%ebp)
  200d2f:	83 7d 08 00          	cmpl   $0x0,0x8(%ebp)
  200d33:	75 19                	jne    200d4e <uint_to_hex+0x3b>
  200d35:	8b 45 0c             	mov    0xc(%ebp),%eax
  200d38:	c6 00 30             	movb   $0x30,(%eax)
  200d3b:	8b 45 0c             	mov    0xc(%ebp),%eax
  200d3e:	83 c0 01             	add    $0x1,%eax
  200d41:	c6 00 00             	movb   $0x0,(%eax)
  200d44:	b8 01 00 00 00       	mov    $0x1,%eax
  200d49:	e9 9c 00 00 00       	jmp    200dea <uint_to_hex+0xd7>
  200d4e:	c6 45 f2 00          	movb   $0x0,-0xe(%ebp)
  200d52:	c7 45 f8 07 00 00 00 	movl   $0x7,-0x8(%ebp)
  200d59:	eb 27                	jmp    200d82 <uint_to_hex+0x6f>
  200d5b:	8b 45 08             	mov    0x8(%ebp),%eax
  200d5e:	83 e0 0f             	and    $0xf,%eax
  200d61:	88 45 f3             	mov    %al,-0xd(%ebp)
  200d64:	0f b6 55 f3          	movzbl -0xd(%ebp),%edx
  200d68:	8b 45 fc             	mov    -0x4(%ebp),%eax
  200d6b:	01 d0                	add    %edx,%eax
  200d6d:	0f b6 00             	movzbl (%eax),%eax
  200d70:	8d 4d ea             	lea    -0x16(%ebp),%ecx
  200d73:	8b 55 f8             	mov    -0x8(%ebp),%edx
  200d76:	01 ca                	add    %ecx,%edx
  200d78:	88 02                	mov    %al,(%edx)
  200d7a:	c1 6d 08 04          	shrl   $0x4,0x8(%ebp)
  200d7e:	83 6d f8 01          	subl   $0x1,-0x8(%ebp)
  200d82:	83 7d f8 00          	cmpl   $0x0,-0x8(%ebp)
  200d86:	79 d3                	jns    200d5b <uint_to_hex+0x48>
  200d88:	c7 45 f8 00 00 00 00 	movl   $0x0,-0x8(%ebp)
  200d8f:	eb 04                	jmp    200d95 <uint_to_hex+0x82>
  200d91:	83 45 f8 01          	addl   $0x1,-0x8(%ebp)
  200d95:	8d 55 ea             	lea    -0x16(%ebp),%edx
  200d98:	8b 45 f8             	mov    -0x8(%ebp),%eax
  200d9b:	01 d0                	add    %edx,%eax
  200d9d:	0f b6 00             	movzbl (%eax),%eax
  200da0:	3c 30                	cmp    $0x30,%al
  200da2:	74 ed                	je     200d91 <uint_to_hex+0x7e>
  200da4:	c7 45 f4 00 00 00 00 	movl   $0x0,-0xc(%ebp)
  200dab:	eb 20                	jmp    200dcd <uint_to_hex+0xba>
  200dad:	8b 45 f8             	mov    -0x8(%ebp),%eax
  200db0:	8d 50 01             	lea    0x1(%eax),%edx
  200db3:	89 55 f8             	mov    %edx,-0x8(%ebp)
  200db6:	8b 55 f4             	mov    -0xc(%ebp),%edx
  200db9:	8d 4a 01             	lea    0x1(%edx),%ecx
  200dbc:	89 4d f4             	mov    %ecx,-0xc(%ebp)
  200dbf:	89 d1                	mov    %edx,%ecx
  200dc1:	8b 55 0c             	mov    0xc(%ebp),%edx
  200dc4:	01 ca                	add    %ecx,%edx
  200dc6:	0f b6 44 05 ea       	movzbl -0x16(%ebp,%eax,1),%eax
  200dcb:	88 02                	mov    %al,(%edx)
  200dcd:	8d 55 ea             	lea    -0x16(%ebp),%edx
  200dd0:	8b 45 f8             	mov    -0x8(%ebp),%eax
  200dd3:	01 d0                	add    %edx,%eax
  200dd5:	0f b6 00             	movzbl (%eax),%eax
  200dd8:	84 c0                	test   %al,%al
  200dda:	75 d1                	jne    200dad <uint_to_hex+0x9a>
  200ddc:	8b 55 f4             	mov    -0xc(%ebp),%edx
  200ddf:	8b 45 0c             	mov    0xc(%ebp),%eax
  200de2:	01 d0                	add    %edx,%eax
  200de4:	c6 00 00             	movb   $0x0,(%eax)
  200de7:	8b 45 f4             	mov    -0xc(%ebp),%eax
  200dea:	c9                   	leave
  200deb:	c3                   	ret

00200dec <ptr_to_hex>:
  200dec:	55                   	push   %ebp
  200ded:	89 e5                	mov    %esp,%ebp
  200def:	83 ec 20             	sub    $0x20,%esp
  200df2:	83 7d 10 00          	cmpl   $0x0,0x10(%ebp)
  200df6:	74 09                	je     200e01 <ptr_to_hex+0x15>
  200df8:	c7 45 fc 34 60 20 00 	movl   $0x206034,-0x4(%ebp)
  200dff:	eb 07                	jmp    200e08 <ptr_to_hex+0x1c>
  200e01:	c7 45 fc 45 60 20 00 	movl   $0x206045,-0x4(%ebp)
  200e08:	8b 45 08             	mov    0x8(%ebp),%eax
  200e0b:	89 45 f8             	mov    %eax,-0x8(%ebp)
  200e0e:	83 7d f8 00          	cmpl   $0x0,-0x8(%ebp)
  200e12:	75 19                	jne    200e2d <ptr_to_hex+0x41>
  200e14:	8b 45 0c             	mov    0xc(%ebp),%eax
  200e17:	c6 00 30             	movb   $0x30,(%eax)
  200e1a:	8b 45 0c             	mov    0xc(%ebp),%eax
  200e1d:	83 c0 01             	add    $0x1,%eax
  200e20:	c6 00 00             	movb   $0x0,(%eax)
  200e23:	b8 01 00 00 00       	mov    $0x1,%eax
  200e28:	e9 97 00 00 00       	jmp    200ec4 <ptr_to_hex+0xd8>
  200e2d:	c6 45 ef 00          	movb   $0x0,-0x11(%ebp)
  200e31:	c7 45 f4 07 00 00 00 	movl   $0x7,-0xc(%ebp)
  200e38:	eb 22                	jmp    200e5c <ptr_to_hex+0x70>
  200e3a:	8b 45 f8             	mov    -0x8(%ebp),%eax
  200e3d:	83 e0 0f             	and    $0xf,%eax
  200e40:	89 c2                	mov    %eax,%edx
  200e42:	8b 45 fc             	mov    -0x4(%ebp),%eax
  200e45:	01 d0                	add    %edx,%eax
  200e47:	0f b6 00             	movzbl (%eax),%eax
  200e4a:	8d 4d e7             	lea    -0x19(%ebp),%ecx
  200e4d:	8b 55 f4             	mov    -0xc(%ebp),%edx
  200e50:	01 ca                	add    %ecx,%edx
  200e52:	88 02                	mov    %al,(%edx)
  200e54:	c1 6d f8 04          	shrl   $0x4,-0x8(%ebp)
  200e58:	83 6d f4 01          	subl   $0x1,-0xc(%ebp)
  200e5c:	83 7d f4 00          	cmpl   $0x0,-0xc(%ebp)
  200e60:	79 d8                	jns    200e3a <ptr_to_hex+0x4e>
  200e62:	c7 45 f4 00 00 00 00 	movl   $0x0,-0xc(%ebp)
  200e69:	eb 04                	jmp    200e6f <ptr_to_hex+0x83>
  200e6b:	83 45 f4 01          	addl   $0x1,-0xc(%ebp)
  200e6f:	8d 55 e7             	lea    -0x19(%ebp),%edx
  200e72:	8b 45 f4             	mov    -0xc(%ebp),%eax
  200e75:	01 d0                	add    %edx,%eax
  200e77:	0f b6 00             	movzbl (%eax),%eax
  200e7a:	3c 30                	cmp    $0x30,%al
  200e7c:	74 ed                	je     200e6b <ptr_to_hex+0x7f>
  200e7e:	c7 45 f0 00 00 00 00 	movl   $0x0,-0x10(%ebp)
  200e85:	eb 20                	jmp    200ea7 <ptr_to_hex+0xbb>
  200e87:	8b 45 f4             	mov    -0xc(%ebp),%eax
  200e8a:	8d 50 01             	lea    0x1(%eax),%edx
  200e8d:	89 55 f4             	mov    %edx,-0xc(%ebp)
  200e90:	8b 55 f0             	mov    -0x10(%ebp),%edx
  200e93:	8d 4a 01             	lea    0x1(%edx),%ecx
  200e96:	89 4d f0             	mov    %ecx,-0x10(%ebp)
  200e99:	89 d1                	mov    %edx,%ecx
  200e9b:	8b 55 0c             	mov    0xc(%ebp),%edx
  200e9e:	01 ca                	add    %ecx,%edx
  200ea0:	0f b6 44 05 e7       	movzbl -0x19(%ebp,%eax,1),%eax
  200ea5:	88 02                	mov    %al,(%edx)
  200ea7:	8d 55 e7             	lea    -0x19(%ebp),%edx
  200eaa:	8b 45 f4             	mov    -0xc(%ebp),%eax
  200ead:	01 d0                	add    %edx,%eax
  200eaf:	0f b6 00             	movzbl (%eax),%eax
  200eb2:	84 c0                	test   %al,%al
  200eb4:	75 d1                	jne    200e87 <ptr_to_hex+0x9b>
  200eb6:	8b 55 f0             	mov    -0x10(%ebp),%edx
  200eb9:	8b 45 0c             	mov    0xc(%ebp),%eax
  200ebc:	01 d0                	add    %edx,%eax
  200ebe:	c6 00 00             	movb   $0x0,(%eax)
  200ec1:	8b 45 f0             	mov    -0x10(%ebp),%eax
  200ec4:	c9                   	leave
  200ec5:	c3                   	ret

00200ec6 <_abort>:
  200ec6:	55                   	push   %ebp
  200ec7:	89 e5                	mov    %esp,%ebp
  200ec9:	83 ec 08             	sub    $0x8,%esp
  200ecc:	83 ec 0c             	sub    $0xc,%esp
  200ecf:	68 5c 60 20 00       	push   $0x20605c
  200ed4:	e8 fe 0a 00 00       	call   2019d7 <terminal_writestring>
  200ed9:	83 c4 10             	add    $0x10,%esp
  200edc:	fa                   	cli
  200edd:	f4                   	hlt
  200ede:	eb fc                	jmp    200edc <_abort+0x16>

00200ee0 <_abort_msg>:
  200ee0:	55                   	push   %ebp
  200ee1:	89 e5                	mov    %esp,%ebp
  200ee3:	83 ec 08             	sub    $0x8,%esp
  200ee6:	83 ec 0c             	sub    $0xc,%esp
  200ee9:	ff 75 0c             	push   0xc(%ebp)
  200eec:	ff 75 10             	push   0x10(%ebp)
  200eef:	ff 75 08             	push   0x8(%ebp)
  200ef2:	68 65 60 20 00       	push   $0x206065
  200ef7:	6a 04                	push   $0x4
  200ef9:	e8 3d 17 00 00       	call   20263b <kprintf_argc>
  200efe:	83 c4 20             	add    $0x20,%esp
  200f01:	e8 c0 ff ff ff       	call   200ec6 <_abort>

00200f06 <assert_handler>:
  200f06:	55                   	push   %ebp
  200f07:	89 e5                	mov    %esp,%ebp
  200f09:	83 ec 18             	sub    $0x18,%esp
  200f0c:	8b 45 08             	mov    0x8(%ebp),%eax
  200f0f:	88 45 f4             	mov    %al,-0xc(%ebp)
  200f12:	0f b6 45 f4          	movzbl -0xc(%ebp),%eax
  200f16:	83 f0 01             	xor    $0x1,%eax
  200f19:	84 c0                	test   %al,%al
  200f1b:	74 23                	je     200f40 <assert_handler+0x3a>
  200f1d:	83 ec 08             	sub    $0x8,%esp
  200f20:	68 7c 60 20 00       	push   $0x20607c
  200f25:	6a 01                	push   $0x1
  200f27:	e8 0f 17 00 00       	call   20263b <kprintf_argc>
  200f2c:	83 c4 10             	add    $0x10,%esp
  200f2f:	83 ec 04             	sub    $0x4,%esp
  200f32:	ff 75 14             	push   0x14(%ebp)
  200f35:	ff 75 10             	push   0x10(%ebp)
  200f38:	ff 75 0c             	push   0xc(%ebp)
  200f3b:	e8 a0 ff ff ff       	call   200ee0 <_abort_msg>
  200f40:	90                   	nop
  200f41:	c9                   	leave
  200f42:	c3                   	ret

00200f43 <getSpacelessBitString>:
  200f43:	55                   	push   %ebp
  200f44:	89 e5                	mov    %esp,%ebp
  200f46:	83 ec 10             	sub    $0x10,%esp
  200f49:	8b 45 0c             	mov    0xc(%ebp),%eax
  200f4c:	83 c0 20             	add    $0x20,%eax
  200f4f:	c6 00 00             	movb   $0x0,(%eax)
  200f52:	c6 45 ff 00          	movb   $0x0,-0x1(%ebp)
  200f56:	eb 38                	jmp    200f90 <getSpacelessBitString+0x4d>
  200f58:	0f b6 45 ff          	movzbl -0x1(%ebp),%eax
  200f5c:	8b 55 08             	mov    0x8(%ebp),%edx
  200f5f:	89 c1                	mov    %eax,%ecx
  200f61:	d3 ea                	shr    %cl,%edx
  200f63:	89 d0                	mov    %edx,%eax
  200f65:	83 e0 01             	and    $0x1,%eax
  200f68:	88 45 fe             	mov    %al,-0x2(%ebp)
  200f6b:	0f b6 45 fe          	movzbl -0x2(%ebp),%eax
  200f6f:	8d 48 30             	lea    0x30(%eax),%ecx
  200f72:	0f b6 45 ff          	movzbl -0x1(%ebp),%eax
  200f76:	ba 1f 00 00 00       	mov    $0x1f,%edx
  200f7b:	29 c2                	sub    %eax,%edx
  200f7d:	8b 45 0c             	mov    0xc(%ebp),%eax
  200f80:	01 d0                	add    %edx,%eax
  200f82:	89 ca                	mov    %ecx,%edx
  200f84:	88 10                	mov    %dl,(%eax)
  200f86:	0f b6 45 ff          	movzbl -0x1(%ebp),%eax
  200f8a:	83 c0 01             	add    $0x1,%eax
  200f8d:	88 45 ff             	mov    %al,-0x1(%ebp)
  200f90:	80 7d ff 1f          	cmpb   $0x1f,-0x1(%ebp)
  200f94:	76 c2                	jbe    200f58 <getSpacelessBitString+0x15>
  200f96:	8b 45 0c             	mov    0xc(%ebp),%eax
  200f99:	c9                   	leave
  200f9a:	c3                   	ret

00200f9b <addSpacesEvery4bits>:
  200f9b:	55                   	push   %ebp
  200f9c:	89 e5                	mov    %esp,%ebp
  200f9e:	83 ec 10             	sub    $0x10,%esp
  200fa1:	c6 45 ff 00          	movb   $0x0,-0x1(%ebp)
  200fa5:	c6 45 fe 00          	movb   $0x0,-0x2(%ebp)
  200fa9:	eb 61                	jmp    20100c <addSpacesEvery4bits+0x71>
  200fab:	0f b6 45 fe          	movzbl -0x2(%ebp),%eax
  200faf:	8d 48 01             	lea    0x1(%eax),%ecx
  200fb2:	ba 67 66 66 66       	mov    $0x66666667,%edx
  200fb7:	89 c8                	mov    %ecx,%eax
  200fb9:	f7 ea                	imul   %edx
  200fbb:	d1 fa                	sar    $1,%edx
  200fbd:	89 c8                	mov    %ecx,%eax
  200fbf:	c1 f8 1f             	sar    $0x1f,%eax
  200fc2:	29 c2                	sub    %eax,%edx
  200fc4:	89 d0                	mov    %edx,%eax
  200fc6:	c1 e0 02             	shl    $0x2,%eax
  200fc9:	01 d0                	add    %edx,%eax
  200fcb:	29 c1                	sub    %eax,%ecx
  200fcd:	89 ca                	mov    %ecx,%edx
  200fcf:	85 d2                	test   %edx,%edx
  200fd1:	75 0e                	jne    200fe1 <addSpacesEvery4bits+0x46>
  200fd3:	0f b6 55 fe          	movzbl -0x2(%ebp),%edx
  200fd7:	8b 45 0c             	mov    0xc(%ebp),%eax
  200fda:	01 d0                	add    %edx,%eax
  200fdc:	c6 00 20             	movb   $0x20,(%eax)
  200fdf:	eb 21                	jmp    201002 <addSpacesEvery4bits+0x67>
  200fe1:	0f b6 55 ff          	movzbl -0x1(%ebp),%edx
  200fe5:	8b 45 08             	mov    0x8(%ebp),%eax
  200fe8:	01 d0                	add    %edx,%eax
  200fea:	0f b6 4d fe          	movzbl -0x2(%ebp),%ecx
  200fee:	8b 55 0c             	mov    0xc(%ebp),%edx
  200ff1:	01 ca                	add    %ecx,%edx
  200ff3:	0f b6 00             	movzbl (%eax),%eax
  200ff6:	88 02                	mov    %al,(%edx)
  200ff8:	0f b6 45 ff          	movzbl -0x1(%ebp),%eax
  200ffc:	83 c0 01             	add    $0x1,%eax
  200fff:	88 45 ff             	mov    %al,-0x1(%ebp)
  201002:	0f b6 45 fe          	movzbl -0x2(%ebp),%eax
  201006:	83 c0 01             	add    $0x1,%eax
  201009:	88 45 fe             	mov    %al,-0x2(%ebp)
  20100c:	80 7d fe 26          	cmpb   $0x26,-0x2(%ebp)
  201010:	76 99                	jbe    200fab <addSpacesEvery4bits+0x10>
  201012:	8b 45 0c             	mov    0xc(%ebp),%eax
  201015:	83 c0 27             	add    $0x27,%eax
  201018:	c6 00 00             	movb   $0x0,(%eax)
  20101b:	8b 45 0c             	mov    0xc(%ebp),%eax
  20101e:	c9                   	leave
  20101f:	c3                   	ret

00201020 <printBinary>:
  201020:	55                   	push   %ebp
  201021:	89 e5                	mov    %esp,%ebp
  201023:	83 ec 58             	sub    $0x58,%esp
  201026:	8d 45 d7             	lea    -0x29(%ebp),%eax
  201029:	50                   	push   %eax
  20102a:	ff 75 08             	push   0x8(%ebp)
  20102d:	e8 11 ff ff ff       	call   200f43 <getSpacelessBitString>
  201032:	83 c4 08             	add    $0x8,%esp
  201035:	8d 45 af             	lea    -0x51(%ebp),%eax
  201038:	50                   	push   %eax
  201039:	8d 45 d7             	lea    -0x29(%ebp),%eax
  20103c:	50                   	push   %eax
  20103d:	e8 59 ff ff ff       	call   200f9b <addSpacesEvery4bits>
  201042:	83 c4 08             	add    $0x8,%esp
  201045:	83 ec 0c             	sub    $0xc,%esp
  201048:	ff 75 0c             	push   0xc(%ebp)
  20104b:	e8 87 09 00 00       	call   2019d7 <terminal_writestring>
  201050:	83 c4 10             	add    $0x10,%esp
  201053:	83 ec 0c             	sub    $0xc,%esp
  201056:	68 8e 60 20 00       	push   $0x20608e
  20105b:	e8 77 09 00 00       	call   2019d7 <terminal_writestring>
  201060:	83 c4 10             	add    $0x10,%esp
  201063:	83 ec 0c             	sub    $0xc,%esp
  201066:	8d 45 af             	lea    -0x51(%ebp),%eax
  201069:	50                   	push   %eax
  20106a:	e8 68 09 00 00       	call   2019d7 <terminal_writestring>
  20106f:	83 c4 10             	add    $0x10,%esp
  201072:	83 ec 0c             	sub    $0xc,%esp
  201075:	68 92 60 20 00       	push   $0x206092
  20107a:	e8 58 09 00 00       	call   2019d7 <terminal_writestring>
  20107f:	83 c4 10             	add    $0x10,%esp
  201082:	83 ec 0c             	sub    $0xc,%esp
  201085:	ff 75 08             	push   0x8(%ebp)
  201088:	e8 11 0c 00 00       	call   201c9e <print_hex_var>
  20108d:	83 c4 10             	add    $0x10,%esp
  201090:	83 ec 0c             	sub    $0xc,%esp
  201093:	68 96 60 20 00       	push   $0x206096
  201098:	e8 3a 09 00 00       	call   2019d7 <terminal_writestring>
  20109d:	83 c4 10             	add    $0x10,%esp
  2010a0:	90                   	nop
  2010a1:	c9                   	leave
  2010a2:	c3                   	ret

002010a3 <printBinarySize>:
  2010a3:	55                   	push   %ebp
  2010a4:	89 e5                	mov    %esp,%ebp
  2010a6:	83 ec 58             	sub    $0x58,%esp
  2010a9:	8d 45 d6             	lea    -0x2a(%ebp),%eax
  2010ac:	50                   	push   %eax
  2010ad:	ff 75 08             	push   0x8(%ebp)
  2010b0:	e8 8e fe ff ff       	call   200f43 <getSpacelessBitString>
  2010b5:	83 c4 08             	add    $0x8,%esp
  2010b8:	8d 45 ae             	lea    -0x52(%ebp),%eax
  2010bb:	50                   	push   %eax
  2010bc:	8d 45 d6             	lea    -0x2a(%ebp),%eax
  2010bf:	50                   	push   %eax
  2010c0:	e8 d6 fe ff ff       	call   200f9b <addSpacesEvery4bits>
  2010c5:	83 c4 08             	add    $0x8,%esp
  2010c8:	83 7d 10 1f          	cmpl   $0x1f,0x10(%ebp)
  2010cc:	76 06                	jbe    2010d4 <printBinarySize+0x31>
  2010ce:	c6 45 f7 00          	movb   $0x0,-0x9(%ebp)
  2010d2:	eb 17                	jmp    2010eb <printBinarySize+0x48>
  2010d4:	8b 45 10             	mov    0x10(%ebp),%eax
  2010d7:	c1 e8 02             	shr    $0x2,%eax
  2010da:	89 c2                	mov    %eax,%edx
  2010dc:	8b 45 10             	mov    0x10(%ebp),%eax
  2010df:	01 c2                	add    %eax,%edx
  2010e1:	b8 27 00 00 00       	mov    $0x27,%eax
  2010e6:	29 d0                	sub    %edx,%eax
  2010e8:	88 45 f7             	mov    %al,-0x9(%ebp)
  2010eb:	83 ec 0c             	sub    $0xc,%esp
  2010ee:	ff 75 0c             	push   0xc(%ebp)
  2010f1:	e8 e1 08 00 00       	call   2019d7 <terminal_writestring>
  2010f6:	83 c4 10             	add    $0x10,%esp
  2010f9:	83 ec 0c             	sub    $0xc,%esp
  2010fc:	68 8e 60 20 00       	push   $0x20608e
  201101:	e8 d1 08 00 00       	call   2019d7 <terminal_writestring>
  201106:	83 c4 10             	add    $0x10,%esp
  201109:	0f b6 45 f7          	movzbl -0x9(%ebp),%eax
  20110d:	8d 55 ae             	lea    -0x52(%ebp),%edx
  201110:	01 d0                	add    %edx,%eax
  201112:	83 ec 0c             	sub    $0xc,%esp
  201115:	50                   	push   %eax
  201116:	e8 bc 08 00 00       	call   2019d7 <terminal_writestring>
  20111b:	83 c4 10             	add    $0x10,%esp
  20111e:	83 ec 0c             	sub    $0xc,%esp
  201121:	68 92 60 20 00       	push   $0x206092
  201126:	e8 ac 08 00 00       	call   2019d7 <terminal_writestring>
  20112b:	83 c4 10             	add    $0x10,%esp
  20112e:	83 ec 0c             	sub    $0xc,%esp
  201131:	ff 75 08             	push   0x8(%ebp)
  201134:	e8 65 0b 00 00       	call   201c9e <print_hex_var>
  201139:	83 c4 10             	add    $0x10,%esp
  20113c:	90                   	nop
  20113d:	c9                   	leave
  20113e:	c3                   	ret

0020113f <binary_size>:
  20113f:	55                   	push   %ebp
  201140:	89 e5                	mov    %esp,%ebp
  201142:	83 ec 10             	sub    $0x10,%esp
  201145:	83 7d 08 00          	cmpl   $0x0,0x8(%ebp)
  201149:	75 07                	jne    201152 <binary_size+0x13>
  20114b:	b8 01 00 00 00       	mov    $0x1,%eax
  201150:	eb 19                	jmp    20116b <binary_size+0x2c>
  201152:	c7 45 fc 00 00 00 00 	movl   $0x0,-0x4(%ebp)
  201159:	eb 07                	jmp    201162 <binary_size+0x23>
  20115b:	83 45 fc 01          	addl   $0x1,-0x4(%ebp)
  20115f:	d1 6d 08             	shrl   $1,0x8(%ebp)
  201162:	83 7d 08 00          	cmpl   $0x0,0x8(%ebp)
  201166:	75 f3                	jne    20115b <binary_size+0x1c>
  201168:	8b 45 fc             	mov    -0x4(%ebp),%eax
  20116b:	c9                   	leave
  20116c:	c3                   	ret

0020116d <hexSize>:
  20116d:	55                   	push   %ebp
  20116e:	89 e5                	mov    %esp,%ebp
  201170:	ff 75 08             	push   0x8(%ebp)
  201173:	e8 c7 ff ff ff       	call   20113f <binary_size>
  201178:	83 c4 04             	add    $0x4,%esp
  20117b:	83 e0 03             	and    $0x3,%eax
  20117e:	84 c0                	test   %al,%al
  201180:	74 13                	je     201195 <hexSize+0x28>
  201182:	ff 75 08             	push   0x8(%ebp)
  201185:	e8 b5 ff ff ff       	call   20113f <binary_size>
  20118a:	83 c4 04             	add    $0x4,%esp
  20118d:	c0 e8 02             	shr    $0x2,%al
  201190:	83 c0 01             	add    $0x1,%eax
  201193:	eb 0e                	jmp    2011a3 <hexSize+0x36>
  201195:	ff 75 08             	push   0x8(%ebp)
  201198:	e8 a2 ff ff ff       	call   20113f <binary_size>
  20119d:	83 c4 04             	add    $0x4,%esp
  2011a0:	c0 e8 02             	shr    $0x2,%al
  2011a3:	c9                   	leave
  2011a4:	c3                   	ret

002011a5 <max>:
  2011a5:	55                   	push   %ebp
  2011a6:	89 e5                	mov    %esp,%ebp
  2011a8:	83 ec 08             	sub    $0x8,%esp
  2011ab:	8b 55 08             	mov    0x8(%ebp),%edx
  2011ae:	8b 45 0c             	mov    0xc(%ebp),%eax
  2011b1:	88 55 fc             	mov    %dl,-0x4(%ebp)
  2011b4:	88 45 f8             	mov    %al,-0x8(%ebp)
  2011b7:	0f b6 45 fc          	movzbl -0x4(%ebp),%eax
  2011bb:	38 45 f8             	cmp    %al,-0x8(%ebp)
  2011be:	73 06                	jae    2011c6 <max+0x21>
  2011c0:	0f b6 45 fc          	movzbl -0x4(%ebp),%eax
  2011c4:	eb 04                	jmp    2011ca <max+0x25>
  2011c6:	0f b6 45 f8          	movzbl -0x8(%ebp),%eax
  2011ca:	c9                   	leave
  2011cb:	c3                   	ret

002011cc <print_binary_var_no_newline>:
  2011cc:	55                   	push   %ebp
  2011cd:	89 e5                	mov    %esp,%ebp
  2011cf:	83 ec 68             	sub    $0x68,%esp
  2011d2:	8d 45 cf             	lea    -0x31(%ebp),%eax
  2011d5:	50                   	push   %eax
  2011d6:	ff 75 08             	push   0x8(%ebp)
  2011d9:	e8 65 fd ff ff       	call   200f43 <getSpacelessBitString>
  2011de:	83 c4 08             	add    $0x8,%esp
  2011e1:	8d 45 a7             	lea    -0x59(%ebp),%eax
  2011e4:	50                   	push   %eax
  2011e5:	8d 45 cf             	lea    -0x31(%ebp),%eax
  2011e8:	50                   	push   %eax
  2011e9:	e8 ad fd ff ff       	call   200f9b <addSpacesEvery4bits>
  2011ee:	83 c4 08             	add    $0x8,%esp
  2011f1:	ff 75 08             	push   0x8(%ebp)
  2011f4:	e8 46 ff ff ff       	call   20113f <binary_size>
  2011f9:	83 c4 04             	add    $0x4,%esp
  2011fc:	88 45 f6             	mov    %al,-0xa(%ebp)
  2011ff:	8b 45 0c             	mov    0xc(%ebp),%eax
  201202:	0f b6 d0             	movzbl %al,%edx
  201205:	0f b6 45 f6          	movzbl -0xa(%ebp),%eax
  201209:	52                   	push   %edx
  20120a:	50                   	push   %eax
  20120b:	e8 95 ff ff ff       	call   2011a5 <max>
  201210:	83 c4 08             	add    $0x8,%esp
  201213:	0f b6 c0             	movzbl %al,%eax
  201216:	89 45 0c             	mov    %eax,0xc(%ebp)
  201219:	83 7d 0c 1f          	cmpl   $0x1f,0xc(%ebp)
  20121d:	76 06                	jbe    201225 <print_binary_var_no_newline+0x59>
  20121f:	c6 45 f7 00          	movb   $0x0,-0x9(%ebp)
  201223:	eb 25                	jmp    20124a <print_binary_var_no_newline+0x7e>
  201225:	8b 45 0c             	mov    0xc(%ebp),%eax
  201228:	c1 e8 02             	shr    $0x2,%eax
  20122b:	89 c2                	mov    %eax,%edx
  20122d:	8b 45 0c             	mov    0xc(%ebp),%eax
  201230:	01 c2                	add    %eax,%edx
  201232:	b8 27 00 00 00       	mov    $0x27,%eax
  201237:	29 d0                	sub    %edx,%eax
  201239:	88 45 f7             	mov    %al,-0x9(%ebp)
  20123c:	8b 45 0c             	mov    0xc(%ebp),%eax
  20123f:	83 e0 03             	and    $0x3,%eax
  201242:	85 c0                	test   %eax,%eax
  201244:	75 04                	jne    20124a <print_binary_var_no_newline+0x7e>
  201246:	80 45 f7 01          	addb   $0x1,-0x9(%ebp)
  20124a:	0f b6 45 f7          	movzbl -0x9(%ebp),%eax
  20124e:	8d 55 a7             	lea    -0x59(%ebp),%edx
  201251:	01 d0                	add    %edx,%eax
  201253:	89 45 f0             	mov    %eax,-0x10(%ebp)
  201256:	83 ec 0c             	sub    $0xc,%esp
  201259:	ff 75 f0             	push   -0x10(%ebp)
  20125c:	e8 76 07 00 00       	call   2019d7 <terminal_writestring>
  201261:	83 c4 10             	add    $0x10,%esp
  201264:	90                   	nop
  201265:	c9                   	leave
  201266:	c3                   	ret

00201267 <hex_len>:
  201267:	55                   	push   %ebp
  201268:	89 e5                	mov    %esp,%ebp
  20126a:	8b 45 08             	mov    0x8(%ebp),%eax
  20126d:	83 e8 01             	sub    $0x1,%eax
  201270:	c1 e8 02             	shr    $0x2,%eax
  201273:	89 c2                	mov    %eax,%edx
  201275:	8b 45 08             	mov    0x8(%ebp),%eax
  201278:	01 d0                	add    %edx,%eax
  20127a:	5d                   	pop    %ebp
  20127b:	c3                   	ret

0020127c <print_hex_f>:
  20127c:	55                   	push   %ebp
  20127d:	89 e5                	mov    %esp,%ebp
  20127f:	53                   	push   %ebx
  201280:	83 ec 34             	sub    $0x34,%esp
  201283:	8b 45 0c             	mov    0xc(%ebp),%eax
  201286:	88 45 d4             	mov    %al,-0x2c(%ebp)
  201289:	89 e0                	mov    %esp,%eax
  20128b:	89 c3                	mov    %eax,%ebx
  20128d:	80 7d d4 10          	cmpb   $0x10,-0x2c(%ebp)
  201291:	0f 96 c0             	setbe  %al
  201294:	0f b6 c0             	movzbl %al,%eax
  201297:	68 98 60 20 00       	push   $0x206098
  20129c:	68 8d 00 00 00       	push   $0x8d
  2012a1:	68 b0 60 20 00       	push   $0x2060b0
  2012a6:	50                   	push   %eax
  2012a7:	e8 5a fc ff ff       	call   200f06 <assert_handler>
  2012ac:	83 c4 10             	add    $0x10,%esp
  2012af:	83 ec 0c             	sub    $0xc,%esp
  2012b2:	ff 75 08             	push   0x8(%ebp)
  2012b5:	e8 b3 fe ff ff       	call   20116d <hexSize>
  2012ba:	83 c4 10             	add    $0x10,%esp
  2012bd:	88 45 f4             	mov    %al,-0xc(%ebp)
  2012c0:	0f b6 55 d4          	movzbl -0x2c(%ebp),%edx
  2012c4:	0f b6 45 f4          	movzbl -0xc(%ebp),%eax
  2012c8:	83 ec 08             	sub    $0x8,%esp
  2012cb:	52                   	push   %edx
  2012cc:	50                   	push   %eax
  2012cd:	e8 d3 fe ff ff       	call   2011a5 <max>
  2012d2:	83 c4 10             	add    $0x10,%esp
  2012d5:	88 45 f3             	mov    %al,-0xd(%ebp)
  2012d8:	0f b6 45 f3          	movzbl -0xd(%ebp),%eax
  2012dc:	83 c0 01             	add    $0x1,%eax
  2012df:	8d 50 ff             	lea    -0x1(%eax),%edx
  2012e2:	89 55 ec             	mov    %edx,-0x14(%ebp)
  2012e5:	89 c2                	mov    %eax,%edx
  2012e7:	b8 10 00 00 00       	mov    $0x10,%eax
  2012ec:	83 e8 01             	sub    $0x1,%eax
  2012ef:	01 d0                	add    %edx,%eax
  2012f1:	b9 10 00 00 00       	mov    $0x10,%ecx
  2012f6:	ba 00 00 00 00       	mov    $0x0,%edx
  2012fb:	f7 f1                	div    %ecx
  2012fd:	6b c0 10             	imul   $0x10,%eax,%eax
  201300:	29 c4                	sub    %eax,%esp
  201302:	89 e0                	mov    %esp,%eax
  201304:	89 45 e8             	mov    %eax,-0x18(%ebp)
  201307:	83 ec 04             	sub    $0x4,%esp
  20130a:	6a 00                	push   $0x0
  20130c:	ff 75 e8             	push   -0x18(%ebp)
  20130f:	ff 75 08             	push   0x8(%ebp)
  201312:	e8 fc f9 ff ff       	call   200d13 <uint_to_hex>
  201317:	83 c4 10             	add    $0x10,%esp
  20131a:	89 45 e4             	mov    %eax,-0x1c(%ebp)
  20131d:	0f b6 45 f4          	movzbl -0xc(%ebp),%eax
  201321:	39 45 e4             	cmp    %eax,-0x1c(%ebp)
  201324:	0f 94 c0             	sete   %al
  201327:	0f b6 c0             	movzbl %al,%eax
  20132a:	68 98 60 20 00       	push   $0x206098
  20132f:	68 94 00 00 00       	push   $0x94
  201334:	68 d8 60 20 00       	push   $0x2060d8
  201339:	50                   	push   %eax
  20133a:	e8 c7 fb ff ff       	call   200f06 <assert_handler>
  20133f:	83 c4 10             	add    $0x10,%esp
  201342:	0f b6 45 f3          	movzbl -0xd(%ebp),%eax
  201346:	83 ec 0c             	sub    $0xc,%esp
  201349:	50                   	push   %eax
  20134a:	e8 18 ff ff ff       	call   201267 <hex_len>
  20134f:	83 c4 10             	add    $0x10,%esp
  201352:	88 45 e3             	mov    %al,-0x1d(%ebp)
  201355:	83 ec 0c             	sub    $0xc,%esp
  201358:	68 03 61 20 00       	push   $0x206103
  20135d:	e8 75 06 00 00       	call   2019d7 <terminal_writestring>
  201362:	83 c4 10             	add    $0x10,%esp
  201365:	8b 45 e4             	mov    -0x1c(%ebp),%eax
  201368:	89 c2                	mov    %eax,%edx
  20136a:	0f b6 45 f3          	movzbl -0xd(%ebp),%eax
  20136e:	29 d0                	sub    %edx,%eax
  201370:	88 45 f7             	mov    %al,-0x9(%ebp)
  201373:	0f b6 45 f3          	movzbl -0xd(%ebp),%eax
  201377:	3b 45 e4             	cmp    -0x1c(%ebp),%eax
  20137a:	73 04                	jae    201380 <print_hex_f+0x104>
  20137c:	c6 45 f7 00          	movb   $0x0,-0x9(%ebp)
  201380:	c6 45 f6 00          	movb   $0x0,-0xa(%ebp)
  201384:	eb 3c                	jmp    2013c2 <print_hex_f+0x146>
  201386:	83 ec 0c             	sub    $0xc,%esp
  201389:	6a 30                	push   $0x30
  20138b:	e8 2c 05 00 00       	call   2018bc <terminal_putchar>
  201390:	83 c4 10             	add    $0x10,%esp
  201393:	0f b6 45 f3          	movzbl -0xd(%ebp),%eax
  201397:	2a 45 f6             	sub    -0xa(%ebp),%al
  20139a:	83 e8 01             	sub    $0x1,%eax
  20139d:	88 45 e0             	mov    %al,-0x20(%ebp)
  2013a0:	0f b6 45 e0          	movzbl -0x20(%ebp),%eax
  2013a4:	83 e0 03             	and    $0x3,%eax
  2013a7:	84 c0                	test   %al,%al
  2013a9:	75 0d                	jne    2013b8 <print_hex_f+0x13c>
  2013ab:	83 ec 0c             	sub    $0xc,%esp
  2013ae:	6a 20                	push   $0x20
  2013b0:	e8 07 05 00 00       	call   2018bc <terminal_putchar>
  2013b5:	83 c4 10             	add    $0x10,%esp
  2013b8:	0f b6 45 f6          	movzbl -0xa(%ebp),%eax
  2013bc:	83 c0 01             	add    $0x1,%eax
  2013bf:	88 45 f6             	mov    %al,-0xa(%ebp)
  2013c2:	0f b6 45 f6          	movzbl -0xa(%ebp),%eax
  2013c6:	3a 45 f7             	cmp    -0x9(%ebp),%al
  2013c9:	72 bb                	jb     201386 <print_hex_f+0x10a>
  2013cb:	c6 45 f5 00          	movb   $0x0,-0xb(%ebp)
  2013cf:	eb 62                	jmp    201433 <print_hex_f+0x1b7>
  2013d1:	0f b6 45 f5          	movzbl -0xb(%ebp),%eax
  2013d5:	8b 55 e8             	mov    -0x18(%ebp),%edx
  2013d8:	0f b6 04 02          	movzbl (%edx,%eax,1),%eax
  2013dc:	88 45 e2             	mov    %al,-0x1e(%ebp)
  2013df:	0f be 45 e2          	movsbl -0x1e(%ebp),%eax
  2013e3:	83 ec 0c             	sub    $0xc,%esp
  2013e6:	50                   	push   %eax
  2013e7:	e8 d0 04 00 00       	call   2018bc <terminal_putchar>
  2013ec:	83 c4 10             	add    $0x10,%esp
  2013ef:	0f b6 45 f3          	movzbl -0xd(%ebp),%eax
  2013f3:	2a 45 f5             	sub    -0xb(%ebp),%al
  2013f6:	88 45 e1             	mov    %al,-0x1f(%ebp)
  2013f9:	0f b6 45 f7          	movzbl -0x9(%ebp),%eax
  2013fd:	28 45 e1             	sub    %al,-0x1f(%ebp)
  201400:	0f b6 45 e1          	movzbl -0x1f(%ebp),%eax
  201404:	83 e8 01             	sub    $0x1,%eax
  201407:	83 e0 03             	and    $0x3,%eax
  20140a:	85 c0                	test   %eax,%eax
  20140c:	75 1b                	jne    201429 <print_hex_f+0x1ad>
  20140e:	0f b6 55 f5          	movzbl -0xb(%ebp),%edx
  201412:	8b 45 e4             	mov    -0x1c(%ebp),%eax
  201415:	83 e8 01             	sub    $0x1,%eax
  201418:	39 c2                	cmp    %eax,%edx
  20141a:	74 0d                	je     201429 <print_hex_f+0x1ad>
  20141c:	83 ec 0c             	sub    $0xc,%esp
  20141f:	6a 20                	push   $0x20
  201421:	e8 96 04 00 00       	call   2018bc <terminal_putchar>
  201426:	83 c4 10             	add    $0x10,%esp
  201429:	0f b6 45 f5          	movzbl -0xb(%ebp),%eax
  20142d:	83 c0 01             	add    $0x1,%eax
  201430:	88 45 f5             	mov    %al,-0xb(%ebp)
  201433:	0f b6 45 f5          	movzbl -0xb(%ebp),%eax
  201437:	3b 45 e4             	cmp    -0x1c(%ebp),%eax
  20143a:	72 95                	jb     2013d1 <print_hex_f+0x155>
  20143c:	89 dc                	mov    %ebx,%esp
  20143e:	90                   	nop
  20143f:	8b 5d fc             	mov    -0x4(%ebp),%ebx
  201442:	c9                   	leave
  201443:	c3                   	ret

00201444 <__outb>:
  201444:	55                   	push   %ebp
  201445:	89 e5                	mov    %esp,%ebp
  201447:	83 ec 08             	sub    $0x8,%esp
  20144a:	8b 55 08             	mov    0x8(%ebp),%edx
  20144d:	8b 45 0c             	mov    0xc(%ebp),%eax
  201450:	66 89 55 fc          	mov    %dx,-0x4(%ebp)
  201454:	88 45 f8             	mov    %al,-0x8(%ebp)
  201457:	0f b6 45 f8          	movzbl -0x8(%ebp),%eax
  20145b:	0f b7 55 fc          	movzwl -0x4(%ebp),%edx
  20145f:	ee                   	out    %al,(%dx)
  201460:	90                   	nop
  201461:	c9                   	leave
  201462:	c3                   	ret

00201463 <__inb>:
  201463:	55                   	push   %ebp
  201464:	89 e5                	mov    %esp,%ebp
  201466:	83 ec 14             	sub    $0x14,%esp
  201469:	8b 45 08             	mov    0x8(%ebp),%eax
  20146c:	66 89 45 ec          	mov    %ax,-0x14(%ebp)
  201470:	0f b7 45 ec          	movzwl -0x14(%ebp),%eax
  201474:	89 c2                	mov    %eax,%edx
  201476:	ec                   	in     (%dx),%al
  201477:	88 45 ff             	mov    %al,-0x1(%ebp)
  20147a:	0f b6 45 ff          	movzbl -0x1(%ebp),%eax
  20147e:	c9                   	leave
  20147f:	c3                   	ret

00201480 <vga_entry_color>:
  201480:	55                   	push   %ebp
  201481:	89 e5                	mov    %esp,%ebp
  201483:	8b 45 0c             	mov    0xc(%ebp),%eax
  201486:	c1 e0 04             	shl    $0x4,%eax
  201489:	89 c2                	mov    %eax,%edx
  20148b:	8b 45 08             	mov    0x8(%ebp),%eax
  20148e:	09 d0                	or     %edx,%eax
  201490:	5d                   	pop    %ebp
  201491:	c3                   	ret

00201492 <vga_entry>:
  201492:	55                   	push   %ebp
  201493:	89 e5                	mov    %esp,%ebp
  201495:	83 ec 08             	sub    $0x8,%esp
  201498:	8b 55 08             	mov    0x8(%ebp),%edx
  20149b:	8b 45 0c             	mov    0xc(%ebp),%eax
  20149e:	88 55 fc             	mov    %dl,-0x4(%ebp)
  2014a1:	88 45 f8             	mov    %al,-0x8(%ebp)
  2014a4:	0f b6 45 f8          	movzbl -0x8(%ebp),%eax
  2014a8:	c1 e0 08             	shl    $0x8,%eax
  2014ab:	89 c2                	mov    %eax,%edx
  2014ad:	0f b6 45 fc          	movzbl -0x4(%ebp),%eax
  2014b1:	09 d0                	or     %edx,%eax
  2014b3:	c9                   	leave
  2014b4:	c3                   	ret

002014b5 <set_vga_element>:
  2014b5:	55                   	push   %ebp
  2014b6:	89 e5                	mov    %esp,%ebp
  2014b8:	53                   	push   %ebx
  2014b9:	83 ec 0c             	sub    $0xc,%esp
  2014bc:	8b 4d 08             	mov    0x8(%ebp),%ecx
  2014bf:	8b 55 0c             	mov    0xc(%ebp),%edx
  2014c2:	8b 45 10             	mov    0x10(%ebp),%eax
  2014c5:	88 4d f8             	mov    %cl,-0x8(%ebp)
  2014c8:	88 55 f4             	mov    %dl,-0xc(%ebp)
  2014cb:	66 89 45 f0          	mov    %ax,-0x10(%ebp)
  2014cf:	8b 0d 10 c0 20 00    	mov    0x20c010,%ecx
  2014d5:	0f b6 55 f4          	movzbl -0xc(%ebp),%edx
  2014d9:	0f b6 5d f8          	movzbl -0x8(%ebp),%ebx
  2014dd:	89 d0                	mov    %edx,%eax
  2014df:	c1 e0 02             	shl    $0x2,%eax
  2014e2:	01 d0                	add    %edx,%eax
  2014e4:	c1 e0 04             	shl    $0x4,%eax
  2014e7:	8d 14 18             	lea    (%eax,%ebx,1),%edx
  2014ea:	0f b7 45 f0          	movzwl -0x10(%ebp),%eax
  2014ee:	66 89 04 51          	mov    %ax,(%ecx,%edx,2)
  2014f2:	90                   	nop
  2014f3:	8b 5d fc             	mov    -0x4(%ebp),%ebx
  2014f6:	c9                   	leave
  2014f7:	c3                   	ret

002014f8 <clear_visible_terminal>:
  2014f8:	55                   	push   %ebp
  2014f9:	89 e5                	mov    %esp,%ebp
  2014fb:	83 ec 10             	sub    $0x10,%esp
  2014fe:	c7 45 fc 00 00 00 00 	movl   $0x0,-0x4(%ebp)
  201505:	eb 5d                	jmp    201564 <clear_visible_terminal+0x6c>
  201507:	c7 45 f8 00 00 00 00 	movl   $0x0,-0x8(%ebp)
  20150e:	eb 4a                	jmp    20155a <clear_visible_terminal+0x62>
  201510:	8b 55 fc             	mov    -0x4(%ebp),%edx
  201513:	89 d0                	mov    %edx,%eax
  201515:	c1 e0 02             	shl    $0x2,%eax
  201518:	01 d0                	add    %edx,%eax
  20151a:	c1 e0 04             	shl    $0x4,%eax
  20151d:	89 c2                	mov    %eax,%edx
  20151f:	8b 45 f8             	mov    -0x8(%ebp),%eax
  201522:	01 d0                	add    %edx,%eax
  201524:	89 45 f4             	mov    %eax,-0xc(%ebp)
  201527:	0f b6 05 0c c0 20 00 	movzbl 0x20c00c,%eax
  20152e:	0f b6 c0             	movzbl %al,%eax
  201531:	50                   	push   %eax
  201532:	6a 20                	push   $0x20
  201534:	e8 47 ff ff ff       	call   201480 <vga_entry_color>
  201539:	83 c4 08             	add    $0x8,%esp
  20153c:	0f b6 c8             	movzbl %al,%ecx
  20153f:	8b 45 fc             	mov    -0x4(%ebp),%eax
  201542:	0f b6 d0             	movzbl %al,%edx
  201545:	8b 45 f8             	mov    -0x8(%ebp),%eax
  201548:	0f b6 c0             	movzbl %al,%eax
  20154b:	51                   	push   %ecx
  20154c:	52                   	push   %edx
  20154d:	50                   	push   %eax
  20154e:	e8 62 ff ff ff       	call   2014b5 <set_vga_element>
  201553:	83 c4 0c             	add    $0xc,%esp
  201556:	83 45 f8 01          	addl   $0x1,-0x8(%ebp)
  20155a:	83 7d f8 4f          	cmpl   $0x4f,-0x8(%ebp)
  20155e:	76 b0                	jbe    201510 <clear_visible_terminal+0x18>
  201560:	83 45 fc 01          	addl   $0x1,-0x4(%ebp)
  201564:	83 7d fc 18          	cmpl   $0x18,-0x4(%ebp)
  201568:	76 9d                	jbe    201507 <clear_visible_terminal+0xf>
  20156a:	90                   	nop
  20156b:	90                   	nop
  20156c:	c9                   	leave
  20156d:	c3                   	ret

0020156e <initialize_terminal>:
  20156e:	55                   	push   %ebp
  20156f:	89 e5                	mov    %esp,%ebp
  201571:	83 ec 10             	sub    $0x10,%esp
  201574:	c7 05 00 c0 20 00 00 	movl   $0x0,0x20c000
  20157b:	00 00 00 
  20157e:	c7 05 04 c0 20 00 00 	movl   $0x0,0x20c004
  201585:	00 00 00 
  201588:	6a 00                	push   $0x0
  20158a:	6a 07                	push   $0x7
  20158c:	e8 ef fe ff ff       	call   201480 <vga_entry_color>
  201591:	83 c4 08             	add    $0x8,%esp
  201594:	a2 0c c0 20 00       	mov    %al,0x20c00c
  201599:	c7 05 10 c0 20 00 00 	movl   $0xb8000,0x20c010
  2015a0:	80 0b 00 
  2015a3:	e8 50 ff ff ff       	call   2014f8 <clear_visible_terminal>
  2015a8:	c7 05 08 c0 20 00 00 	movl   $0x0,0x20c008
  2015af:	00 00 00 
  2015b2:	c7 45 fc 00 00 00 00 	movl   $0x0,-0x4(%ebp)
  2015b9:	eb 62                	jmp    20161d <initialize_terminal+0xaf>
  2015bb:	c7 45 f8 00 00 00 00 	movl   $0x0,-0x8(%ebp)
  2015c2:	eb 4f                	jmp    201613 <initialize_terminal+0xa5>
  2015c4:	8b 55 fc             	mov    -0x4(%ebp),%edx
  2015c7:	89 d0                	mov    %edx,%eax
  2015c9:	c1 e0 02             	shl    $0x2,%eax
  2015cc:	01 d0                	add    %edx,%eax
  2015ce:	c1 e0 04             	shl    $0x4,%eax
  2015d1:	89 c2                	mov    %eax,%edx
  2015d3:	8b 45 f8             	mov    -0x8(%ebp),%eax
  2015d6:	01 d0                	add    %edx,%eax
  2015d8:	89 45 f4             	mov    %eax,-0xc(%ebp)
  2015db:	0f b6 05 0c c0 20 00 	movzbl 0x20c00c,%eax
  2015e2:	0f b6 c0             	movzbl %al,%eax
  2015e5:	50                   	push   %eax
  2015e6:	6a 20                	push   $0x20
  2015e8:	e8 a5 fe ff ff       	call   201492 <vga_entry>
  2015ed:	83 c4 08             	add    $0x8,%esp
  2015f0:	89 c1                	mov    %eax,%ecx
  2015f2:	8b 55 fc             	mov    -0x4(%ebp),%edx
  2015f5:	89 d0                	mov    %edx,%eax
  2015f7:	c1 e0 02             	shl    $0x2,%eax
  2015fa:	01 d0                	add    %edx,%eax
  2015fc:	c1 e0 04             	shl    $0x4,%eax
  2015ff:	8b 55 f8             	mov    -0x8(%ebp),%edx
  201602:	01 d0                	add    %edx,%eax
  201604:	83 c0 08             	add    $0x8,%eax
  201607:	66 89 8c 00 04 c0 20 	mov    %cx,0x20c004(%eax,%eax,1)
  20160e:	00 
  20160f:	83 45 f8 01          	addl   $0x1,-0x8(%ebp)
  201613:	83 7d f8 4f          	cmpl   $0x4f,-0x8(%ebp)
  201617:	76 ab                	jbe    2015c4 <initialize_terminal+0x56>
  201619:	83 45 fc 01          	addl   $0x1,-0x4(%ebp)
  20161d:	81 7d fc e7 03 00 00 	cmpl   $0x3e7,-0x4(%ebp)
  201624:	76 95                	jbe    2015bb <initialize_terminal+0x4d>
  201626:	90                   	nop
  201627:	90                   	nop
  201628:	c9                   	leave
  201629:	c3                   	ret

0020162a <terminal_update_vga_mem>:
  20162a:	55                   	push   %ebp
  20162b:	89 e5                	mov    %esp,%ebp
  20162d:	83 ec 10             	sub    $0x10,%esp
  201630:	c7 45 fc 00 00 00 00 	movl   $0x0,-0x4(%ebp)
  201637:	eb 6d                	jmp    2016a6 <terminal_update_vga_mem+0x7c>
  201639:	c7 45 f8 00 00 00 00 	movl   $0x0,-0x8(%ebp)
  201640:	eb 5a                	jmp    20169c <terminal_update_vga_mem+0x72>
  201642:	8b 55 fc             	mov    -0x4(%ebp),%edx
  201645:	89 d0                	mov    %edx,%eax
  201647:	c1 e0 02             	shl    $0x2,%eax
  20164a:	01 d0                	add    %edx,%eax
  20164c:	c1 e0 04             	shl    $0x4,%eax
  20164f:	89 c2                	mov    %eax,%edx
  201651:	8b 45 f8             	mov    -0x8(%ebp),%eax
  201654:	01 d0                	add    %edx,%eax
  201656:	89 45 f4             	mov    %eax,-0xc(%ebp)
  201659:	8b 15 08 c0 20 00    	mov    0x20c008,%edx
  20165f:	8b 45 fc             	mov    -0x4(%ebp),%eax
  201662:	01 c2                	add    %eax,%edx
  201664:	89 d0                	mov    %edx,%eax
  201666:	c1 e0 02             	shl    $0x2,%eax
  201669:	01 d0                	add    %edx,%eax
  20166b:	c1 e0 04             	shl    $0x4,%eax
  20166e:	8b 55 f8             	mov    -0x8(%ebp),%edx
  201671:	01 d0                	add    %edx,%eax
  201673:	83 c0 08             	add    $0x8,%eax
  201676:	0f b7 84 00 04 c0 20 	movzwl 0x20c004(%eax,%eax,1),%eax
  20167d:	00 
  20167e:	0f b7 c8             	movzwl %ax,%ecx
  201681:	8b 45 fc             	mov    -0x4(%ebp),%eax
  201684:	0f b6 d0             	movzbl %al,%edx
  201687:	8b 45 f8             	mov    -0x8(%ebp),%eax
  20168a:	0f b6 c0             	movzbl %al,%eax
  20168d:	51                   	push   %ecx
  20168e:	52                   	push   %edx
  20168f:	50                   	push   %eax
  201690:	e8 20 fe ff ff       	call   2014b5 <set_vga_element>
  201695:	83 c4 0c             	add    $0xc,%esp
  201698:	83 45 f8 01          	addl   $0x1,-0x8(%ebp)
  20169c:	83 7d f8 4f          	cmpl   $0x4f,-0x8(%ebp)
  2016a0:	76 a0                	jbe    201642 <terminal_update_vga_mem+0x18>
  2016a2:	83 45 fc 01          	addl   $0x1,-0x4(%ebp)
  2016a6:	83 7d fc 18          	cmpl   $0x18,-0x4(%ebp)
  2016aa:	76 8d                	jbe    201639 <terminal_update_vga_mem+0xf>
  2016ac:	90                   	nop
  2016ad:	90                   	nop
  2016ae:	c9                   	leave
  2016af:	c3                   	ret

002016b0 <terminal_set_scroll>:
  2016b0:	55                   	push   %ebp
  2016b1:	89 e5                	mov    %esp,%ebp
  2016b3:	83 ec 10             	sub    $0x10,%esp
  2016b6:	c7 45 fc cf 03 00 00 	movl   $0x3cf,-0x4(%ebp)
  2016bd:	8b 45 08             	mov    0x8(%ebp),%eax
  2016c0:	39 45 fc             	cmp    %eax,-0x4(%ebp)
  2016c3:	73 06                	jae    2016cb <terminal_set_scroll+0x1b>
  2016c5:	8b 45 fc             	mov    -0x4(%ebp),%eax
  2016c8:	89 45 08             	mov    %eax,0x8(%ebp)
  2016cb:	8b 45 08             	mov    0x8(%ebp),%eax
  2016ce:	a3 08 c0 20 00       	mov    %eax,0x20c008
  2016d3:	e8 52 ff ff ff       	call   20162a <terminal_update_vga_mem>
  2016d8:	90                   	nop
  2016d9:	c9                   	leave
  2016da:	c3                   	ret

002016db <terminal_scroll_down>:
  2016db:	55                   	push   %ebp
  2016dc:	89 e5                	mov    %esp,%ebp
  2016de:	83 ec 10             	sub    $0x10,%esp
  2016e1:	a1 08 c0 20 00       	mov    0x20c008,%eax
  2016e6:	89 45 fc             	mov    %eax,-0x4(%ebp)
  2016e9:	8b 55 08             	mov    0x8(%ebp),%edx
  2016ec:	8b 45 fc             	mov    -0x4(%ebp),%eax
  2016ef:	01 d0                	add    %edx,%eax
  2016f1:	50                   	push   %eax
  2016f2:	e8 b9 ff ff ff       	call   2016b0 <terminal_set_scroll>
  2016f7:	83 c4 04             	add    $0x4,%esp
  2016fa:	90                   	nop
  2016fb:	c9                   	leave
  2016fc:	c3                   	ret

002016fd <terminal_setcolor>:
  2016fd:	55                   	push   %ebp
  2016fe:	89 e5                	mov    %esp,%ebp
  201700:	83 ec 04             	sub    $0x4,%esp
  201703:	8b 45 08             	mov    0x8(%ebp),%eax
  201706:	88 45 fc             	mov    %al,-0x4(%ebp)
  201709:	0f b6 45 fc          	movzbl -0x4(%ebp),%eax
  20170d:	a2 0c c0 20 00       	mov    %al,0x20c00c
  201712:	90                   	nop
  201713:	c9                   	leave
  201714:	c3                   	ret

00201715 <terminal_putentryat>:
  201715:	55                   	push   %ebp
  201716:	89 e5                	mov    %esp,%ebp
  201718:	53                   	push   %ebx
  201719:	83 ec 18             	sub    $0x18,%esp
  20171c:	8b 55 08             	mov    0x8(%ebp),%edx
  20171f:	8b 45 0c             	mov    0xc(%ebp),%eax
  201722:	88 55 e8             	mov    %dl,-0x18(%ebp)
  201725:	88 45 e4             	mov    %al,-0x1c(%ebp)
  201728:	8b 55 14             	mov    0x14(%ebp),%edx
  20172b:	89 d0                	mov    %edx,%eax
  20172d:	c1 e0 02             	shl    $0x2,%eax
  201730:	01 d0                	add    %edx,%eax
  201732:	c1 e0 04             	shl    $0x4,%eax
  201735:	89 c2                	mov    %eax,%edx
  201737:	8b 45 10             	mov    0x10(%ebp),%eax
  20173a:	01 d0                	add    %edx,%eax
  20173c:	89 45 f8             	mov    %eax,-0x8(%ebp)
  20173f:	0f b6 55 e4          	movzbl -0x1c(%ebp),%edx
  201743:	0f b6 45 e8          	movzbl -0x18(%ebp),%eax
  201747:	0f b6 c0             	movzbl %al,%eax
  20174a:	52                   	push   %edx
  20174b:	50                   	push   %eax
  20174c:	e8 41 fd ff ff       	call   201492 <vga_entry>
  201751:	83 c4 08             	add    $0x8,%esp
  201754:	89 c1                	mov    %eax,%ecx
  201756:	8b 55 14             	mov    0x14(%ebp),%edx
  201759:	89 d0                	mov    %edx,%eax
  20175b:	c1 e0 02             	shl    $0x2,%eax
  20175e:	01 d0                	add    %edx,%eax
  201760:	c1 e0 04             	shl    $0x4,%eax
  201763:	8b 55 10             	mov    0x10(%ebp),%edx
  201766:	01 d0                	add    %edx,%eax
  201768:	83 c0 08             	add    $0x8,%eax
  20176b:	66 89 8c 00 04 c0 20 	mov    %cx,0x20c004(%eax,%eax,1)
  201772:	00 
  201773:	a1 08 c0 20 00       	mov    0x20c008,%eax
  201778:	8b 55 14             	mov    0x14(%ebp),%edx
  20177b:	29 c2                	sub    %eax,%edx
  20177d:	83 fa 18             	cmp    $0x18,%edx
  201780:	77 65                	ja     2017e7 <terminal_putentryat+0xd2>
  201782:	8b 15 08 c0 20 00    	mov    0x20c008,%edx
  201788:	89 d0                	mov    %edx,%eax
  20178a:	c1 e0 02             	shl    $0x2,%eax
  20178d:	01 d0                	add    %edx,%eax
  20178f:	c1 e0 04             	shl    $0x4,%eax
  201792:	89 45 f4             	mov    %eax,-0xc(%ebp)
  201795:	a1 08 c0 20 00       	mov    0x20c008,%eax
  20179a:	8b 55 14             	mov    0x14(%ebp),%edx
  20179d:	29 c2                	sub    %eax,%edx
  20179f:	89 d0                	mov    %edx,%eax
  2017a1:	c1 e0 02             	shl    $0x2,%eax
  2017a4:	01 d0                	add    %edx,%eax
  2017a6:	c1 e0 04             	shl    $0x4,%eax
  2017a9:	8b 55 10             	mov    0x10(%ebp),%edx
  2017ac:	01 d0                	add    %edx,%eax
  2017ae:	83 c0 08             	add    $0x8,%eax
  2017b1:	0f b7 84 00 04 c0 20 	movzwl 0x20c004(%eax,%eax,1),%eax
  2017b8:	00 
  2017b9:	66 89 45 f2          	mov    %ax,-0xe(%ebp)
  2017bd:	0f b7 4d f2          	movzwl -0xe(%ebp),%ecx
  2017c1:	8b 45 14             	mov    0x14(%ebp),%eax
  2017c4:	89 c2                	mov    %eax,%edx
  2017c6:	a1 08 c0 20 00       	mov    0x20c008,%eax
  2017cb:	89 c3                	mov    %eax,%ebx
  2017cd:	89 d0                	mov    %edx,%eax
  2017cf:	29 d8                	sub    %ebx,%eax
  2017d1:	0f b6 d0             	movzbl %al,%edx
  2017d4:	8b 45 10             	mov    0x10(%ebp),%eax
  2017d7:	0f b6 c0             	movzbl %al,%eax
  2017da:	51                   	push   %ecx
  2017db:	52                   	push   %edx
  2017dc:	50                   	push   %eax
  2017dd:	e8 d3 fc ff ff       	call   2014b5 <set_vga_element>
  2017e2:	83 c4 0c             	add    $0xc,%esp
  2017e5:	eb 01                	jmp    2017e8 <terminal_putentryat+0xd3>
  2017e7:	90                   	nop
  2017e8:	8b 5d fc             	mov    -0x4(%ebp),%ebx
  2017eb:	c9                   	leave
  2017ec:	c3                   	ret

002017ed <terminal_increase_row>:
  2017ed:	55                   	push   %ebp
  2017ee:	89 e5                	mov    %esp,%ebp
  2017f0:	c7 05 04 c0 20 00 00 	movl   $0x0,0x20c004
  2017f7:	00 00 00 
  2017fa:	a1 00 c0 20 00       	mov    0x20c000,%eax
  2017ff:	83 c0 01             	add    $0x1,%eax
  201802:	a3 00 c0 20 00       	mov    %eax,0x20c000
  201807:	8b 15 00 c0 20 00    	mov    0x20c000,%edx
  20180d:	a1 08 c0 20 00       	mov    0x20c008,%eax
  201812:	29 c2                	sub    %eax,%edx
  201814:	83 fa 19             	cmp    $0x19,%edx
  201817:	76 0a                	jbe    201823 <terminal_increase_row+0x36>
  201819:	6a 01                	push   $0x1
  20181b:	e8 bb fe ff ff       	call   2016db <terminal_scroll_down>
  201820:	83 c4 04             	add    $0x4,%esp
  201823:	a1 00 c0 20 00       	mov    0x20c000,%eax
  201828:	3d e7 03 00 00       	cmp    $0x3e7,%eax
  20182d:	76 23                	jbe    201852 <terminal_increase_row+0x65>
  20182f:	c7 05 00 c0 20 00 00 	movl   $0x0,0x20c000
  201836:	00 00 00 
  201839:	c7 05 04 c0 20 00 00 	movl   $0x0,0x20c004
  201840:	00 00 00 
  201843:	6a 00                	push   $0x0
  201845:	e8 66 fe ff ff       	call   2016b0 <terminal_set_scroll>
  20184a:	83 c4 04             	add    $0x4,%esp
  20184d:	e8 a6 fc ff ff       	call   2014f8 <clear_visible_terminal>
  201852:	90                   	nop
  201853:	c9                   	leave
  201854:	c3                   	ret

00201855 <serial_write_char>:
  201855:	55                   	push   %ebp
  201856:	89 e5                	mov    %esp,%ebp
  201858:	83 ec 04             	sub    $0x4,%esp
  20185b:	8b 45 08             	mov    0x8(%ebp),%eax
  20185e:	88 45 fc             	mov    %al,-0x4(%ebp)
  201861:	90                   	nop
  201862:	68 fd 03 00 00       	push   $0x3fd
  201867:	e8 f7 fb ff ff       	call   201463 <__inb>
  20186c:	83 c4 04             	add    $0x4,%esp
  20186f:	0f b6 c0             	movzbl %al,%eax
  201872:	83 e0 20             	and    $0x20,%eax
  201875:	85 c0                	test   %eax,%eax
  201877:	74 e9                	je     201862 <serial_write_char+0xd>
  201879:	0f b6 45 fc          	movzbl -0x4(%ebp),%eax
  20187d:	0f b6 c0             	movzbl %al,%eax
  201880:	50                   	push   %eax
  201881:	68 f8 03 00 00       	push   $0x3f8
  201886:	e8 b9 fb ff ff       	call   201444 <__outb>
  20188b:	83 c4 08             	add    $0x8,%esp
  20188e:	90                   	nop
  20188f:	c9                   	leave
  201890:	c3                   	ret

00201891 <serial_write_string>:
  201891:	55                   	push   %ebp
  201892:	89 e5                	mov    %esp,%ebp
  201894:	eb 18                	jmp    2018ae <serial_write_string+0x1d>
  201896:	8b 45 08             	mov    0x8(%ebp),%eax
  201899:	8d 50 01             	lea    0x1(%eax),%edx
  20189c:	89 55 08             	mov    %edx,0x8(%ebp)
  20189f:	0f b6 00             	movzbl (%eax),%eax
  2018a2:	0f be c0             	movsbl %al,%eax
  2018a5:	50                   	push   %eax
  2018a6:	e8 aa ff ff ff       	call   201855 <serial_write_char>
  2018ab:	83 c4 04             	add    $0x4,%esp
  2018ae:	8b 45 08             	mov    0x8(%ebp),%eax
  2018b1:	0f b6 00             	movzbl (%eax),%eax
  2018b4:	84 c0                	test   %al,%al
  2018b6:	75 de                	jne    201896 <serial_write_string+0x5>
  2018b8:	90                   	nop
  2018b9:	90                   	nop
  2018ba:	c9                   	leave
  2018bb:	c3                   	ret

002018bc <terminal_putchar>:
  2018bc:	55                   	push   %ebp
  2018bd:	89 e5                	mov    %esp,%ebp
  2018bf:	53                   	push   %ebx
  2018c0:	83 ec 24             	sub    $0x24,%esp
  2018c3:	8b 45 08             	mov    0x8(%ebp),%eax
  2018c6:	88 45 e4             	mov    %al,-0x1c(%ebp)
  2018c9:	80 7d e4 00          	cmpb   $0x0,-0x1c(%ebp)
  2018cd:	0f 84 c5 00 00 00    	je     201998 <terminal_putchar+0xdc>
  2018d3:	0f be 45 e4          	movsbl -0x1c(%ebp),%eax
  2018d7:	50                   	push   %eax
  2018d8:	e8 78 ff ff ff       	call   201855 <serial_write_char>
  2018dd:	83 c4 04             	add    $0x4,%esp
  2018e0:	80 7d e4 0a          	cmpb   $0xa,-0x1c(%ebp)
  2018e4:	75 14                	jne    2018fa <terminal_putchar+0x3e>
  2018e6:	c7 05 04 c0 20 00 00 	movl   $0x0,0x20c004
  2018ed:	00 00 00 
  2018f0:	e8 f8 fe ff ff       	call   2017ed <terminal_increase_row>
  2018f5:	e9 9f 00 00 00       	jmp    201999 <terminal_putchar+0xdd>
  2018fa:	80 7d e4 09          	cmpb   $0x9,-0x1c(%ebp)
  2018fe:	75 4a                	jne    20194a <terminal_putchar+0x8e>
  201900:	c6 45 f7 04          	movb   $0x4,-0x9(%ebp)
  201904:	a1 04 c0 20 00       	mov    0x20c004,%eax
  201909:	89 c2                	mov    %eax,%edx
  20190b:	b8 50 00 00 00       	mov    $0x50,%eax
  201910:	29 d0                	sub    %edx,%eax
  201912:	88 45 f5             	mov    %al,-0xb(%ebp)
  201915:	80 7d f5 03          	cmpb   $0x3,-0xb(%ebp)
  201919:	77 07                	ja     201922 <terminal_putchar+0x66>
  20191b:	0f b6 45 f5          	movzbl -0xb(%ebp),%eax
  20191f:	88 45 f7             	mov    %al,-0x9(%ebp)
  201922:	c6 45 f6 00          	movb   $0x0,-0xa(%ebp)
  201926:	eb 17                	jmp    20193f <terminal_putchar+0x83>
  201928:	83 ec 0c             	sub    $0xc,%esp
  20192b:	6a 20                	push   $0x20
  20192d:	e8 8a ff ff ff       	call   2018bc <terminal_putchar>
  201932:	83 c4 10             	add    $0x10,%esp
  201935:	0f b6 45 f6          	movzbl -0xa(%ebp),%eax
  201939:	83 c0 01             	add    $0x1,%eax
  20193c:	88 45 f6             	mov    %al,-0xa(%ebp)
  20193f:	0f b6 45 f6          	movzbl -0xa(%ebp),%eax
  201943:	3a 45 f7             	cmp    -0x9(%ebp),%al
  201946:	72 e0                	jb     201928 <terminal_putchar+0x6c>
  201948:	eb 4f                	jmp    201999 <terminal_putchar+0xdd>
  20194a:	8b 1d 00 c0 20 00    	mov    0x20c000,%ebx
  201950:	8b 0d 04 c0 20 00    	mov    0x20c004,%ecx
  201956:	0f b6 05 0c c0 20 00 	movzbl 0x20c00c,%eax
  20195d:	0f b6 d0             	movzbl %al,%edx
  201960:	0f be 45 e4          	movsbl -0x1c(%ebp),%eax
  201964:	53                   	push   %ebx
  201965:	51                   	push   %ecx
  201966:	52                   	push   %edx
  201967:	50                   	push   %eax
  201968:	e8 a8 fd ff ff       	call   201715 <terminal_putentryat>
  20196d:	83 c4 10             	add    $0x10,%esp
  201970:	a1 04 c0 20 00       	mov    0x20c004,%eax
  201975:	83 c0 01             	add    $0x1,%eax
  201978:	a3 04 c0 20 00       	mov    %eax,0x20c004
  20197d:	a1 04 c0 20 00       	mov    0x20c004,%eax
  201982:	83 f8 50             	cmp    $0x50,%eax
  201985:	75 12                	jne    201999 <terminal_putchar+0xdd>
  201987:	c7 05 04 c0 20 00 00 	movl   $0x0,0x20c004
  20198e:	00 00 00 
  201991:	e8 57 fe ff ff       	call   2017ed <terminal_increase_row>
  201996:	eb 01                	jmp    201999 <terminal_putchar+0xdd>
  201998:	90                   	nop
  201999:	8b 5d fc             	mov    -0x4(%ebp),%ebx
  20199c:	c9                   	leave
  20199d:	c3                   	ret

0020199e <terminal_write>:
  20199e:	55                   	push   %ebp
  20199f:	89 e5                	mov    %esp,%ebp
  2019a1:	83 ec 18             	sub    $0x18,%esp
  2019a4:	c7 45 f4 00 00 00 00 	movl   $0x0,-0xc(%ebp)
  2019ab:	eb 1e                	jmp    2019cb <terminal_write+0x2d>
  2019ad:	8b 55 08             	mov    0x8(%ebp),%edx
  2019b0:	8b 45 f4             	mov    -0xc(%ebp),%eax
  2019b3:	01 d0                	add    %edx,%eax
  2019b5:	0f b6 00             	movzbl (%eax),%eax
  2019b8:	0f be c0             	movsbl %al,%eax
  2019bb:	83 ec 0c             	sub    $0xc,%esp
  2019be:	50                   	push   %eax
  2019bf:	e8 f8 fe ff ff       	call   2018bc <terminal_putchar>
  2019c4:	83 c4 10             	add    $0x10,%esp
  2019c7:	83 45 f4 01          	addl   $0x1,-0xc(%ebp)
  2019cb:	8b 45 f4             	mov    -0xc(%ebp),%eax
  2019ce:	3b 45 0c             	cmp    0xc(%ebp),%eax
  2019d1:	72 da                	jb     2019ad <terminal_write+0xf>
  2019d3:	90                   	nop
  2019d4:	90                   	nop
  2019d5:	c9                   	leave
  2019d6:	c3                   	ret

002019d7 <terminal_writestring>:
  2019d7:	55                   	push   %ebp
  2019d8:	89 e5                	mov    %esp,%ebp
  2019da:	83 ec 08             	sub    $0x8,%esp
  2019dd:	83 ec 0c             	sub    $0xc,%esp
  2019e0:	ff 75 08             	push   0x8(%ebp)
  2019e3:	e8 fb ee ff ff       	call   2008e3 <strlen>
  2019e8:	83 c4 10             	add    $0x10,%esp
  2019eb:	83 ec 08             	sub    $0x8,%esp
  2019ee:	50                   	push   %eax
  2019ef:	ff 75 08             	push   0x8(%ebp)
  2019f2:	e8 a7 ff ff ff       	call   20199e <terminal_write>
  2019f7:	83 c4 10             	add    $0x10,%esp
  2019fa:	90                   	nop
  2019fb:	c9                   	leave
  2019fc:	c3                   	ret

002019fd <print_array_terminal>:
  2019fd:	55                   	push   %ebp
  2019fe:	89 e5                	mov    %esp,%ebp
  201a00:	83 ec 18             	sub    $0x18,%esp
  201a03:	83 ec 0c             	sub    $0xc,%esp
  201a06:	68 08 61 20 00       	push   $0x206108
  201a0b:	e8 c7 ff ff ff       	call   2019d7 <terminal_writestring>
  201a10:	83 c4 10             	add    $0x10,%esp
  201a13:	c7 45 f4 00 00 00 00 	movl   $0x0,-0xc(%ebp)
  201a1a:	e9 9a 00 00 00       	jmp    201ab9 <print_array_terminal+0xbc>
  201a1f:	8b 45 f4             	mov    -0xc(%ebp),%eax
  201a22:	8d 14 85 00 00 00 00 	lea    0x0(,%eax,4),%edx
  201a29:	8b 45 08             	mov    0x8(%ebp),%eax
  201a2c:	01 d0                	add    %edx,%eax
  201a2e:	8b 00                	mov    (%eax),%eax
  201a30:	83 ec 08             	sub    $0x8,%esp
  201a33:	8d 55 e8             	lea    -0x18(%ebp),%edx
  201a36:	52                   	push   %edx
  201a37:	50                   	push   %eax
  201a38:	e8 cd ee ff ff       	call   20090a <itoa>
  201a3d:	83 c4 10             	add    $0x10,%esp
  201a40:	83 ec 0c             	sub    $0xc,%esp
  201a43:	8d 45 e8             	lea    -0x18(%ebp),%eax
  201a46:	50                   	push   %eax
  201a47:	e8 8b ff ff ff       	call   2019d7 <terminal_writestring>
  201a4c:	83 c4 10             	add    $0x10,%esp
  201a4f:	8b 45 0c             	mov    0xc(%ebp),%eax
  201a52:	83 e8 01             	sub    $0x1,%eax
  201a55:	39 45 f4             	cmp    %eax,-0xc(%ebp)
  201a58:	74 10                	je     201a6a <print_array_terminal+0x6d>
  201a5a:	83 ec 0c             	sub    $0xc,%esp
  201a5d:	68 0a 61 20 00       	push   $0x20610a
  201a62:	e8 70 ff ff ff       	call   2019d7 <terminal_writestring>
  201a67:	83 c4 10             	add    $0x10,%esp
  201a6a:	8b 45 f4             	mov    -0xc(%ebp),%eax
  201a6d:	8d 48 01             	lea    0x1(%eax),%ecx
  201a70:	ba cd cc cc cc       	mov    $0xcccccccd,%edx
  201a75:	89 c8                	mov    %ecx,%eax
  201a77:	f7 e2                	mul    %edx
  201a79:	c1 ea 03             	shr    $0x3,%edx
  201a7c:	89 d0                	mov    %edx,%eax
  201a7e:	c1 e0 02             	shl    $0x2,%eax
  201a81:	01 d0                	add    %edx,%eax
  201a83:	01 c0                	add    %eax,%eax
  201a85:	29 c1                	sub    %eax,%ecx
  201a87:	89 ca                	mov    %ecx,%edx
  201a89:	85 d2                	test   %edx,%edx
  201a8b:	75 28                	jne    201ab5 <print_array_terminal+0xb8>
  201a8d:	83 ec 0c             	sub    $0xc,%esp
  201a90:	68 0d 61 20 00       	push   $0x20610d
  201a95:	e8 3d ff ff ff       	call   2019d7 <terminal_writestring>
  201a9a:	83 c4 10             	add    $0x10,%esp
  201a9d:	83 ec 0c             	sub    $0xc,%esp
  201aa0:	d9 05 1c 61 20 00    	flds   0x20611c
  201aa6:	8d 64 24 fc          	lea    -0x4(%esp),%esp
  201aaa:	d9 1c 24             	fstps  (%esp)
  201aad:	e8 f6 22 00 00       	call   203da8 <wait>
  201ab2:	83 c4 10             	add    $0x10,%esp
  201ab5:	83 45 f4 01          	addl   $0x1,-0xc(%ebp)
  201ab9:	8b 45 f4             	mov    -0xc(%ebp),%eax
  201abc:	3b 45 0c             	cmp    0xc(%ebp),%eax
  201abf:	0f 82 5a ff ff ff    	jb     201a1f <print_array_terminal+0x22>
  201ac5:	83 ec 0c             	sub    $0xc,%esp
  201ac8:	68 0f 61 20 00       	push   $0x20610f
  201acd:	e8 05 ff ff ff       	call   2019d7 <terminal_writestring>
  201ad2:	83 c4 10             	add    $0x10,%esp
  201ad5:	90                   	nop
  201ad6:	c9                   	leave
  201ad7:	c3                   	ret

00201ad8 <terminal_write_uint16_array>:
  201ad8:	55                   	push   %ebp
  201ad9:	89 e5                	mov    %esp,%ebp
  201adb:	83 ec 18             	sub    $0x18,%esp
  201ade:	83 ec 0c             	sub    $0xc,%esp
  201ae1:	ff 75 0c             	push   0xc(%ebp)
  201ae4:	e8 ee fe ff ff       	call   2019d7 <terminal_writestring>
  201ae9:	83 c4 10             	add    $0x10,%esp
  201aec:	83 ec 0c             	sub    $0xc,%esp
  201aef:	68 12 61 20 00       	push   $0x206112
  201af4:	e8 de fe ff ff       	call   2019d7 <terminal_writestring>
  201af9:	83 c4 10             	add    $0x10,%esp
  201afc:	c7 45 f4 00 00 00 00 	movl   $0x0,-0xc(%ebp)
  201b03:	e9 9a 00 00 00       	jmp    201ba2 <terminal_write_uint16_array+0xca>
  201b08:	8b 45 f4             	mov    -0xc(%ebp),%eax
  201b0b:	8d 14 00             	lea    (%eax,%eax,1),%edx
  201b0e:	8b 45 08             	mov    0x8(%ebp),%eax
  201b11:	01 d0                	add    %edx,%eax
  201b13:	0f b7 00             	movzwl (%eax),%eax
  201b16:	0f b7 c0             	movzwl %ax,%eax
  201b19:	83 ec 08             	sub    $0x8,%esp
  201b1c:	8d 55 e8             	lea    -0x18(%ebp),%edx
  201b1f:	52                   	push   %edx
  201b20:	50                   	push   %eax
  201b21:	e8 e4 ed ff ff       	call   20090a <itoa>
  201b26:	83 c4 10             	add    $0x10,%esp
  201b29:	83 ec 0c             	sub    $0xc,%esp
  201b2c:	8d 45 e8             	lea    -0x18(%ebp),%eax
  201b2f:	50                   	push   %eax
  201b30:	e8 a2 fe ff ff       	call   2019d7 <terminal_writestring>
  201b35:	83 c4 10             	add    $0x10,%esp
  201b38:	8b 45 10             	mov    0x10(%ebp),%eax
  201b3b:	83 e8 01             	sub    $0x1,%eax
  201b3e:	39 45 f4             	cmp    %eax,-0xc(%ebp)
  201b41:	74 10                	je     201b53 <terminal_write_uint16_array+0x7b>
  201b43:	83 ec 0c             	sub    $0xc,%esp
  201b46:	68 0a 61 20 00       	push   $0x20610a
  201b4b:	e8 87 fe ff ff       	call   2019d7 <terminal_writestring>
  201b50:	83 c4 10             	add    $0x10,%esp
  201b53:	8b 45 f4             	mov    -0xc(%ebp),%eax
  201b56:	8d 48 01             	lea    0x1(%eax),%ecx
  201b59:	ba cd cc cc cc       	mov    $0xcccccccd,%edx
  201b5e:	89 c8                	mov    %ecx,%eax
  201b60:	f7 e2                	mul    %edx
  201b62:	c1 ea 03             	shr    $0x3,%edx
  201b65:	89 d0                	mov    %edx,%eax
  201b67:	c1 e0 02             	shl    $0x2,%eax
  201b6a:	01 d0                	add    %edx,%eax
  201b6c:	01 c0                	add    %eax,%eax
  201b6e:	29 c1                	sub    %eax,%ecx
  201b70:	89 ca                	mov    %ecx,%edx
  201b72:	85 d2                	test   %edx,%edx
  201b74:	75 28                	jne    201b9e <terminal_write_uint16_array+0xc6>
  201b76:	83 ec 0c             	sub    $0xc,%esp
  201b79:	68 0d 61 20 00       	push   $0x20610d
  201b7e:	e8 54 fe ff ff       	call   2019d7 <terminal_writestring>
  201b83:	83 c4 10             	add    $0x10,%esp
  201b86:	83 ec 0c             	sub    $0xc,%esp
  201b89:	d9 05 1c 61 20 00    	flds   0x20611c
  201b8f:	8d 64 24 fc          	lea    -0x4(%esp),%esp
  201b93:	d9 1c 24             	fstps  (%esp)
  201b96:	e8 0d 22 00 00       	call   203da8 <wait>
  201b9b:	83 c4 10             	add    $0x10,%esp
  201b9e:	83 45 f4 01          	addl   $0x1,-0xc(%ebp)
  201ba2:	8b 45 f4             	mov    -0xc(%ebp),%eax
  201ba5:	3b 45 10             	cmp    0x10(%ebp),%eax
  201ba8:	0f 82 5a ff ff ff    	jb     201b08 <terminal_write_uint16_array+0x30>
  201bae:	83 ec 0c             	sub    $0xc,%esp
  201bb1:	68 0f 61 20 00       	push   $0x20610f
  201bb6:	e8 1c fe ff ff       	call   2019d7 <terminal_writestring>
  201bbb:	83 c4 10             	add    $0x10,%esp
  201bbe:	90                   	nop
  201bbf:	c9                   	leave
  201bc0:	c3                   	ret

00201bc1 <terminal_write_uint16_array_newlines>:
  201bc1:	55                   	push   %ebp
  201bc2:	89 e5                	mov    %esp,%ebp
  201bc4:	83 ec 18             	sub    $0x18,%esp
  201bc7:	c7 45 f4 00 00 00 00 	movl   $0x0,-0xc(%ebp)
  201bce:	eb 47                	jmp    201c17 <terminal_write_uint16_array_newlines+0x56>
  201bd0:	83 ec 0c             	sub    $0xc,%esp
  201bd3:	ff 75 0c             	push   0xc(%ebp)
  201bd6:	e8 fc fd ff ff       	call   2019d7 <terminal_writestring>
  201bdb:	83 c4 10             	add    $0x10,%esp
  201bde:	83 ec 08             	sub    $0x8,%esp
  201be1:	ff 75 f4             	push   -0xc(%ebp)
  201be4:	68 08 61 20 00       	push   $0x206108
  201be9:	e8 d0 03 00 00       	call   201fbe <terminal_write_uint_no_newline>
  201bee:	83 c4 10             	add    $0x10,%esp
  201bf1:	8b 45 f4             	mov    -0xc(%ebp),%eax
  201bf4:	8d 14 00             	lea    (%eax,%eax,1),%edx
  201bf7:	8b 45 08             	mov    0x8(%ebp),%eax
  201bfa:	01 d0                	add    %edx,%eax
  201bfc:	0f b7 00             	movzwl (%eax),%eax
  201bff:	0f b7 c0             	movzwl %ax,%eax
  201c02:	83 ec 08             	sub    $0x8,%esp
  201c05:	50                   	push   %eax
  201c06:	68 17 61 20 00       	push   $0x206117
  201c0b:	e8 89 03 00 00       	call   201f99 <terminal_write_uint>
  201c10:	83 c4 10             	add    $0x10,%esp
  201c13:	83 45 f4 01          	addl   $0x1,-0xc(%ebp)
  201c17:	8b 45 f4             	mov    -0xc(%ebp),%eax
  201c1a:	3b 45 10             	cmp    0x10(%ebp),%eax
  201c1d:	72 b1                	jb     201bd0 <terminal_write_uint16_array_newlines+0xf>
  201c1f:	90                   	nop
  201c20:	90                   	nop
  201c21:	c9                   	leave
  201c22:	c3                   	ret

00201c23 <print_int_var>:
  201c23:	55                   	push   %ebp
  201c24:	89 e5                	mov    %esp,%ebp
  201c26:	83 ec 18             	sub    $0x18,%esp
  201c29:	83 ec 08             	sub    $0x8,%esp
  201c2c:	8d 45 e8             	lea    -0x18(%ebp),%eax
  201c2f:	50                   	push   %eax
  201c30:	ff 75 08             	push   0x8(%ebp)
  201c33:	e8 d2 ec ff ff       	call   20090a <itoa>
  201c38:	83 c4 10             	add    $0x10,%esp
  201c3b:	89 45 f4             	mov    %eax,-0xc(%ebp)
  201c3e:	8d 55 e8             	lea    -0x18(%ebp),%edx
  201c41:	8b 45 f4             	mov    -0xc(%ebp),%eax
  201c44:	01 d0                	add    %edx,%eax
  201c46:	c6 00 0a             	movb   $0xa,(%eax)
  201c49:	8b 45 f4             	mov    -0xc(%ebp),%eax
  201c4c:	83 c0 01             	add    $0x1,%eax
  201c4f:	c6 44 05 e8 00       	movb   $0x0,-0x18(%ebp,%eax,1)
  201c54:	83 ec 0c             	sub    $0xc,%esp
  201c57:	8d 45 e8             	lea    -0x18(%ebp),%eax
  201c5a:	50                   	push   %eax
  201c5b:	e8 77 fd ff ff       	call   2019d7 <terminal_writestring>
  201c60:	83 c4 10             	add    $0x10,%esp
  201c63:	90                   	nop
  201c64:	c9                   	leave
  201c65:	c3                   	ret

00201c66 <print_int_var_no_newline>:
  201c66:	55                   	push   %ebp
  201c67:	89 e5                	mov    %esp,%ebp
  201c69:	83 ec 18             	sub    $0x18,%esp
  201c6c:	83 ec 08             	sub    $0x8,%esp
  201c6f:	8d 45 e8             	lea    -0x18(%ebp),%eax
  201c72:	50                   	push   %eax
  201c73:	ff 75 08             	push   0x8(%ebp)
  201c76:	e8 8f ec ff ff       	call   20090a <itoa>
  201c7b:	83 c4 10             	add    $0x10,%esp
  201c7e:	89 45 f4             	mov    %eax,-0xc(%ebp)
  201c81:	8d 55 e8             	lea    -0x18(%ebp),%edx
  201c84:	8b 45 f4             	mov    -0xc(%ebp),%eax
  201c87:	01 d0                	add    %edx,%eax
  201c89:	c6 00 00             	movb   $0x0,(%eax)
  201c8c:	83 ec 0c             	sub    $0xc,%esp
  201c8f:	8d 45 e8             	lea    -0x18(%ebp),%eax
  201c92:	50                   	push   %eax
  201c93:	e8 3f fd ff ff       	call   2019d7 <terminal_writestring>
  201c98:	83 c4 10             	add    $0x10,%esp
  201c9b:	90                   	nop
  201c9c:	c9                   	leave
  201c9d:	c3                   	ret

00201c9e <print_hex_var>:
  201c9e:	55                   	push   %ebp
  201c9f:	89 e5                	mov    %esp,%ebp
  201ca1:	83 ec 18             	sub    $0x18,%esp
  201ca4:	83 ec 04             	sub    $0x4,%esp
  201ca7:	6a 01                	push   $0x1
  201ca9:	8d 45 e8             	lea    -0x18(%ebp),%eax
  201cac:	50                   	push   %eax
  201cad:	ff 75 08             	push   0x8(%ebp)
  201cb0:	e8 5e f0 ff ff       	call   200d13 <uint_to_hex>
  201cb5:	83 c4 10             	add    $0x10,%esp
  201cb8:	89 45 f4             	mov    %eax,-0xc(%ebp)
  201cbb:	8d 55 e8             	lea    -0x18(%ebp),%edx
  201cbe:	8b 45 f4             	mov    -0xc(%ebp),%eax
  201cc1:	01 d0                	add    %edx,%eax
  201cc3:	c6 00 0a             	movb   $0xa,(%eax)
  201cc6:	8b 45 f4             	mov    -0xc(%ebp),%eax
  201cc9:	83 c0 01             	add    $0x1,%eax
  201ccc:	c6 44 05 e8 00       	movb   $0x0,-0x18(%ebp,%eax,1)
  201cd1:	83 ec 0c             	sub    $0xc,%esp
  201cd4:	8d 45 e8             	lea    -0x18(%ebp),%eax
  201cd7:	50                   	push   %eax
  201cd8:	e8 fa fc ff ff       	call   2019d7 <terminal_writestring>
  201cdd:	83 c4 10             	add    $0x10,%esp
  201ce0:	90                   	nop
  201ce1:	c9                   	leave
  201ce2:	c3                   	ret

00201ce3 <print_hex_var_no_newline>:
  201ce3:	55                   	push   %ebp
  201ce4:	89 e5                	mov    %esp,%ebp
  201ce6:	83 ec 18             	sub    $0x18,%esp
  201ce9:	83 ec 04             	sub    $0x4,%esp
  201cec:	6a 01                	push   $0x1
  201cee:	8d 45 e8             	lea    -0x18(%ebp),%eax
  201cf1:	50                   	push   %eax
  201cf2:	ff 75 08             	push   0x8(%ebp)
  201cf5:	e8 19 f0 ff ff       	call   200d13 <uint_to_hex>
  201cfa:	83 c4 10             	add    $0x10,%esp
  201cfd:	89 45 f4             	mov    %eax,-0xc(%ebp)
  201d00:	8d 55 e8             	lea    -0x18(%ebp),%edx
  201d03:	8b 45 f4             	mov    -0xc(%ebp),%eax
  201d06:	01 d0                	add    %edx,%eax
  201d08:	c6 00 00             	movb   $0x0,(%eax)
  201d0b:	83 ec 0c             	sub    $0xc,%esp
  201d0e:	8d 45 e8             	lea    -0x18(%ebp),%eax
  201d11:	50                   	push   %eax
  201d12:	e8 c0 fc ff ff       	call   2019d7 <terminal_writestring>
  201d17:	83 c4 10             	add    $0x10,%esp
  201d1a:	90                   	nop
  201d1b:	c9                   	leave
  201d1c:	c3                   	ret

00201d1d <print_hex_ptr>:
  201d1d:	55                   	push   %ebp
  201d1e:	89 e5                	mov    %esp,%ebp
  201d20:	83 ec 18             	sub    $0x18,%esp
  201d23:	83 ec 04             	sub    $0x4,%esp
  201d26:	6a 01                	push   $0x1
  201d28:	8d 45 e8             	lea    -0x18(%ebp),%eax
  201d2b:	50                   	push   %eax
  201d2c:	ff 75 08             	push   0x8(%ebp)
  201d2f:	e8 b8 f0 ff ff       	call   200dec <ptr_to_hex>
  201d34:	83 c4 10             	add    $0x10,%esp
  201d37:	89 45 f4             	mov    %eax,-0xc(%ebp)
  201d3a:	8d 55 e8             	lea    -0x18(%ebp),%edx
  201d3d:	8b 45 f4             	mov    -0xc(%ebp),%eax
  201d40:	01 d0                	add    %edx,%eax
  201d42:	c6 00 0a             	movb   $0xa,(%eax)
  201d45:	8b 45 f4             	mov    -0xc(%ebp),%eax
  201d48:	83 c0 01             	add    $0x1,%eax
  201d4b:	c6 44 05 e8 00       	movb   $0x0,-0x18(%ebp,%eax,1)
  201d50:	83 ec 0c             	sub    $0xc,%esp
  201d53:	8d 45 e8             	lea    -0x18(%ebp),%eax
  201d56:	50                   	push   %eax
  201d57:	e8 7b fc ff ff       	call   2019d7 <terminal_writestring>
  201d5c:	83 c4 10             	add    $0x10,%esp
  201d5f:	90                   	nop
  201d60:	c9                   	leave
  201d61:	c3                   	ret

00201d62 <print_uint_var>:
  201d62:	55                   	push   %ebp
  201d63:	89 e5                	mov    %esp,%ebp
  201d65:	83 ec 18             	sub    $0x18,%esp
  201d68:	83 ec 08             	sub    $0x8,%esp
  201d6b:	8d 45 e8             	lea    -0x18(%ebp),%eax
  201d6e:	50                   	push   %eax
  201d6f:	ff 75 08             	push   0x8(%ebp)
  201d72:	e8 b7 ec ff ff       	call   200a2e <uitoa>
  201d77:	83 c4 10             	add    $0x10,%esp
  201d7a:	89 45 f4             	mov    %eax,-0xc(%ebp)
  201d7d:	8d 55 e8             	lea    -0x18(%ebp),%edx
  201d80:	8b 45 f4             	mov    -0xc(%ebp),%eax
  201d83:	01 d0                	add    %edx,%eax
  201d85:	c6 00 0a             	movb   $0xa,(%eax)
  201d88:	8b 45 f4             	mov    -0xc(%ebp),%eax
  201d8b:	83 c0 01             	add    $0x1,%eax
  201d8e:	c6 44 05 e8 00       	movb   $0x0,-0x18(%ebp,%eax,1)
  201d93:	83 ec 0c             	sub    $0xc,%esp
  201d96:	8d 45 e8             	lea    -0x18(%ebp),%eax
  201d99:	50                   	push   %eax
  201d9a:	e8 38 fc ff ff       	call   2019d7 <terminal_writestring>
  201d9f:	83 c4 10             	add    $0x10,%esp
  201da2:	90                   	nop
  201da3:	c9                   	leave
  201da4:	c3                   	ret

00201da5 <print_uint_var_no_newline>:
  201da5:	55                   	push   %ebp
  201da6:	89 e5                	mov    %esp,%ebp
  201da8:	83 ec 28             	sub    $0x28,%esp
  201dab:	83 ec 08             	sub    $0x8,%esp
  201dae:	8d 45 e0             	lea    -0x20(%ebp),%eax
  201db1:	50                   	push   %eax
  201db2:	ff 75 08             	push   0x8(%ebp)
  201db5:	e8 74 ec ff ff       	call   200a2e <uitoa>
  201dba:	83 c4 10             	add    $0x10,%esp
  201dbd:	89 45 f4             	mov    %eax,-0xc(%ebp)
  201dc0:	8d 55 e0             	lea    -0x20(%ebp),%edx
  201dc3:	8b 45 f4             	mov    -0xc(%ebp),%eax
  201dc6:	01 d0                	add    %edx,%eax
  201dc8:	c6 00 00             	movb   $0x0,(%eax)
  201dcb:	83 ec 0c             	sub    $0xc,%esp
  201dce:	8d 45 e0             	lea    -0x20(%ebp),%eax
  201dd1:	50                   	push   %eax
  201dd2:	e8 00 fc ff ff       	call   2019d7 <terminal_writestring>
  201dd7:	83 c4 10             	add    $0x10,%esp
  201dda:	90                   	nop
  201ddb:	c9                   	leave
  201ddc:	c3                   	ret

00201ddd <print_float_var_no_newline>:
  201ddd:	55                   	push   %ebp
  201dde:	89 e5                	mov    %esp,%ebp
  201de0:	83 ec 28             	sub    $0x28,%esp
  201de3:	83 ec 04             	sub    $0x4,%esp
  201de6:	6a 06                	push   $0x6
  201de8:	8d 45 e0             	lea    -0x20(%ebp),%eax
  201deb:	50                   	push   %eax
  201dec:	ff 75 08             	push   0x8(%ebp)
  201def:	e8 20 ed ff ff       	call   200b14 <ftoa>
  201df4:	83 c4 10             	add    $0x10,%esp
  201df7:	89 45 f4             	mov    %eax,-0xc(%ebp)
  201dfa:	8d 55 e0             	lea    -0x20(%ebp),%edx
  201dfd:	8b 45 f4             	mov    -0xc(%ebp),%eax
  201e00:	01 d0                	add    %edx,%eax
  201e02:	c6 00 00             	movb   $0x0,(%eax)
  201e05:	83 ec 0c             	sub    $0xc,%esp
  201e08:	8d 45 e0             	lea    -0x20(%ebp),%eax
  201e0b:	50                   	push   %eax
  201e0c:	e8 c6 fb ff ff       	call   2019d7 <terminal_writestring>
  201e11:	83 c4 10             	add    $0x10,%esp
  201e14:	90                   	nop
  201e15:	c9                   	leave
  201e16:	c3                   	ret

00201e17 <min>:
  201e17:	55                   	push   %ebp
  201e18:	89 e5                	mov    %esp,%ebp
  201e1a:	83 ec 08             	sub    $0x8,%esp
  201e1d:	8b 55 08             	mov    0x8(%ebp),%edx
  201e20:	8b 45 0c             	mov    0xc(%ebp),%eax
  201e23:	88 55 fc             	mov    %dl,-0x4(%ebp)
  201e26:	88 45 f8             	mov    %al,-0x8(%ebp)
  201e29:	0f b6 45 fc          	movzbl -0x4(%ebp),%eax
  201e2d:	3a 45 f8             	cmp    -0x8(%ebp),%al
  201e30:	73 06                	jae    201e38 <min+0x21>
  201e32:	0f b6 45 fc          	movzbl -0x4(%ebp),%eax
  201e36:	eb 04                	jmp    201e3c <min+0x25>
  201e38:	0f b6 45 f8          	movzbl -0x8(%ebp),%eax
  201e3c:	c9                   	leave
  201e3d:	c3                   	ret

00201e3e <print_float_var_no_newline_precision>:
  201e3e:	55                   	push   %ebp
  201e3f:	89 e5                	mov    %esp,%ebp
  201e41:	53                   	push   %ebx
  201e42:	83 ec 24             	sub    $0x24,%esp
  201e45:	8b 45 0c             	mov    0xc(%ebp),%eax
  201e48:	88 45 e4             	mov    %al,-0x1c(%ebp)
  201e4b:	89 e0                	mov    %esp,%eax
  201e4d:	89 c3                	mov    %eax,%ebx
  201e4f:	c6 45 f7 06          	movb   $0x6,-0x9(%ebp)
  201e53:	0f b6 55 f7          	movzbl -0x9(%ebp),%edx
  201e57:	0f b6 45 e4          	movzbl -0x1c(%ebp),%eax
  201e5b:	52                   	push   %edx
  201e5c:	50                   	push   %eax
  201e5d:	e8 b5 ff ff ff       	call   201e17 <min>
  201e62:	83 c4 08             	add    $0x8,%esp
  201e65:	88 45 e4             	mov    %al,-0x1c(%ebp)
  201e68:	c6 45 f6 26          	movb   $0x26,-0xa(%ebp)
  201e6c:	c6 45 f5 04          	movb   $0x4,-0xb(%ebp)
  201e70:	0f b6 55 f6          	movzbl -0xa(%ebp),%edx
  201e74:	0f b6 45 f5          	movzbl -0xb(%ebp),%eax
  201e78:	01 c2                	add    %eax,%edx
  201e7a:	0f b6 45 f7          	movzbl -0x9(%ebp),%eax
  201e7e:	01 d0                	add    %edx,%eax
  201e80:	88 45 f4             	mov    %al,-0xc(%ebp)
  201e83:	0f b6 45 f4          	movzbl -0xc(%ebp),%eax
  201e87:	83 e8 01             	sub    $0x1,%eax
  201e8a:	89 45 f0             	mov    %eax,-0x10(%ebp)
  201e8d:	0f b6 45 f4          	movzbl -0xc(%ebp),%eax
  201e91:	ba 10 00 00 00       	mov    $0x10,%edx
  201e96:	83 ea 01             	sub    $0x1,%edx
  201e99:	01 d0                	add    %edx,%eax
  201e9b:	b9 10 00 00 00       	mov    $0x10,%ecx
  201ea0:	ba 00 00 00 00       	mov    $0x0,%edx
  201ea5:	f7 f1                	div    %ecx
  201ea7:	6b c0 10             	imul   $0x10,%eax,%eax
  201eaa:	29 c4                	sub    %eax,%esp
  201eac:	89 e0                	mov    %esp,%eax
  201eae:	89 45 ec             	mov    %eax,-0x14(%ebp)
  201eb1:	0f b6 45 e4          	movzbl -0x1c(%ebp),%eax
  201eb5:	83 ec 04             	sub    $0x4,%esp
  201eb8:	50                   	push   %eax
  201eb9:	ff 75 ec             	push   -0x14(%ebp)
  201ebc:	ff 75 08             	push   0x8(%ebp)
  201ebf:	e8 50 ec ff ff       	call   200b14 <ftoa>
  201ec4:	83 c4 10             	add    $0x10,%esp
  201ec7:	89 45 e8             	mov    %eax,-0x18(%ebp)
  201eca:	8b 55 ec             	mov    -0x14(%ebp),%edx
  201ecd:	8b 45 e8             	mov    -0x18(%ebp),%eax
  201ed0:	01 d0                	add    %edx,%eax
  201ed2:	c6 00 00             	movb   $0x0,(%eax)
  201ed5:	83 ec 0c             	sub    $0xc,%esp
  201ed8:	ff 75 ec             	push   -0x14(%ebp)
  201edb:	e8 f7 fa ff ff       	call   2019d7 <terminal_writestring>
  201ee0:	83 c4 10             	add    $0x10,%esp
  201ee3:	89 dc                	mov    %ebx,%esp
  201ee5:	90                   	nop
  201ee6:	8b 5d fc             	mov    -0x4(%ebp),%ebx
  201ee9:	c9                   	leave
  201eea:	c3                   	ret

00201eeb <print_something>:
  201eeb:	55                   	push   %ebp
  201eec:	89 e5                	mov    %esp,%ebp
  201eee:	83 ec 28             	sub    $0x28,%esp
  201ef1:	c7 45 f4 00 00 00 00 	movl   $0x0,-0xc(%ebp)
  201ef8:	eb 56                	jmp    201f50 <print_something+0x65>
  201efa:	83 ec 08             	sub    $0x8,%esp
  201efd:	8d 45 e4             	lea    -0x1c(%ebp),%eax
  201f00:	50                   	push   %eax
  201f01:	ff 75 f4             	push   -0xc(%ebp)
  201f04:	e8 01 ea ff ff       	call   20090a <itoa>
  201f09:	83 c4 10             	add    $0x10,%esp
  201f0c:	89 45 f0             	mov    %eax,-0x10(%ebp)
  201f0f:	8d 55 e4             	lea    -0x1c(%ebp),%edx
  201f12:	8b 45 f0             	mov    -0x10(%ebp),%eax
  201f15:	01 d0                	add    %edx,%eax
  201f17:	c6 00 0a             	movb   $0xa,(%eax)
  201f1a:	8b 45 f0             	mov    -0x10(%ebp),%eax
  201f1d:	83 c0 01             	add    $0x1,%eax
  201f20:	c6 44 05 e4 00       	movb   $0x0,-0x1c(%ebp,%eax,1)
  201f25:	83 ec 0c             	sub    $0xc,%esp
  201f28:	8d 45 e4             	lea    -0x1c(%ebp),%eax
  201f2b:	50                   	push   %eax
  201f2c:	e8 a6 fa ff ff       	call   2019d7 <terminal_writestring>
  201f31:	83 c4 10             	add    $0x10,%esp
  201f34:	83 ec 0c             	sub    $0xc,%esp
  201f37:	d9 05 1c 61 20 00    	flds   0x20611c
  201f3d:	8d 64 24 fc          	lea    -0x4(%esp),%esp
  201f41:	d9 1c 24             	fstps  (%esp)
  201f44:	e8 5f 1e 00 00       	call   203da8 <wait>
  201f49:	83 c4 10             	add    $0x10,%esp
  201f4c:	83 45 f4 01          	addl   $0x1,-0xc(%ebp)
  201f50:	83 7d f4 09          	cmpl   $0x9,-0xc(%ebp)
  201f54:	7e a4                	jle    201efa <print_something+0xf>
  201f56:	90                   	nop
  201f57:	90                   	nop
  201f58:	c9                   	leave
  201f59:	c3                   	ret

00201f5a <print_extern_address>:
  201f5a:	55                   	push   %ebp
  201f5b:	89 e5                	mov    %esp,%ebp
  201f5d:	83 ec 18             	sub    $0x18,%esp
  201f60:	83 ec 0c             	sub    $0xc,%esp
  201f63:	ff 75 08             	push   0x8(%ebp)
  201f66:	e8 6c fa ff ff       	call   2019d7 <terminal_writestring>
  201f6b:	83 c4 10             	add    $0x10,%esp
  201f6e:	8b 45 0c             	mov    0xc(%ebp),%eax
  201f71:	ff d0                	call   *%eax
  201f73:	89 45 f4             	mov    %eax,-0xc(%ebp)
  201f76:	83 ec 0c             	sub    $0xc,%esp
  201f79:	ff 75 f4             	push   -0xc(%ebp)
  201f7c:	e8 9c fd ff ff       	call   201d1d <print_hex_ptr>
  201f81:	83 c4 10             	add    $0x10,%esp
  201f84:	83 ec 0c             	sub    $0xc,%esp
  201f87:	68 0d 61 20 00       	push   $0x20610d
  201f8c:	e8 46 fa ff ff       	call   2019d7 <terminal_writestring>
  201f91:	83 c4 10             	add    $0x10,%esp
  201f94:	8b 45 f4             	mov    -0xc(%ebp),%eax
  201f97:	c9                   	leave
  201f98:	c3                   	ret

00201f99 <terminal_write_uint>:
  201f99:	55                   	push   %ebp
  201f9a:	89 e5                	mov    %esp,%ebp
  201f9c:	83 ec 08             	sub    $0x8,%esp
  201f9f:	83 ec 0c             	sub    $0xc,%esp
  201fa2:	ff 75 08             	push   0x8(%ebp)
  201fa5:	e8 2d fa ff ff       	call   2019d7 <terminal_writestring>
  201faa:	83 c4 10             	add    $0x10,%esp
  201fad:	83 ec 0c             	sub    $0xc,%esp
  201fb0:	ff 75 0c             	push   0xc(%ebp)
  201fb3:	e8 aa fd ff ff       	call   201d62 <print_uint_var>
  201fb8:	83 c4 10             	add    $0x10,%esp
  201fbb:	90                   	nop
  201fbc:	c9                   	leave
  201fbd:	c3                   	ret

00201fbe <terminal_write_uint_no_newline>:
  201fbe:	55                   	push   %ebp
  201fbf:	89 e5                	mov    %esp,%ebp
  201fc1:	83 ec 08             	sub    $0x8,%esp
  201fc4:	83 ec 0c             	sub    $0xc,%esp
  201fc7:	ff 75 08             	push   0x8(%ebp)
  201fca:	e8 08 fa ff ff       	call   2019d7 <terminal_writestring>
  201fcf:	83 c4 10             	add    $0x10,%esp
  201fd2:	83 ec 0c             	sub    $0xc,%esp
  201fd5:	ff 75 0c             	push   0xc(%ebp)
  201fd8:	e8 c8 fd ff ff       	call   201da5 <print_uint_var_no_newline>
  201fdd:	83 c4 10             	add    $0x10,%esp
  201fe0:	90                   	nop
  201fe1:	c9                   	leave
  201fe2:	c3                   	ret

00201fe3 <terminal_write_hex>:
  201fe3:	55                   	push   %ebp
  201fe4:	89 e5                	mov    %esp,%ebp
  201fe6:	83 ec 08             	sub    $0x8,%esp
  201fe9:	83 ec 0c             	sub    $0xc,%esp
  201fec:	ff 75 08             	push   0x8(%ebp)
  201fef:	e8 e3 f9 ff ff       	call   2019d7 <terminal_writestring>
  201ff4:	83 c4 10             	add    $0x10,%esp
  201ff7:	83 ec 0c             	sub    $0xc,%esp
  201ffa:	ff 75 0c             	push   0xc(%ebp)
  201ffd:	e8 9c fc ff ff       	call   201c9e <print_hex_var>
  202002:	83 c4 10             	add    $0x10,%esp
  202005:	90                   	nop
  202006:	c9                   	leave
  202007:	c3                   	ret

00202008 <terminal_write_ptr>:
  202008:	55                   	push   %ebp
  202009:	89 e5                	mov    %esp,%ebp
  20200b:	83 ec 08             	sub    $0x8,%esp
  20200e:	83 ec 0c             	sub    $0xc,%esp
  202011:	ff 75 08             	push   0x8(%ebp)
  202014:	e8 be f9 ff ff       	call   2019d7 <terminal_writestring>
  202019:	83 c4 10             	add    $0x10,%esp
  20201c:	83 ec 0c             	sub    $0xc,%esp
  20201f:	ff 75 0c             	push   0xc(%ebp)
  202022:	e8 f6 fc ff ff       	call   201d1d <print_hex_ptr>
  202027:	83 c4 10             	add    $0x10,%esp
  20202a:	90                   	nop
  20202b:	c9                   	leave
  20202c:	c3                   	ret

0020202d <print_extern_address16>:
  20202d:	55                   	push   %ebp
  20202e:	89 e5                	mov    %esp,%ebp
  202030:	83 ec 18             	sub    $0x18,%esp
  202033:	83 ec 0c             	sub    $0xc,%esp
  202036:	ff 75 08             	push   0x8(%ebp)
  202039:	e8 99 f9 ff ff       	call   2019d7 <terminal_writestring>
  20203e:	83 c4 10             	add    $0x10,%esp
  202041:	8b 45 0c             	mov    0xc(%ebp),%eax
  202044:	ff d0                	call   *%eax
  202046:	66 89 45 f6          	mov    %ax,-0xa(%ebp)
  20204a:	0f b7 45 f6          	movzwl -0xa(%ebp),%eax
  20204e:	83 ec 0c             	sub    $0xc,%esp
  202051:	50                   	push   %eax
  202052:	e8 cc fb ff ff       	call   201c23 <print_int_var>
  202057:	83 c4 10             	add    $0x10,%esp
  20205a:	90                   	nop
  20205b:	c9                   	leave
  20205c:	c3                   	ret

0020205d <_abort>:
  20205d:	55                   	push   %ebp
  20205e:	89 e5                	mov    %esp,%ebp
  202060:	83 ec 08             	sub    $0x8,%esp
  202063:	83 ec 0c             	sub    $0xc,%esp
  202066:	68 20 61 20 00       	push   $0x206120
  20206b:	e8 67 f9 ff ff       	call   2019d7 <terminal_writestring>
  202070:	83 c4 10             	add    $0x10,%esp
  202073:	fa                   	cli
  202074:	f4                   	hlt
  202075:	eb fc                	jmp    202073 <_abort+0x16>

00202077 <_abort_msg>:
  202077:	55                   	push   %ebp
  202078:	89 e5                	mov    %esp,%ebp
  20207a:	83 ec 08             	sub    $0x8,%esp
  20207d:	83 ec 0c             	sub    $0xc,%esp
  202080:	ff 75 0c             	push   0xc(%ebp)
  202083:	ff 75 10             	push   0x10(%ebp)
  202086:	ff 75 08             	push   0x8(%ebp)
  202089:	68 29 61 20 00       	push   $0x206129
  20208e:	6a 04                	push   $0x4
  202090:	e8 a6 05 00 00       	call   20263b <kprintf_argc>
  202095:	83 c4 20             	add    $0x20,%esp
  202098:	e8 c0 ff ff ff       	call   20205d <_abort>

0020209d <is_digit>:
  20209d:	55                   	push   %ebp
  20209e:	89 e5                	mov    %esp,%ebp
  2020a0:	83 ec 04             	sub    $0x4,%esp
  2020a3:	8b 45 08             	mov    0x8(%ebp),%eax
  2020a6:	88 45 fc             	mov    %al,-0x4(%ebp)
  2020a9:	80 7d fc 2f          	cmpb   $0x2f,-0x4(%ebp)
  2020ad:	7e 0d                	jle    2020bc <is_digit+0x1f>
  2020af:	80 7d fc 39          	cmpb   $0x39,-0x4(%ebp)
  2020b3:	7f 07                	jg     2020bc <is_digit+0x1f>
  2020b5:	b8 01 00 00 00       	mov    $0x1,%eax
  2020ba:	eb 05                	jmp    2020c1 <is_digit+0x24>
  2020bc:	b8 00 00 00 00       	mov    $0x0,%eax
  2020c1:	c9                   	leave
  2020c2:	c3                   	ret

002020c3 <char_to_fmt_option>:
  2020c3:	55                   	push   %ebp
  2020c4:	89 e5                	mov    %esp,%ebp
  2020c6:	83 ec 04             	sub    $0x4,%esp
  2020c9:	8b 45 08             	mov    0x8(%ebp),%eax
  2020cc:	88 45 fc             	mov    %al,-0x4(%ebp)
  2020cf:	0f be 45 fc          	movsbl -0x4(%ebp),%eax
  2020d3:	83 f8 2e             	cmp    $0x2e,%eax
  2020d6:	74 0c                	je     2020e4 <char_to_fmt_option+0x21>
  2020d8:	83 f8 3a             	cmp    $0x3a,%eax
  2020db:	75 0e                	jne    2020eb <char_to_fmt_option+0x28>
  2020dd:	b8 3a 00 00 00       	mov    $0x3a,%eax
  2020e2:	eb 0c                	jmp    2020f0 <char_to_fmt_option+0x2d>
  2020e4:	b8 2e 00 00 00       	mov    $0x2e,%eax
  2020e9:	eb 05                	jmp    2020f0 <char_to_fmt_option+0x2d>
  2020eb:	b8 00 00 00 00       	mov    $0x0,%eax
  2020f0:	c9                   	leave
  2020f1:	c3                   	ret

002020f2 <char_to_printf_tag>:
  2020f2:	55                   	push   %ebp
  2020f3:	89 e5                	mov    %esp,%ebp
  2020f5:	83 ec 04             	sub    $0x4,%esp
  2020f8:	8b 45 08             	mov    0x8(%ebp),%eax
  2020fb:	88 45 fc             	mov    %al,-0x4(%ebp)
  2020fe:	0f be 45 fc          	movsbl -0x4(%ebp),%eax
  202102:	83 f8 75             	cmp    $0x75,%eax
  202105:	74 4c                	je     202153 <char_to_printf_tag+0x61>
  202107:	83 f8 75             	cmp    $0x75,%eax
  20210a:	7f 63                	jg     20216f <char_to_printf_tag+0x7d>
  20210c:	83 f8 73             	cmp    $0x73,%eax
  20210f:	74 34                	je     202145 <char_to_printf_tag+0x53>
  202111:	83 f8 73             	cmp    $0x73,%eax
  202114:	7f 59                	jg     20216f <char_to_printf_tag+0x7d>
  202116:	83 f8 68             	cmp    $0x68,%eax
  202119:	74 46                	je     202161 <char_to_printf_tag+0x6f>
  20211b:	83 f8 68             	cmp    $0x68,%eax
  20211e:	7f 4f                	jg     20216f <char_to_printf_tag+0x7d>
  202120:	83 f8 66             	cmp    $0x66,%eax
  202123:	74 35                	je     20215a <char_to_printf_tag+0x68>
  202125:	83 f8 66             	cmp    $0x66,%eax
  202128:	7f 45                	jg     20216f <char_to_printf_tag+0x7d>
  20212a:	83 f8 64             	cmp    $0x64,%eax
  20212d:	74 1d                	je     20214c <char_to_printf_tag+0x5a>
  20212f:	83 f8 64             	cmp    $0x64,%eax
  202132:	7f 3b                	jg     20216f <char_to_printf_tag+0x7d>
  202134:	83 f8 62             	cmp    $0x62,%eax
  202137:	74 2f                	je     202168 <char_to_printf_tag+0x76>
  202139:	83 f8 63             	cmp    $0x63,%eax
  20213c:	75 31                	jne    20216f <char_to_printf_tag+0x7d>
  20213e:	b8 63 00 00 00       	mov    $0x63,%eax
  202143:	eb 2f                	jmp    202174 <char_to_printf_tag+0x82>
  202145:	b8 73 00 00 00       	mov    $0x73,%eax
  20214a:	eb 28                	jmp    202174 <char_to_printf_tag+0x82>
  20214c:	b8 64 00 00 00       	mov    $0x64,%eax
  202151:	eb 21                	jmp    202174 <char_to_printf_tag+0x82>
  202153:	b8 75 00 00 00       	mov    $0x75,%eax
  202158:	eb 1a                	jmp    202174 <char_to_printf_tag+0x82>
  20215a:	b8 66 00 00 00       	mov    $0x66,%eax
  20215f:	eb 13                	jmp    202174 <char_to_printf_tag+0x82>
  202161:	b8 68 00 00 00       	mov    $0x68,%eax
  202166:	eb 0c                	jmp    202174 <char_to_printf_tag+0x82>
  202168:	b8 62 00 00 00       	mov    $0x62,%eax
  20216d:	eb 05                	jmp    202174 <char_to_printf_tag+0x82>
  20216f:	b8 00 00 00 00       	mov    $0x0,%eax
  202174:	c9                   	leave
  202175:	c3                   	ret

00202176 <printf_fmt_option_to_str>:
  202176:	55                   	push   %ebp
  202177:	89 e5                	mov    %esp,%ebp
  202179:	83 7d 08 3a          	cmpl   $0x3a,0x8(%ebp)
  20217d:	74 41                	je     2021c0 <printf_fmt_option_to_str+0x4a>
  20217f:	83 7d 08 3a          	cmpl   $0x3a,0x8(%ebp)
  202183:	77 49                	ja     2021ce <printf_fmt_option_to_str+0x58>
  202185:	83 7d 08 2e          	cmpl   $0x2e,0x8(%ebp)
  202189:	74 3c                	je     2021c7 <printf_fmt_option_to_str+0x51>
  20218b:	83 7d 08 2e          	cmpl   $0x2e,0x8(%ebp)
  20218f:	77 3d                	ja     2021ce <printf_fmt_option_to_str+0x58>
  202191:	83 7d 08 02          	cmpl   $0x2,0x8(%ebp)
  202195:	74 22                	je     2021b9 <printf_fmt_option_to_str+0x43>
  202197:	83 7d 08 02          	cmpl   $0x2,0x8(%ebp)
  20219b:	77 31                	ja     2021ce <printf_fmt_option_to_str+0x58>
  20219d:	83 7d 08 00          	cmpl   $0x0,0x8(%ebp)
  2021a1:	74 08                	je     2021ab <printf_fmt_option_to_str+0x35>
  2021a3:	83 7d 08 01          	cmpl   $0x1,0x8(%ebp)
  2021a7:	74 09                	je     2021b2 <printf_fmt_option_to_str+0x3c>
  2021a9:	eb 23                	jmp    2021ce <printf_fmt_option_to_str+0x58>
  2021ab:	b8 40 61 20 00       	mov    $0x206140,%eax
  2021b0:	eb 21                	jmp    2021d3 <printf_fmt_option_to_str+0x5d>
  2021b2:	b8 50 61 20 00       	mov    $0x206150,%eax
  2021b7:	eb 1a                	jmp    2021d3 <printf_fmt_option_to_str+0x5d>
  2021b9:	b8 6b 61 20 00       	mov    $0x20616b,%eax
  2021be:	eb 13                	jmp    2021d3 <printf_fmt_option_to_str+0x5d>
  2021c0:	b8 88 61 20 00       	mov    $0x206188,%eax
  2021c5:	eb 0c                	jmp    2021d3 <printf_fmt_option_to_str+0x5d>
  2021c7:	b8 97 61 20 00       	mov    $0x206197,%eax
  2021cc:	eb 05                	jmp    2021d3 <printf_fmt_option_to_str+0x5d>
  2021ce:	b8 ac 61 20 00       	mov    $0x2061ac,%eax
  2021d3:	5d                   	pop    %ebp
  2021d4:	c3                   	ret

002021d5 <printf_type_to_str>:
  2021d5:	55                   	push   %ebp
  2021d6:	89 e5                	mov    %esp,%ebp
  2021d8:	83 7d 08 75          	cmpl   $0x75,0x8(%ebp)
  2021dc:	74 69                	je     202247 <printf_type_to_str+0x72>
  2021de:	83 7d 08 75          	cmpl   $0x75,0x8(%ebp)
  2021e2:	0f 87 82 00 00 00    	ja     20226a <printf_type_to_str+0x95>
  2021e8:	83 7d 08 73          	cmpl   $0x73,0x8(%ebp)
  2021ec:	74 4b                	je     202239 <printf_type_to_str+0x64>
  2021ee:	83 7d 08 73          	cmpl   $0x73,0x8(%ebp)
  2021f2:	77 76                	ja     20226a <printf_type_to_str+0x95>
  2021f4:	83 7d 08 68          	cmpl   $0x68,0x8(%ebp)
  2021f8:	74 5b                	je     202255 <printf_type_to_str+0x80>
  2021fa:	83 7d 08 68          	cmpl   $0x68,0x8(%ebp)
  2021fe:	77 6a                	ja     20226a <printf_type_to_str+0x95>
  202200:	83 7d 08 66          	cmpl   $0x66,0x8(%ebp)
  202204:	74 48                	je     20224e <printf_type_to_str+0x79>
  202206:	83 7d 08 66          	cmpl   $0x66,0x8(%ebp)
  20220a:	77 5e                	ja     20226a <printf_type_to_str+0x95>
  20220c:	83 7d 08 64          	cmpl   $0x64,0x8(%ebp)
  202210:	74 2e                	je     202240 <printf_type_to_str+0x6b>
  202212:	83 7d 08 64          	cmpl   $0x64,0x8(%ebp)
  202216:	77 52                	ja     20226a <printf_type_to_str+0x95>
  202218:	83 7d 08 63          	cmpl   $0x63,0x8(%ebp)
  20221c:	74 14                	je     202232 <printf_type_to_str+0x5d>
  20221e:	83 7d 08 63          	cmpl   $0x63,0x8(%ebp)
  202222:	77 46                	ja     20226a <printf_type_to_str+0x95>
  202224:	83 7d 08 00          	cmpl   $0x0,0x8(%ebp)
  202228:	74 39                	je     202263 <printf_type_to_str+0x8e>
  20222a:	83 7d 08 62          	cmpl   $0x62,0x8(%ebp)
  20222e:	74 2c                	je     20225c <printf_type_to_str+0x87>
  202230:	eb 38                	jmp    20226a <printf_type_to_str+0x95>
  202232:	b8 b8 61 20 00       	mov    $0x2061b8,%eax
  202237:	eb 36                	jmp    20226f <printf_type_to_str+0x9a>
  202239:	b8 c8 61 20 00       	mov    $0x2061c8,%eax
  20223e:	eb 2f                	jmp    20226f <printf_type_to_str+0x9a>
  202240:	b8 da 61 20 00       	mov    $0x2061da,%eax
  202245:	eb 28                	jmp    20226f <printf_type_to_str+0x9a>
  202247:	b8 e9 61 20 00       	mov    $0x2061e9,%eax
  20224c:	eb 21                	jmp    20226f <printf_type_to_str+0x9a>
  20224e:	b8 fd 61 20 00       	mov    $0x2061fd,%eax
  202253:	eb 1a                	jmp    20226f <printf_type_to_str+0x9a>
  202255:	b8 0e 62 20 00       	mov    $0x20620e,%eax
  20225a:	eb 13                	jmp    20226f <printf_type_to_str+0x9a>
  20225c:	b8 1d 62 20 00       	mov    $0x20621d,%eax
  202261:	eb 0c                	jmp    20226f <printf_type_to_str+0x9a>
  202263:	b8 2f 62 20 00       	mov    $0x20622f,%eax
  202268:	eb 05                	jmp    20226f <printf_type_to_str+0x9a>
  20226a:	b8 42 62 20 00       	mov    $0x206242,%eax
  20226f:	5d                   	pop    %ebp
  202270:	c3                   	ret

00202271 <print_info>:
  202271:	55                   	push   %ebp
  202272:	89 e5                	mov    %esp,%ebp
  202274:	83 ec 08             	sub    $0x8,%esp
  202277:	83 ec 0c             	sub    $0xc,%esp
  20227a:	68 55 62 20 00       	push   $0x206255
  20227f:	e8 53 f7 ff ff       	call   2019d7 <terminal_writestring>
  202284:	83 c4 10             	add    $0x10,%esp
  202287:	8b 45 08             	mov    0x8(%ebp),%eax
  20228a:	83 ec 0c             	sub    $0xc,%esp
  20228d:	50                   	push   %eax
  20228e:	e8 42 ff ff ff       	call   2021d5 <printf_type_to_str>
  202293:	83 c4 10             	add    $0x10,%esp
  202296:	83 ec 0c             	sub    $0xc,%esp
  202299:	50                   	push   %eax
  20229a:	e8 38 f7 ff ff       	call   2019d7 <terminal_writestring>
  20229f:	83 c4 10             	add    $0x10,%esp
  2022a2:	83 ec 0c             	sub    $0xc,%esp
  2022a5:	68 5d 62 20 00       	push   $0x20625d
  2022aa:	e8 28 f7 ff ff       	call   2019d7 <terminal_writestring>
  2022af:	83 c4 10             	add    $0x10,%esp
  2022b2:	83 ec 0c             	sub    $0xc,%esp
  2022b5:	68 5f 62 20 00       	push   $0x20625f
  2022ba:	e8 18 f7 ff ff       	call   2019d7 <terminal_writestring>
  2022bf:	83 c4 10             	add    $0x10,%esp
  2022c2:	8b 45 0c             	mov    0xc(%ebp),%eax
  2022c5:	83 ec 0c             	sub    $0xc,%esp
  2022c8:	50                   	push   %eax
  2022c9:	e8 a8 fe ff ff       	call   202176 <printf_fmt_option_to_str>
  2022ce:	83 c4 10             	add    $0x10,%esp
  2022d1:	83 ec 0c             	sub    $0xc,%esp
  2022d4:	50                   	push   %eax
  2022d5:	e8 fd f6 ff ff       	call   2019d7 <terminal_writestring>
  2022da:	83 c4 10             	add    $0x10,%esp
  2022dd:	83 ec 0c             	sub    $0xc,%esp
  2022e0:	68 5d 62 20 00       	push   $0x20625d
  2022e5:	e8 ed f6 ff ff       	call   2019d7 <terminal_writestring>
  2022ea:	83 c4 10             	add    $0x10,%esp
  2022ed:	0f b6 45 10          	movzbl 0x10(%ebp),%eax
  2022f1:	0f b6 c0             	movzbl %al,%eax
  2022f4:	83 ec 08             	sub    $0x8,%esp
  2022f7:	50                   	push   %eax
  2022f8:	68 69 62 20 00       	push   $0x206269
  2022fd:	e8 97 fc ff ff       	call   201f99 <terminal_write_uint>
  202302:	83 c4 10             	add    $0x10,%esp
  202305:	0f b6 45 11          	movzbl 0x11(%ebp),%eax
  202309:	0f b6 c0             	movzbl %al,%eax
  20230c:	83 ec 08             	sub    $0x8,%esp
  20230f:	50                   	push   %eax
  202310:	68 77 62 20 00       	push   $0x206277
  202315:	e8 7f fc ff ff       	call   201f99 <terminal_write_uint>
  20231a:	83 c4 10             	add    $0x10,%esp
  20231d:	0f b7 45 12          	movzwl 0x12(%ebp),%eax
  202321:	0f b7 c0             	movzwl %ax,%eax
  202324:	83 ec 08             	sub    $0x8,%esp
  202327:	50                   	push   %eax
  202328:	68 7e 62 20 00       	push   $0x20627e
  20232d:	e8 67 fc ff ff       	call   201f99 <terminal_write_uint>
  202332:	83 c4 10             	add    $0x10,%esp
  202335:	90                   	nop
  202336:	c9                   	leave
  202337:	c3                   	ret

00202338 <get_single_format_properties>:
  202338:	55                   	push   %ebp
  202339:	89 e5                	mov    %esp,%ebp
  20233b:	83 ec 38             	sub    $0x38,%esp
  20233e:	c6 45 f2 00          	movb   $0x0,-0xe(%ebp)
  202342:	8b 45 0c             	mov    0xc(%ebp),%eax
  202345:	83 c0 01             	add    $0x1,%eax
  202348:	89 45 ec             	mov    %eax,-0x14(%ebp)
  20234b:	8b 45 ec             	mov    -0x14(%ebp),%eax
  20234e:	0f b6 00             	movzbl (%eax),%eax
  202351:	88 45 eb             	mov    %al,-0x15(%ebp)
  202354:	0f be 45 eb          	movsbl -0x15(%ebp),%eax
  202358:	50                   	push   %eax
  202359:	e8 94 fd ff ff       	call   2020f2 <char_to_printf_tag>
  20235e:	83 c4 04             	add    $0x4,%esp
  202361:	89 45 d4             	mov    %eax,-0x2c(%ebp)
  202364:	8b 45 0c             	mov    0xc(%ebp),%eax
  202367:	83 c0 02             	add    $0x2,%eax
  20236a:	0f b6 00             	movzbl (%eax),%eax
  20236d:	88 45 ea             	mov    %al,-0x16(%ebp)
  202370:	0f be 45 ea          	movsbl -0x16(%ebp),%eax
  202374:	50                   	push   %eax
  202375:	e8 49 fd ff ff       	call   2020c3 <char_to_fmt_option>
  20237a:	83 c4 04             	add    $0x4,%esp
  20237d:	89 45 d8             	mov    %eax,-0x28(%ebp)
  202380:	8b 45 d8             	mov    -0x28(%ebp),%eax
  202383:	85 c0                	test   %eax,%eax
  202385:	75 21                	jne    2023a8 <get_single_format_properties+0x70>
  202387:	c6 45 dd 02          	movb   $0x2,-0x23(%ebp)
  20238b:	c6 45 dc 00          	movb   $0x0,-0x24(%ebp)
  20238f:	8b 45 08             	mov    0x8(%ebp),%eax
  202392:	8b 55 d4             	mov    -0x2c(%ebp),%edx
  202395:	89 10                	mov    %edx,(%eax)
  202397:	8b 55 d8             	mov    -0x28(%ebp),%edx
  20239a:	89 50 04             	mov    %edx,0x4(%eax)
  20239d:	8b 55 dc             	mov    -0x24(%ebp),%edx
  2023a0:	89 50 08             	mov    %edx,0x8(%eax)
  2023a3:	e9 c7 00 00 00       	jmp    20246f <get_single_format_properties+0x137>
  2023a8:	8b 45 0c             	mov    0xc(%ebp),%eax
  2023ab:	83 c0 03             	add    $0x3,%eax
  2023ae:	89 45 f4             	mov    %eax,-0xc(%ebp)
  2023b1:	8b 45 f4             	mov    -0xc(%ebp),%eax
  2023b4:	0f b6 00             	movzbl (%eax),%eax
  2023b7:	0f be c0             	movsbl %al,%eax
  2023ba:	50                   	push   %eax
  2023bb:	e8 dd fc ff ff       	call   20209d <is_digit>
  2023c0:	83 c4 04             	add    $0x4,%esp
  2023c3:	85 c0                	test   %eax,%eax
  2023c5:	75 0c                	jne    2023d3 <get_single_format_properties+0x9b>
  2023c7:	c7 45 d8 01 00 00 00 	movl   $0x1,-0x28(%ebp)
  2023ce:	e9 88 00 00 00       	jmp    20245b <get_single_format_properties+0x123>
  2023d3:	c6 45 f3 03          	movb   $0x3,-0xd(%ebp)
  2023d7:	c7 45 cc 00 00 00 00 	movl   $0x0,-0x34(%ebp)
  2023de:	c7 45 d0 00 00 00 00 	movl   $0x0,-0x30(%ebp)
  2023e5:	eb 1f                	jmp    202406 <get_single_format_properties+0xce>
  2023e7:	0f b6 45 f3          	movzbl -0xd(%ebp),%eax
  2023eb:	8d 50 fd             	lea    -0x3(%eax),%edx
  2023ee:	8b 45 f4             	mov    -0xc(%ebp),%eax
  2023f1:	0f b6 00             	movzbl (%eax),%eax
  2023f4:	88 44 15 cc          	mov    %al,-0x34(%ebp,%edx,1)
  2023f8:	83 45 f4 01          	addl   $0x1,-0xc(%ebp)
  2023fc:	0f b6 45 f3          	movzbl -0xd(%ebp),%eax
  202400:	83 c0 01             	add    $0x1,%eax
  202403:	88 45 f3             	mov    %al,-0xd(%ebp)
  202406:	8b 45 f4             	mov    -0xc(%ebp),%eax
  202409:	0f b6 00             	movzbl (%eax),%eax
  20240c:	0f be c0             	movsbl %al,%eax
  20240f:	50                   	push   %eax
  202410:	e8 88 fc ff ff       	call   20209d <is_digit>
  202415:	83 c4 04             	add    $0x4,%esp
  202418:	85 c0                	test   %eax,%eax
  20241a:	75 cb                	jne    2023e7 <get_single_format_properties+0xaf>
  20241c:	0f b6 45 f3          	movzbl -0xd(%ebp),%eax
  202420:	88 45 dd             	mov    %al,-0x23(%ebp)
  202423:	0f b6 45 f3          	movzbl -0xd(%ebp),%eax
  202427:	83 e8 03             	sub    $0x3,%eax
  20242a:	c6 44 05 cc 00       	movb   $0x0,-0x34(%ebp,%eax,1)
  20242f:	83 ec 0c             	sub    $0xc,%esp
  202432:	8d 45 cc             	lea    -0x34(%ebp),%eax
  202435:	50                   	push   %eax
  202436:	e8 5b e8 ff ff       	call   200c96 <string_to_uint>
  20243b:	83 c4 10             	add    $0x10,%esp
  20243e:	89 45 e4             	mov    %eax,-0x1c(%ebp)
  202441:	83 7d e4 ff          	cmpl   $0xffffffff,-0x1c(%ebp)
  202445:	75 07                	jne    20244e <get_single_format_properties+0x116>
  202447:	c7 45 d8 02 00 00 00 	movl   $0x2,-0x28(%ebp)
  20244e:	8b 45 e4             	mov    -0x1c(%ebp),%eax
  202451:	88 45 e3             	mov    %al,-0x1d(%ebp)
  202454:	0f b6 45 e3          	movzbl -0x1d(%ebp),%eax
  202458:	88 45 dc             	mov    %al,-0x24(%ebp)
  20245b:	8b 45 08             	mov    0x8(%ebp),%eax
  20245e:	8b 55 d4             	mov    -0x2c(%ebp),%edx
  202461:	89 10                	mov    %edx,(%eax)
  202463:	8b 55 d8             	mov    -0x28(%ebp),%edx
  202466:	89 50 04             	mov    %edx,0x4(%eax)
  202469:	8b 55 dc             	mov    -0x24(%ebp),%edx
  20246c:	89 50 08             	mov    %edx,0x8(%eax)
  20246f:	8b 45 08             	mov    0x8(%ebp),%eax
  202472:	c9                   	leave
  202473:	c2 04 00             	ret    $0x4

00202476 <set_types_and_pos>:
  202476:	55                   	push   %ebp
  202477:	89 e5                	mov    %esp,%ebp
  202479:	83 ec 38             	sub    $0x38,%esp
  20247c:	8b 45 10             	mov    0x10(%ebp),%eax
  20247f:	88 45 d4             	mov    %al,-0x2c(%ebp)
  202482:	8b 45 08             	mov    0x8(%ebp),%eax
  202485:	89 45 f0             	mov    %eax,-0x10(%ebp)
  202488:	c6 45 f7 00          	movb   $0x0,-0x9(%ebp)
  20248c:	66 c7 45 f4 00 00    	movw   $0x0,-0xc(%ebp)
  202492:	c6 45 ef 00          	movb   $0x0,-0x11(%ebp)
  202496:	e9 16 01 00 00       	jmp    2025b1 <set_types_and_pos+0x13b>
  20249b:	0f b7 55 f4          	movzwl -0xc(%ebp),%edx
  20249f:	8b 45 f0             	mov    -0x10(%ebp),%eax
  2024a2:	01 d0                	add    %edx,%eax
  2024a4:	0f b6 00             	movzbl (%eax),%eax
  2024a7:	3c 25                	cmp    $0x25,%al
  2024a9:	0f 85 f7 00 00 00    	jne    2025a6 <set_types_and_pos+0x130>
  2024af:	0f b6 45 d4          	movzbl -0x2c(%ebp),%eax
  2024b3:	3a 45 f7             	cmp    -0x9(%ebp),%al
  2024b6:	75 41                	jne    2024f9 <set_types_and_pos+0x83>
  2024b8:	0f b6 45 d4          	movzbl -0x2c(%ebp),%eax
  2024bc:	83 ec 08             	sub    $0x8,%esp
  2024bf:	50                   	push   %eax
  2024c0:	68 85 62 20 00       	push   $0x206285
  2024c5:	e8 cf fa ff ff       	call   201f99 <terminal_write_uint>
  2024ca:	83 c4 10             	add    $0x10,%esp
  2024cd:	0f b6 45 f7          	movzbl -0x9(%ebp),%eax
  2024d1:	83 ec 08             	sub    $0x8,%esp
  2024d4:	50                   	push   %eax
  2024d5:	68 96 62 20 00       	push   $0x206296
  2024da:	e8 ba fa ff ff       	call   201f99 <terminal_write_uint>
  2024df:	83 c4 10             	add    $0x10,%esp
  2024e2:	83 ec 04             	sub    $0x4,%esp
  2024e5:	68 9f 62 20 00       	push   $0x20629f
  2024ea:	68 b6 00 00 00       	push   $0xb6
  2024ef:	68 ad 62 20 00       	push   $0x2062ad
  2024f4:	e8 7e fb ff ff       	call   202077 <_abort_msg>
  2024f9:	0f b7 55 f4          	movzwl -0xc(%ebp),%edx
  2024fd:	8b 45 f0             	mov    -0x10(%ebp),%eax
  202500:	01 d0                	add    %edx,%eax
  202502:	89 45 e8             	mov    %eax,-0x18(%ebp)
  202505:	8d 45 dc             	lea    -0x24(%ebp),%eax
  202508:	83 ec 08             	sub    $0x8,%esp
  20250b:	ff 75 e8             	push   -0x18(%ebp)
  20250e:	50                   	push   %eax
  20250f:	e8 24 fe ff ff       	call   202338 <get_single_format_properties>
  202514:	83 c4 0c             	add    $0xc,%esp
  202517:	0f b6 55 f7          	movzbl -0x9(%ebp),%edx
  20251b:	89 d0                	mov    %edx,%eax
  20251d:	01 c0                	add    %eax,%eax
  20251f:	01 d0                	add    %edx,%eax
  202521:	c1 e0 02             	shl    $0x2,%eax
  202524:	89 c2                	mov    %eax,%edx
  202526:	8b 45 0c             	mov    0xc(%ebp),%eax
  202529:	01 c2                	add    %eax,%edx
  20252b:	0f b6 45 e5          	movzbl -0x1b(%ebp),%eax
  20252f:	88 42 09             	mov    %al,0x9(%edx)
  202532:	0f b6 55 f7          	movzbl -0x9(%ebp),%edx
  202536:	89 d0                	mov    %edx,%eax
  202538:	01 c0                	add    %eax,%eax
  20253a:	01 d0                	add    %edx,%eax
  20253c:	c1 e0 02             	shl    $0x2,%eax
  20253f:	89 c2                	mov    %eax,%edx
  202541:	8b 45 0c             	mov    0xc(%ebp),%eax
  202544:	01 c2                	add    %eax,%edx
  202546:	8b 45 e0             	mov    -0x20(%ebp),%eax
  202549:	89 42 04             	mov    %eax,0x4(%edx)
  20254c:	0f b6 55 f7          	movzbl -0x9(%ebp),%edx
  202550:	89 d0                	mov    %edx,%eax
  202552:	01 c0                	add    %eax,%eax
  202554:	01 d0                	add    %edx,%eax
  202556:	c1 e0 02             	shl    $0x2,%eax
  202559:	89 c2                	mov    %eax,%edx
  20255b:	8b 45 0c             	mov    0xc(%ebp),%eax
  20255e:	01 c2                	add    %eax,%edx
  202560:	8b 45 dc             	mov    -0x24(%ebp),%eax
  202563:	89 02                	mov    %eax,(%edx)
  202565:	0f b6 55 f7          	movzbl -0x9(%ebp),%edx
  202569:	89 d0                	mov    %edx,%eax
  20256b:	01 c0                	add    %eax,%eax
  20256d:	01 d0                	add    %edx,%eax
  20256f:	c1 e0 02             	shl    $0x2,%eax
  202572:	89 c2                	mov    %eax,%edx
  202574:	8b 45 0c             	mov    0xc(%ebp),%eax
  202577:	01 c2                	add    %eax,%edx
  202579:	0f b6 45 e4          	movzbl -0x1c(%ebp),%eax
  20257d:	88 42 08             	mov    %al,0x8(%edx)
  202580:	0f b6 55 f7          	movzbl -0x9(%ebp),%edx
  202584:	89 d0                	mov    %edx,%eax
  202586:	01 c0                	add    %eax,%eax
  202588:	01 d0                	add    %edx,%eax
  20258a:	c1 e0 02             	shl    $0x2,%eax
  20258d:	89 c2                	mov    %eax,%edx
  20258f:	8b 45 0c             	mov    0xc(%ebp),%eax
  202592:	01 c2                	add    %eax,%edx
  202594:	0f b7 45 f4          	movzwl -0xc(%ebp),%eax
  202598:	66 89 42 0a          	mov    %ax,0xa(%edx)
  20259c:	0f b6 45 f7          	movzbl -0x9(%ebp),%eax
  2025a0:	83 c0 01             	add    $0x1,%eax
  2025a3:	88 45 f7             	mov    %al,-0x9(%ebp)
  2025a6:	0f b7 45 f4          	movzwl -0xc(%ebp),%eax
  2025aa:	83 c0 01             	add    $0x1,%eax
  2025ad:	66 89 45 f4          	mov    %ax,-0xc(%ebp)
  2025b1:	0f b7 55 f4          	movzwl -0xc(%ebp),%edx
  2025b5:	8b 45 f0             	mov    -0x10(%ebp),%eax
  2025b8:	01 d0                	add    %edx,%eax
  2025ba:	0f b6 00             	movzbl (%eax),%eax
  2025bd:	84 c0                	test   %al,%al
  2025bf:	0f 85 d6 fe ff ff    	jne    20249b <set_types_and_pos+0x25>
  2025c5:	90                   	nop
  2025c6:	90                   	nop
  2025c7:	c9                   	leave
  2025c8:	c3                   	ret

002025c9 <nop>:
  2025c9:	55                   	push   %ebp
  2025ca:	89 e5                	mov    %esp,%ebp
  2025cc:	90                   	nop
  2025cd:	5d                   	pop    %ebp
  2025ce:	c3                   	ret

002025cf <terminal_write_offsets>:
  2025cf:	55                   	push   %ebp
  2025d0:	89 e5                	mov    %esp,%ebp
  2025d2:	83 ec 28             	sub    $0x28,%esp
  2025d5:	8b 55 0c             	mov    0xc(%ebp),%edx
  2025d8:	8b 45 10             	mov    0x10(%ebp),%eax
  2025db:	66 89 55 e4          	mov    %dx,-0x1c(%ebp)
  2025df:	66 89 45 e0          	mov    %ax,-0x20(%ebp)
  2025e3:	0f b7 45 e0          	movzwl -0x20(%ebp),%eax
  2025e7:	66 39 45 e4          	cmp    %ax,-0x1c(%ebp)
  2025eb:	73 4b                	jae    202638 <terminal_write_offsets+0x69>
  2025ed:	0f b7 45 e4          	movzwl -0x1c(%ebp),%eax
  2025f1:	66 89 45 f6          	mov    %ax,-0xa(%ebp)
  2025f5:	eb 35                	jmp    20262c <terminal_write_offsets+0x5d>
  2025f7:	0f b7 55 f6          	movzwl -0xa(%ebp),%edx
  2025fb:	8b 45 08             	mov    0x8(%ebp),%eax
  2025fe:	01 d0                	add    %edx,%eax
  202600:	0f b6 00             	movzbl (%eax),%eax
  202603:	88 45 f5             	mov    %al,-0xb(%ebp)
  202606:	0f b7 55 f6          	movzwl -0xa(%ebp),%edx
  20260a:	8b 45 08             	mov    0x8(%ebp),%eax
  20260d:	01 d0                	add    %edx,%eax
  20260f:	0f b6 00             	movzbl (%eax),%eax
  202612:	0f be c0             	movsbl %al,%eax
  202615:	83 ec 0c             	sub    $0xc,%esp
  202618:	50                   	push   %eax
  202619:	e8 9e f2 ff ff       	call   2018bc <terminal_putchar>
  20261e:	83 c4 10             	add    $0x10,%esp
  202621:	0f b7 45 f6          	movzwl -0xa(%ebp),%eax
  202625:	83 c0 01             	add    $0x1,%eax
  202628:	66 89 45 f6          	mov    %ax,-0xa(%ebp)
  20262c:	0f b7 45 f6          	movzwl -0xa(%ebp),%eax
  202630:	66 3b 45 e0          	cmp    -0x20(%ebp),%ax
  202634:	72 c1                	jb     2025f7 <terminal_write_offsets+0x28>
  202636:	eb 01                	jmp    202639 <terminal_write_offsets+0x6a>
  202638:	90                   	nop
  202639:	c9                   	leave
  20263a:	c3                   	ret

0020263b <kprintf_argc>:
  20263b:	55                   	push   %ebp
  20263c:	89 e5                	mov    %esp,%ebp
  20263e:	57                   	push   %edi
  20263f:	56                   	push   %esi
  202640:	53                   	push   %ebx
  202641:	83 ec 6c             	sub    $0x6c,%esp
  202644:	89 e0                	mov    %esp,%eax
  202646:	89 c3                	mov    %eax,%ebx
  202648:	8b 45 08             	mov    0x8(%ebp),%eax
  20264b:	83 e8 01             	sub    $0x1,%eax
  20264e:	88 45 e5             	mov    %al,-0x1b(%ebp)
  202651:	83 ec 08             	sub    $0x8,%esp
  202654:	6a 25                	push   $0x25
  202656:	ff 75 0c             	push   0xc(%ebp)
  202659:	e8 67 05 00 00       	call   202bc5 <count_char>
  20265e:	83 c4 10             	add    $0x10,%esp
  202661:	88 45 e4             	mov    %al,-0x1c(%ebp)
  202664:	0f b6 45 e5          	movzbl -0x1b(%ebp),%eax
  202668:	3a 45 e4             	cmp    -0x1c(%ebp),%al
  20266b:	74 51                	je     2026be <kprintf_argc+0x83>
  20266d:	83 ec 0c             	sub    $0xc,%esp
  202670:	68 ba 62 20 00       	push   $0x2062ba
  202675:	e8 5d f3 ff ff       	call   2019d7 <terminal_writestring>
  20267a:	83 c4 10             	add    $0x10,%esp
  20267d:	0f b6 45 e5          	movzbl -0x1b(%ebp),%eax
  202681:	83 ec 08             	sub    $0x8,%esp
  202684:	50                   	push   %eax
  202685:	68 77 62 20 00       	push   $0x206277
  20268a:	e8 0a f9 ff ff       	call   201f99 <terminal_write_uint>
  20268f:	83 c4 10             	add    $0x10,%esp
  202692:	0f b6 45 e4          	movzbl -0x1c(%ebp),%eax
  202696:	83 ec 08             	sub    $0x8,%esp
  202699:	50                   	push   %eax
  20269a:	68 cc 62 20 00       	push   $0x2062cc
  20269f:	e8 f5 f8 ff ff       	call   201f99 <terminal_write_uint>
  2026a4:	83 c4 10             	add    $0x10,%esp
  2026a7:	83 ec 04             	sub    $0x4,%esp
  2026aa:	68 9f 62 20 00       	push   $0x20629f
  2026af:	68 e6 00 00 00       	push   $0xe6
  2026b4:	68 ad 62 20 00       	push   $0x2062ad
  2026b9:	e8 b9 f9 ff ff       	call   202077 <_abort_msg>
  2026be:	80 7d e5 00          	cmpb   $0x0,-0x1b(%ebp)
  2026c2:	75 15                	jne    2026d9 <kprintf_argc+0x9e>
  2026c4:	83 ec 0c             	sub    $0xc,%esp
  2026c7:	ff 75 0c             	push   0xc(%ebp)
  2026ca:	e8 08 f3 ff ff       	call   2019d7 <terminal_writestring>
  2026cf:	83 c4 10             	add    $0x10,%esp
  2026d2:	89 dc                	mov    %ebx,%esp
  2026d4:	e9 e4 04 00 00       	jmp    202bbd <kprintf_argc+0x582>
  2026d9:	0f b6 4d e5          	movzbl -0x1b(%ebp),%ecx
  2026dd:	0f b6 c1             	movzbl %cl,%eax
  2026e0:	83 e8 01             	sub    $0x1,%eax
  2026e3:	89 45 e0             	mov    %eax,-0x20(%ebp)
  2026e6:	0f b6 c1             	movzbl %cl,%eax
  2026e9:	89 c6                	mov    %eax,%esi
  2026eb:	bf 00 00 00 00       	mov    $0x0,%edi
  2026f0:	89 f0                	mov    %esi,%eax
  2026f2:	89 fa                	mov    %edi,%edx
  2026f4:	01 c0                	add    %eax,%eax
  2026f6:	11 d2                	adc    %edx,%edx
  2026f8:	01 f0                	add    %esi,%eax
  2026fa:	11 fa                	adc    %edi,%edx
  2026fc:	0f a4 c2 05          	shld   $0x5,%eax,%edx
  202700:	c1 e0 05             	shl    $0x5,%eax
  202703:	0f b6 d1             	movzbl %cl,%edx
  202706:	89 d0                	mov    %edx,%eax
  202708:	01 c0                	add    %eax,%eax
  20270a:	01 d0                	add    %edx,%eax
  20270c:	c1 e0 02             	shl    $0x2,%eax
  20270f:	0f b6 c1             	movzbl %cl,%eax
  202712:	89 c6                	mov    %eax,%esi
  202714:	bf 00 00 00 00       	mov    $0x0,%edi
  202719:	89 f0                	mov    %esi,%eax
  20271b:	89 fa                	mov    %edi,%edx
  20271d:	01 c0                	add    %eax,%eax
  20271f:	11 d2                	adc    %edx,%edx
  202721:	01 f0                	add    %esi,%eax
  202723:	11 fa                	adc    %edi,%edx
  202725:	0f a4 c2 05          	shld   $0x5,%eax,%edx
  202729:	c1 e0 05             	shl    $0x5,%eax
  20272c:	0f b6 d1             	movzbl %cl,%edx
  20272f:	89 d0                	mov    %edx,%eax
  202731:	01 c0                	add    %eax,%eax
  202733:	01 d0                	add    %edx,%eax
  202735:	c1 e0 02             	shl    $0x2,%eax
  202738:	89 c2                	mov    %eax,%edx
  20273a:	b8 10 00 00 00       	mov    $0x10,%eax
  20273f:	83 e8 01             	sub    $0x1,%eax
  202742:	01 d0                	add    %edx,%eax
  202744:	bf 10 00 00 00       	mov    $0x10,%edi
  202749:	ba 00 00 00 00       	mov    $0x0,%edx
  20274e:	f7 f7                	div    %edi
  202750:	6b c0 10             	imul   $0x10,%eax,%eax
  202753:	29 c4                	sub    %eax,%esp
  202755:	89 e0                	mov    %esp,%eax
  202757:	83 c0 03             	add    $0x3,%eax
  20275a:	c1 e8 02             	shr    $0x2,%eax
  20275d:	c1 e0 02             	shl    $0x2,%eax
  202760:	89 45 dc             	mov    %eax,-0x24(%ebp)
  202763:	0f b6 45 e5          	movzbl -0x1b(%ebp),%eax
  202767:	83 ec 04             	sub    $0x4,%esp
  20276a:	50                   	push   %eax
  20276b:	ff 75 dc             	push   -0x24(%ebp)
  20276e:	ff 75 0c             	push   0xc(%ebp)
  202771:	e8 00 fd ff ff       	call   202476 <set_types_and_pos>
  202776:	83 c4 10             	add    $0x10,%esp
  202779:	83 ec 0c             	sub    $0xc,%esp
  20277c:	ff 75 0c             	push   0xc(%ebp)
  20277f:	e8 5f e1 ff ff       	call   2008e3 <strlen>
  202784:	83 c4 10             	add    $0x10,%esp
  202787:	66 89 45 da          	mov    %ax,-0x26(%ebp)
  20278b:	0f b6 45 e5          	movzbl -0x1b(%ebp),%eax
  20278f:	8d 50 ff             	lea    -0x1(%eax),%edx
  202792:	8b 4d dc             	mov    -0x24(%ebp),%ecx
  202795:	89 d0                	mov    %edx,%eax
  202797:	01 c0                	add    %eax,%eax
  202799:	01 d0                	add    %edx,%eax
  20279b:	c1 e0 02             	shl    $0x2,%eax
  20279e:	01 c8                	add    %ecx,%eax
  2027a0:	83 c0 0a             	add    $0xa,%eax
  2027a3:	0f b7 30             	movzwl (%eax),%esi
  2027a6:	0f b6 45 e5          	movzbl -0x1b(%ebp),%eax
  2027aa:	8d 50 ff             	lea    -0x1(%eax),%edx
  2027ad:	8b 4d dc             	mov    -0x24(%ebp),%ecx
  2027b0:	89 d0                	mov    %edx,%eax
  2027b2:	01 c0                	add    %eax,%eax
  2027b4:	01 d0                	add    %edx,%eax
  2027b6:	c1 e0 02             	shl    $0x2,%eax
  2027b9:	01 c8                	add    %ecx,%eax
  2027bb:	83 c0 09             	add    $0x9,%eax
  2027be:	0f b6 00             	movzbl (%eax),%eax
  2027c1:	0f b6 c0             	movzbl %al,%eax
  2027c4:	01 f0                	add    %esi,%eax
  2027c6:	66 89 45 d8          	mov    %ax,-0x28(%ebp)
  2027ca:	8b 45 08             	mov    0x8(%ebp),%eax
  2027cd:	83 e8 01             	sub    $0x1,%eax
  2027d0:	89 45 d4             	mov    %eax,-0x2c(%ebp)
  2027d3:	8b 45 08             	mov    0x8(%ebp),%eax
  2027d6:	8d 14 85 00 00 00 00 	lea    0x0(,%eax,4),%edx
  2027dd:	b8 10 00 00 00       	mov    $0x10,%eax
  2027e2:	83 e8 01             	sub    $0x1,%eax
  2027e5:	01 d0                	add    %edx,%eax
  2027e7:	bf 10 00 00 00       	mov    $0x10,%edi
  2027ec:	ba 00 00 00 00       	mov    $0x0,%edx
  2027f1:	f7 f7                	div    %edi
  2027f3:	6b c0 10             	imul   $0x10,%eax,%eax
  2027f6:	29 c4                	sub    %eax,%esp
  2027f8:	89 e0                	mov    %esp,%eax
  2027fa:	83 c0 01             	add    $0x1,%eax
  2027fd:	d1 e8                	shr    $1,%eax
  2027ff:	01 c0                	add    %eax,%eax
  202801:	89 45 d0             	mov    %eax,-0x30(%ebp)
  202804:	8b 45 d0             	mov    -0x30(%ebp),%eax
  202807:	66 c7 00 00 00       	movw   $0x0,(%eax)
  20280c:	8b 45 dc             	mov    -0x24(%ebp),%eax
  20280f:	0f b7 40 0a          	movzwl 0xa(%eax),%eax
  202813:	8d 50 ff             	lea    -0x1(%eax),%edx
  202816:	8b 45 d0             	mov    -0x30(%ebp),%eax
  202819:	66 89 50 02          	mov    %dx,0x2(%eax)
  20281d:	c6 45 e7 01          	movb   $0x1,-0x19(%ebp)
  202821:	eb 78                	jmp    20289b <kprintf_argc+0x260>
  202823:	0f b6 45 e7          	movzbl -0x19(%ebp),%eax
  202827:	8d 50 ff             	lea    -0x1(%eax),%edx
  20282a:	8b 4d dc             	mov    -0x24(%ebp),%ecx
  20282d:	89 d0                	mov    %edx,%eax
  20282f:	01 c0                	add    %eax,%eax
  202831:	01 d0                	add    %edx,%eax
  202833:	c1 e0 02             	shl    $0x2,%eax
  202836:	01 c8                	add    %ecx,%eax
  202838:	83 c0 0a             	add    $0xa,%eax
  20283b:	0f b7 30             	movzwl (%eax),%esi
  20283e:	0f b6 45 e7          	movzbl -0x19(%ebp),%eax
  202842:	8d 50 ff             	lea    -0x1(%eax),%edx
  202845:	8b 4d dc             	mov    -0x24(%ebp),%ecx
  202848:	89 d0                	mov    %edx,%eax
  20284a:	01 c0                	add    %eax,%eax
  20284c:	01 d0                	add    %edx,%eax
  20284e:	c1 e0 02             	shl    $0x2,%eax
  202851:	01 c8                	add    %ecx,%eax
  202853:	83 c0 09             	add    $0x9,%eax
  202856:	0f b6 00             	movzbl (%eax),%eax
  202859:	0f b6 c0             	movzbl %al,%eax
  20285c:	0f b6 55 e7          	movzbl -0x19(%ebp),%edx
  202860:	8d 0c 06             	lea    (%esi,%eax,1),%ecx
  202863:	8b 45 d0             	mov    -0x30(%ebp),%eax
  202866:	66 89 0c 90          	mov    %cx,(%eax,%edx,4)
  20286a:	0f b6 55 e7          	movzbl -0x19(%ebp),%edx
  20286e:	8b 4d dc             	mov    -0x24(%ebp),%ecx
  202871:	89 d0                	mov    %edx,%eax
  202873:	01 c0                	add    %eax,%eax
  202875:	01 d0                	add    %edx,%eax
  202877:	c1 e0 02             	shl    $0x2,%eax
  20287a:	01 c8                	add    %ecx,%eax
  20287c:	83 c0 0a             	add    $0xa,%eax
  20287f:	0f b7 00             	movzwl (%eax),%eax
  202882:	0f b6 55 e7          	movzbl -0x19(%ebp),%edx
  202886:	8d 48 ff             	lea    -0x1(%eax),%ecx
  202889:	8b 45 d0             	mov    -0x30(%ebp),%eax
  20288c:	66 89 4c 90 02       	mov    %cx,0x2(%eax,%edx,4)
  202891:	0f b6 45 e7          	movzbl -0x19(%ebp),%eax
  202895:	83 c0 01             	add    $0x1,%eax
  202898:	88 45 e7             	mov    %al,-0x19(%ebp)
  20289b:	0f b6 45 e7          	movzbl -0x19(%ebp),%eax
  20289f:	3a 45 e5             	cmp    -0x1b(%ebp),%al
  2028a2:	0f 82 7b ff ff ff    	jb     202823 <kprintf_argc+0x1e8>
  2028a8:	80 7d e5 00          	cmpb   $0x0,-0x1b(%ebp)
  2028ac:	74 5a                	je     202908 <kprintf_argc+0x2cd>
  2028ae:	0f b6 45 e5          	movzbl -0x1b(%ebp),%eax
  2028b2:	8d 50 ff             	lea    -0x1(%eax),%edx
  2028b5:	8b 4d dc             	mov    -0x24(%ebp),%ecx
  2028b8:	89 d0                	mov    %edx,%eax
  2028ba:	01 c0                	add    %eax,%eax
  2028bc:	01 d0                	add    %edx,%eax
  2028be:	c1 e0 02             	shl    $0x2,%eax
  2028c1:	01 c8                	add    %ecx,%eax
  2028c3:	83 c0 0a             	add    $0xa,%eax
  2028c6:	0f b7 30             	movzwl (%eax),%esi
  2028c9:	0f b6 45 e5          	movzbl -0x1b(%ebp),%eax
  2028cd:	8d 50 ff             	lea    -0x1(%eax),%edx
  2028d0:	8b 4d dc             	mov    -0x24(%ebp),%ecx
  2028d3:	89 d0                	mov    %edx,%eax
  2028d5:	01 c0                	add    %eax,%eax
  2028d7:	01 d0                	add    %edx,%eax
  2028d9:	c1 e0 02             	shl    $0x2,%eax
  2028dc:	01 c8                	add    %ecx,%eax
  2028de:	83 c0 09             	add    $0x9,%eax
  2028e1:	0f b6 00             	movzbl (%eax),%eax
  2028e4:	0f b6 c0             	movzbl %al,%eax
  2028e7:	0f b6 55 e5          	movzbl -0x1b(%ebp),%edx
  2028eb:	8d 0c 06             	lea    (%esi,%eax,1),%ecx
  2028ee:	8b 45 d0             	mov    -0x30(%ebp),%eax
  2028f1:	66 89 0c 90          	mov    %cx,(%eax,%edx,4)
  2028f5:	0f b6 55 e5          	movzbl -0x1b(%ebp),%edx
  2028f9:	0f b7 45 da          	movzwl -0x26(%ebp),%eax
  2028fd:	8d 48 ff             	lea    -0x1(%eax),%ecx
  202900:	8b 45 d0             	mov    -0x30(%ebp),%eax
  202903:	66 89 4c 90 02       	mov    %cx,0x2(%eax,%edx,4)
  202908:	8b 45 d0             	mov    -0x30(%ebp),%eax
  20290b:	0f b7 40 02          	movzwl 0x2(%eax),%eax
  20290f:	83 c0 01             	add    $0x1,%eax
  202912:	0f b7 d0             	movzwl %ax,%edx
  202915:	8b 45 d0             	mov    -0x30(%ebp),%eax
  202918:	0f b7 00             	movzwl (%eax),%eax
  20291b:	0f b7 c0             	movzwl %ax,%eax
  20291e:	83 ec 04             	sub    $0x4,%esp
  202921:	52                   	push   %edx
  202922:	50                   	push   %eax
  202923:	ff 75 0c             	push   0xc(%ebp)
  202926:	e8 a4 fc ff ff       	call   2025cf <terminal_write_offsets>
  20292b:	83 c4 10             	add    $0x10,%esp
  20292e:	8d 45 10             	lea    0x10(%ebp),%eax
  202931:	89 45 b0             	mov    %eax,-0x50(%ebp)
  202934:	c6 45 e6 00          	movb   $0x0,-0x1a(%ebp)
  202938:	e9 71 02 00 00       	jmp    202bae <kprintf_argc+0x573>
  20293d:	0f b6 55 e6          	movzbl -0x1a(%ebp),%edx
  202941:	8b 4d dc             	mov    -0x24(%ebp),%ecx
  202944:	89 d0                	mov    %edx,%eax
  202946:	01 c0                	add    %eax,%eax
  202948:	01 d0                	add    %edx,%eax
  20294a:	c1 e0 02             	shl    $0x2,%eax
  20294d:	01 c8                	add    %ecx,%eax
  20294f:	8b 00                	mov    (%eax),%eax
  202951:	83 f8 75             	cmp    $0x75,%eax
  202954:	0f 84 c0 00 00 00    	je     202a1a <kprintf_argc+0x3df>
  20295a:	83 f8 75             	cmp    $0x75,%eax
  20295d:	0f 87 05 02 00 00    	ja     202b68 <kprintf_argc+0x52d>
  202963:	83 f8 73             	cmp    $0x73,%eax
  202966:	74 70                	je     2029d8 <kprintf_argc+0x39d>
  202968:	83 f8 73             	cmp    $0x73,%eax
  20296b:	0f 87 f7 01 00 00    	ja     202b68 <kprintf_argc+0x52d>
  202971:	83 f8 68             	cmp    $0x68,%eax
  202974:	0f 84 28 01 00 00    	je     202aa2 <kprintf_argc+0x467>
  20297a:	83 f8 68             	cmp    $0x68,%eax
  20297d:	0f 87 e5 01 00 00    	ja     202b68 <kprintf_argc+0x52d>
  202983:	83 f8 66             	cmp    $0x66,%eax
  202986:	0f 84 af 00 00 00    	je     202a3b <kprintf_argc+0x400>
  20298c:	83 f8 66             	cmp    $0x66,%eax
  20298f:	0f 87 d3 01 00 00    	ja     202b68 <kprintf_argc+0x52d>
  202995:	83 f8 64             	cmp    $0x64,%eax
  202998:	74 5f                	je     2029f9 <kprintf_argc+0x3be>
  20299a:	83 f8 64             	cmp    $0x64,%eax
  20299d:	0f 87 c5 01 00 00    	ja     202b68 <kprintf_argc+0x52d>
  2029a3:	83 f8 62             	cmp    $0x62,%eax
  2029a6:	0f 84 59 01 00 00    	je     202b05 <kprintf_argc+0x4ca>
  2029ac:	83 f8 63             	cmp    $0x63,%eax
  2029af:	0f 85 b3 01 00 00    	jne    202b68 <kprintf_argc+0x52d>
  2029b5:	8b 45 b0             	mov    -0x50(%ebp),%eax
  2029b8:	8d 50 04             	lea    0x4(%eax),%edx
  2029bb:	89 55 b0             	mov    %edx,-0x50(%ebp)
  2029be:	8b 00                	mov    (%eax),%eax
  2029c0:	88 45 bb             	mov    %al,-0x45(%ebp)
  2029c3:	0f be 45 bb          	movsbl -0x45(%ebp),%eax
  2029c7:	83 ec 0c             	sub    $0xc,%esp
  2029ca:	50                   	push   %eax
  2029cb:	e8 ec ee ff ff       	call   2018bc <terminal_putchar>
  2029d0:	83 c4 10             	add    $0x10,%esp
  2029d3:	e9 96 01 00 00       	jmp    202b6e <kprintf_argc+0x533>
  2029d8:	8b 45 b0             	mov    -0x50(%ebp),%eax
  2029db:	8d 50 04             	lea    0x4(%eax),%edx
  2029de:	89 55 b0             	mov    %edx,-0x50(%ebp)
  2029e1:	8b 00                	mov    (%eax),%eax
  2029e3:	89 45 c8             	mov    %eax,-0x38(%ebp)
  2029e6:	83 ec 0c             	sub    $0xc,%esp
  2029e9:	ff 75 c8             	push   -0x38(%ebp)
  2029ec:	e8 e6 ef ff ff       	call   2019d7 <terminal_writestring>
  2029f1:	83 c4 10             	add    $0x10,%esp
  2029f4:	e9 75 01 00 00       	jmp    202b6e <kprintf_argc+0x533>
  2029f9:	8b 45 b0             	mov    -0x50(%ebp),%eax
  2029fc:	8d 50 04             	lea    0x4(%eax),%edx
  2029ff:	89 55 b0             	mov    %edx,-0x50(%ebp)
  202a02:	8b 00                	mov    (%eax),%eax
  202a04:	89 45 bc             	mov    %eax,-0x44(%ebp)
  202a07:	83 ec 0c             	sub    $0xc,%esp
  202a0a:	ff 75 bc             	push   -0x44(%ebp)
  202a0d:	e8 54 f2 ff ff       	call   201c66 <print_int_var_no_newline>
  202a12:	83 c4 10             	add    $0x10,%esp
  202a15:	e9 54 01 00 00       	jmp    202b6e <kprintf_argc+0x533>
  202a1a:	8b 45 b0             	mov    -0x50(%ebp),%eax
  202a1d:	8d 50 04             	lea    0x4(%eax),%edx
  202a20:	89 55 b0             	mov    %edx,-0x50(%ebp)
  202a23:	8b 00                	mov    (%eax),%eax
  202a25:	89 45 cc             	mov    %eax,-0x34(%ebp)
  202a28:	83 ec 0c             	sub    $0xc,%esp
  202a2b:	ff 75 cc             	push   -0x34(%ebp)
  202a2e:	e8 72 f3 ff ff       	call   201da5 <print_uint_var_no_newline>
  202a33:	83 c4 10             	add    $0x10,%esp
  202a36:	e9 33 01 00 00       	jmp    202b6e <kprintf_argc+0x533>
  202a3b:	8b 45 b0             	mov    -0x50(%ebp),%eax
  202a3e:	8d 50 08             	lea    0x8(%eax),%edx
  202a41:	89 55 b0             	mov    %edx,-0x50(%ebp)
  202a44:	dd 00                	fldl   (%eax)
  202a46:	d9 5d c0             	fstps  -0x40(%ebp)
  202a49:	0f b6 55 e6          	movzbl -0x1a(%ebp),%edx
  202a4d:	8b 4d dc             	mov    -0x24(%ebp),%ecx
  202a50:	89 d0                	mov    %edx,%eax
  202a52:	01 c0                	add    %eax,%eax
  202a54:	01 d0                	add    %edx,%eax
  202a56:	c1 e0 02             	shl    $0x2,%eax
  202a59:	01 c8                	add    %ecx,%eax
  202a5b:	8b 10                	mov    (%eax),%edx
  202a5d:	89 55 a4             	mov    %edx,-0x5c(%ebp)
  202a60:	8b 50 04             	mov    0x4(%eax),%edx
  202a63:	89 55 a8             	mov    %edx,-0x58(%ebp)
  202a66:	8b 40 08             	mov    0x8(%eax),%eax
  202a69:	89 45 ac             	mov    %eax,-0x54(%ebp)
  202a6c:	8b 45 a8             	mov    -0x58(%ebp),%eax
  202a6f:	83 f8 2e             	cmp    $0x2e,%eax
  202a72:	75 1b                	jne    202a8f <kprintf_argc+0x454>
  202a74:	0f b6 45 ac          	movzbl -0x54(%ebp),%eax
  202a78:	0f b6 c0             	movzbl %al,%eax
  202a7b:	83 ec 08             	sub    $0x8,%esp
  202a7e:	50                   	push   %eax
  202a7f:	ff 75 c0             	push   -0x40(%ebp)
  202a82:	e8 b7 f3 ff ff       	call   201e3e <print_float_var_no_newline_precision>
  202a87:	83 c4 10             	add    $0x10,%esp
  202a8a:	e9 df 00 00 00       	jmp    202b6e <kprintf_argc+0x533>
  202a8f:	83 ec 0c             	sub    $0xc,%esp
  202a92:	ff 75 c0             	push   -0x40(%ebp)
  202a95:	e8 43 f3 ff ff       	call   201ddd <print_float_var_no_newline>
  202a9a:	83 c4 10             	add    $0x10,%esp
  202a9d:	e9 cc 00 00 00       	jmp    202b6e <kprintf_argc+0x533>
  202aa2:	8b 45 b0             	mov    -0x50(%ebp),%eax
  202aa5:	8d 50 04             	lea    0x4(%eax),%edx
  202aa8:	89 55 b0             	mov    %edx,-0x50(%ebp)
  202aab:	8b 00                	mov    (%eax),%eax
  202aad:	89 45 c4             	mov    %eax,-0x3c(%ebp)
  202ab0:	0f b6 55 e6          	movzbl -0x1a(%ebp),%edx
  202ab4:	8b 4d dc             	mov    -0x24(%ebp),%ecx
  202ab7:	89 d0                	mov    %edx,%eax
  202ab9:	01 c0                	add    %eax,%eax
  202abb:	01 d0                	add    %edx,%eax
  202abd:	c1 e0 02             	shl    $0x2,%eax
  202ac0:	01 c8                	add    %ecx,%eax
  202ac2:	8b 10                	mov    (%eax),%edx
  202ac4:	89 55 98             	mov    %edx,-0x68(%ebp)
  202ac7:	8b 50 04             	mov    0x4(%eax),%edx
  202aca:	89 55 9c             	mov    %edx,-0x64(%ebp)
  202acd:	8b 40 08             	mov    0x8(%eax),%eax
  202ad0:	89 45 a0             	mov    %eax,-0x60(%ebp)
  202ad3:	8b 45 9c             	mov    -0x64(%ebp),%eax
  202ad6:	83 f8 3a             	cmp    $0x3a,%eax
  202ad9:	75 18                	jne    202af3 <kprintf_argc+0x4b8>
  202adb:	0f b6 45 a0          	movzbl -0x60(%ebp),%eax
  202adf:	0f b6 c0             	movzbl %al,%eax
  202ae2:	83 ec 08             	sub    $0x8,%esp
  202ae5:	50                   	push   %eax
  202ae6:	ff 75 c4             	push   -0x3c(%ebp)
  202ae9:	e8 8e e7 ff ff       	call   20127c <print_hex_f>
  202aee:	83 c4 10             	add    $0x10,%esp
  202af1:	eb 7b                	jmp    202b6e <kprintf_argc+0x533>
  202af3:	83 ec 08             	sub    $0x8,%esp
  202af6:	6a 00                	push   $0x0
  202af8:	ff 75 c4             	push   -0x3c(%ebp)
  202afb:	e8 7c e7 ff ff       	call   20127c <print_hex_f>
  202b00:	83 c4 10             	add    $0x10,%esp
  202b03:	eb 69                	jmp    202b6e <kprintf_argc+0x533>
  202b05:	8b 45 b0             	mov    -0x50(%ebp),%eax
  202b08:	8d 50 04             	lea    0x4(%eax),%edx
  202b0b:	89 55 b0             	mov    %edx,-0x50(%ebp)
  202b0e:	8b 00                	mov    (%eax),%eax
  202b10:	89 45 b4             	mov    %eax,-0x4c(%ebp)
  202b13:	0f b6 55 e6          	movzbl -0x1a(%ebp),%edx
  202b17:	8b 4d dc             	mov    -0x24(%ebp),%ecx
  202b1a:	89 d0                	mov    %edx,%eax
  202b1c:	01 c0                	add    %eax,%eax
  202b1e:	01 d0                	add    %edx,%eax
  202b20:	c1 e0 02             	shl    $0x2,%eax
  202b23:	01 c8                	add    %ecx,%eax
  202b25:	8b 10                	mov    (%eax),%edx
  202b27:	89 55 8c             	mov    %edx,-0x74(%ebp)
  202b2a:	8b 50 04             	mov    0x4(%eax),%edx
  202b2d:	89 55 90             	mov    %edx,-0x70(%ebp)
  202b30:	8b 40 08             	mov    0x8(%eax),%eax
  202b33:	89 45 94             	mov    %eax,-0x6c(%ebp)
  202b36:	8b 45 90             	mov    -0x70(%ebp),%eax
  202b39:	83 f8 3a             	cmp    $0x3a,%eax
  202b3c:	75 18                	jne    202b56 <kprintf_argc+0x51b>
  202b3e:	0f b6 45 94          	movzbl -0x6c(%ebp),%eax
  202b42:	0f b6 c0             	movzbl %al,%eax
  202b45:	83 ec 08             	sub    $0x8,%esp
  202b48:	50                   	push   %eax
  202b49:	ff 75 b4             	push   -0x4c(%ebp)
  202b4c:	e8 7b e6 ff ff       	call   2011cc <print_binary_var_no_newline>
  202b51:	83 c4 10             	add    $0x10,%esp
  202b54:	eb 18                	jmp    202b6e <kprintf_argc+0x533>
  202b56:	83 ec 08             	sub    $0x8,%esp
  202b59:	6a 00                	push   $0x0
  202b5b:	ff 75 b4             	push   -0x4c(%ebp)
  202b5e:	e8 69 e6 ff ff       	call   2011cc <print_binary_var_no_newline>
  202b63:	83 c4 10             	add    $0x10,%esp
  202b66:	eb 06                	jmp    202b6e <kprintf_argc+0x533>
  202b68:	e8 5c fa ff ff       	call   2025c9 <nop>
  202b6d:	90                   	nop
  202b6e:	0f b6 45 e6          	movzbl -0x1a(%ebp),%eax
  202b72:	8d 50 01             	lea    0x1(%eax),%edx
  202b75:	8b 45 d0             	mov    -0x30(%ebp),%eax
  202b78:	0f b7 44 90 02       	movzwl 0x2(%eax,%edx,4),%eax
  202b7d:	83 c0 01             	add    $0x1,%eax
  202b80:	0f b7 d0             	movzwl %ax,%edx
  202b83:	0f b6 45 e6          	movzbl -0x1a(%ebp),%eax
  202b87:	8d 48 01             	lea    0x1(%eax),%ecx
  202b8a:	8b 45 d0             	mov    -0x30(%ebp),%eax
  202b8d:	0f b7 04 88          	movzwl (%eax,%ecx,4),%eax
  202b91:	0f b7 c0             	movzwl %ax,%eax
  202b94:	83 ec 04             	sub    $0x4,%esp
  202b97:	52                   	push   %edx
  202b98:	50                   	push   %eax
  202b99:	ff 75 0c             	push   0xc(%ebp)
  202b9c:	e8 2e fa ff ff       	call   2025cf <terminal_write_offsets>
  202ba1:	83 c4 10             	add    $0x10,%esp
  202ba4:	0f b6 45 e6          	movzbl -0x1a(%ebp),%eax
  202ba8:	83 c0 01             	add    $0x1,%eax
  202bab:	88 45 e6             	mov    %al,-0x1a(%ebp)
  202bae:	0f b6 45 e6          	movzbl -0x1a(%ebp),%eax
  202bb2:	3a 45 e5             	cmp    -0x1b(%ebp),%al
  202bb5:	0f 82 82 fd ff ff    	jb     20293d <kprintf_argc+0x302>
  202bbb:	89 dc                	mov    %ebx,%esp
  202bbd:	8d 65 f4             	lea    -0xc(%ebp),%esp
  202bc0:	5b                   	pop    %ebx
  202bc1:	5e                   	pop    %esi
  202bc2:	5f                   	pop    %edi
  202bc3:	5d                   	pop    %ebp
  202bc4:	c3                   	ret

00202bc5 <count_char>:
  202bc5:	55                   	push   %ebp
  202bc6:	89 e5                	mov    %esp,%ebp
  202bc8:	83 ec 14             	sub    $0x14,%esp
  202bcb:	8b 45 0c             	mov    0xc(%ebp),%eax
  202bce:	88 45 ec             	mov    %al,-0x14(%ebp)
  202bd1:	8b 45 08             	mov    0x8(%ebp),%eax
  202bd4:	89 45 fc             	mov    %eax,-0x4(%ebp)
  202bd7:	c6 45 fb 00          	movb   $0x0,-0x5(%ebp)
  202bdb:	eb 19                	jmp    202bf6 <count_char+0x31>
  202bdd:	8b 45 fc             	mov    -0x4(%ebp),%eax
  202be0:	0f b6 00             	movzbl (%eax),%eax
  202be3:	38 45 ec             	cmp    %al,-0x14(%ebp)
  202be6:	75 0a                	jne    202bf2 <count_char+0x2d>
  202be8:	0f b6 45 fb          	movzbl -0x5(%ebp),%eax
  202bec:	83 c0 01             	add    $0x1,%eax
  202bef:	88 45 fb             	mov    %al,-0x5(%ebp)
  202bf2:	83 45 fc 01          	addl   $0x1,-0x4(%ebp)
  202bf6:	8b 45 fc             	mov    -0x4(%ebp),%eax
  202bf9:	0f b6 00             	movzbl (%eax),%eax
  202bfc:	84 c0                	test   %al,%al
  202bfe:	75 dd                	jne    202bdd <count_char+0x18>
  202c00:	0f b6 45 fb          	movzbl -0x5(%ebp),%eax
  202c04:	c9                   	leave
  202c05:	c3                   	ret

00202c06 <_abort>:
  202c06:	55                   	push   %ebp
  202c07:	89 e5                	mov    %esp,%ebp
  202c09:	83 ec 08             	sub    $0x8,%esp
  202c0c:	83 ec 0c             	sub    $0xc,%esp
  202c0f:	68 d9 62 20 00       	push   $0x2062d9
  202c14:	e8 be ed ff ff       	call   2019d7 <terminal_writestring>
  202c19:	83 c4 10             	add    $0x10,%esp
  202c1c:	fa                   	cli
  202c1d:	f4                   	hlt
  202c1e:	eb fc                	jmp    202c1c <_abort+0x16>

00202c20 <_abort_msg>:
  202c20:	55                   	push   %ebp
  202c21:	89 e5                	mov    %esp,%ebp
  202c23:	83 ec 08             	sub    $0x8,%esp
  202c26:	83 ec 0c             	sub    $0xc,%esp
  202c29:	ff 75 0c             	push   0xc(%ebp)
  202c2c:	ff 75 10             	push   0x10(%ebp)
  202c2f:	ff 75 08             	push   0x8(%ebp)
  202c32:	68 e2 62 20 00       	push   $0x2062e2
  202c37:	6a 04                	push   $0x4
  202c39:	e8 fd f9 ff ff       	call   20263b <kprintf_argc>
  202c3e:	83 c4 20             	add    $0x20,%esp
  202c41:	e8 c0 ff ff ff       	call   202c06 <_abort>

00202c46 <assert_handler>:
  202c46:	55                   	push   %ebp
  202c47:	89 e5                	mov    %esp,%ebp
  202c49:	83 ec 18             	sub    $0x18,%esp
  202c4c:	8b 45 08             	mov    0x8(%ebp),%eax
  202c4f:	88 45 f4             	mov    %al,-0xc(%ebp)
  202c52:	0f b6 45 f4          	movzbl -0xc(%ebp),%eax
  202c56:	83 f0 01             	xor    $0x1,%eax
  202c59:	84 c0                	test   %al,%al
  202c5b:	74 23                	je     202c80 <assert_handler+0x3a>
  202c5d:	83 ec 08             	sub    $0x8,%esp
  202c60:	68 f9 62 20 00       	push   $0x2062f9
  202c65:	6a 01                	push   $0x1
  202c67:	e8 cf f9 ff ff       	call   20263b <kprintf_argc>
  202c6c:	83 c4 10             	add    $0x10,%esp
  202c6f:	83 ec 04             	sub    $0x4,%esp
  202c72:	ff 75 14             	push   0x14(%ebp)
  202c75:	ff 75 10             	push   0x10(%ebp)
  202c78:	ff 75 0c             	push   0xc(%ebp)
  202c7b:	e8 a0 ff ff ff       	call   202c20 <_abort_msg>
  202c80:	90                   	nop
  202c81:	c9                   	leave
  202c82:	c3                   	ret

00202c83 <is_valid_gate_type32>:
  202c83:	55                   	push   %ebp
  202c84:	89 e5                	mov    %esp,%ebp
  202c86:	83 7d 08 07          	cmpl   $0x7,0x8(%ebp)
  202c8a:	77 08                	ja     202c94 <is_valid_gate_type32+0x11>
  202c8c:	83 7d 08 05          	cmpl   $0x5,0x8(%ebp)
  202c90:	73 0d                	jae    202c9f <is_valid_gate_type32+0x1c>
  202c92:	eb 12                	jmp    202ca6 <is_valid_gate_type32+0x23>
  202c94:	8b 45 08             	mov    0x8(%ebp),%eax
  202c97:	83 e8 0e             	sub    $0xe,%eax
  202c9a:	83 f8 01             	cmp    $0x1,%eax
  202c9d:	77 07                	ja     202ca6 <is_valid_gate_type32+0x23>
  202c9f:	b8 01 00 00 00       	mov    $0x1,%eax
  202ca4:	eb 05                	jmp    202cab <is_valid_gate_type32+0x28>
  202ca6:	b8 00 00 00 00       	mov    $0x0,%eax
  202cab:	5d                   	pop    %ebp
  202cac:	c3                   	ret

00202cad <__lidt>:
  202cad:	55                   	push   %ebp
  202cae:	89 e5                	mov    %esp,%ebp
  202cb0:	0f 01 5d 08          	lidtl  0x8(%ebp)
  202cb4:	90                   	nop
  202cb5:	5d                   	pop    %ebp
  202cb6:	c3                   	ret

00202cb7 <__sti>:
  202cb7:	55                   	push   %ebp
  202cb8:	89 e5                	mov    %esp,%ebp
  202cba:	fb                   	sti
  202cbb:	90                   	nop
  202cbc:	5d                   	pop    %ebp
  202cbd:	c3                   	ret

00202cbe <exception_handler>:
  202cbe:	55                   	push   %ebp
  202cbf:	89 e5                	mov    %esp,%ebp
  202cc1:	fa                   	cli
  202cc2:	f4                   	hlt
  202cc3:	eb fc                	jmp    202cc1 <exception_handler+0x3>

00202cc5 <idt_set_descriptor>:
  202cc5:	55                   	push   %ebp
  202cc6:	89 e5                	mov    %esp,%ebp
  202cc8:	83 ec 28             	sub    $0x28,%esp
  202ccb:	8b 4d 08             	mov    0x8(%ebp),%ecx
  202cce:	8b 55 14             	mov    0x14(%ebp),%edx
  202cd1:	8b 45 18             	mov    0x18(%ebp),%eax
  202cd4:	88 4d e4             	mov    %cl,-0x1c(%ebp)
  202cd7:	88 55 e0             	mov    %dl,-0x20(%ebp)
  202cda:	88 45 dc             	mov    %al,-0x24(%ebp)
  202cdd:	ff 75 10             	push   0x10(%ebp)
  202ce0:	e8 9e ff ff ff       	call   202c83 <is_valid_gate_type32>
  202ce5:	83 c4 04             	add    $0x4,%esp
  202ce8:	0f b6 c0             	movzbl %al,%eax
  202ceb:	68 0b 63 20 00       	push   $0x20630b
  202cf0:	6a 23                	push   $0x23
  202cf2:	68 15 63 20 00       	push   $0x206315
  202cf7:	50                   	push   %eax
  202cf8:	e8 49 ff ff ff       	call   202c46 <assert_handler>
  202cfd:	83 c4 10             	add    $0x10,%esp
  202d00:	0f b6 45 e4          	movzbl -0x1c(%ebp),%eax
  202d04:	c1 e0 03             	shl    $0x3,%eax
  202d07:	05 20 31 23 00       	add    $0x233120,%eax
  202d0c:	89 45 f4             	mov    %eax,-0xc(%ebp)
  202d0f:	8b 45 0c             	mov    0xc(%ebp),%eax
  202d12:	89 c2                	mov    %eax,%edx
  202d14:	8b 45 f4             	mov    -0xc(%ebp),%eax
  202d17:	66 89 10             	mov    %dx,(%eax)
  202d1a:	8b 45 0c             	mov    0xc(%ebp),%eax
  202d1d:	c1 e8 10             	shr    $0x10,%eax
  202d20:	89 c2                	mov    %eax,%edx
  202d22:	8b 45 f4             	mov    -0xc(%ebp),%eax
  202d25:	66 89 50 06          	mov    %dx,0x6(%eax)
  202d29:	8b 45 f4             	mov    -0xc(%ebp),%eax
  202d2c:	0f b6 50 02          	movzbl 0x2(%eax),%edx
  202d30:	83 e2 fc             	and    $0xfffffffc,%edx
  202d33:	88 50 02             	mov    %dl,0x2(%eax)
  202d36:	8b 45 f4             	mov    -0xc(%ebp),%eax
  202d39:	0f b6 50 02          	movzbl 0x2(%eax),%edx
  202d3d:	83 e2 fb             	and    $0xfffffffb,%edx
  202d40:	88 50 02             	mov    %dl,0x2(%eax)
  202d43:	8b 45 f4             	mov    -0xc(%ebp),%eax
  202d46:	0f b6 50 02          	movzbl 0x2(%eax),%edx
  202d4a:	83 e2 07             	and    $0x7,%edx
  202d4d:	83 ca 10             	or     $0x10,%edx
  202d50:	88 50 02             	mov    %dl,0x2(%eax)
  202d53:	0f b6 50 03          	movzbl 0x3(%eax),%edx
  202d57:	83 e2 00             	and    $0x0,%edx
  202d5a:	88 50 03             	mov    %dl,0x3(%eax)
  202d5d:	0f b6 45 e0          	movzbl -0x20(%ebp),%eax
  202d61:	83 e0 03             	and    $0x3,%eax
  202d64:	89 c2                	mov    %eax,%edx
  202d66:	8b 45 f4             	mov    -0xc(%ebp),%eax
  202d69:	83 e2 03             	and    $0x3,%edx
  202d6c:	89 d1                	mov    %edx,%ecx
  202d6e:	c1 e1 05             	shl    $0x5,%ecx
  202d71:	0f b6 50 05          	movzbl 0x5(%eax),%edx
  202d75:	83 e2 9f             	and    $0xffffff9f,%edx
  202d78:	09 ca                	or     %ecx,%edx
  202d7a:	88 50 05             	mov    %dl,0x5(%eax)
  202d7d:	8b 45 f4             	mov    -0xc(%ebp),%eax
  202d80:	0f b6 55 dc          	movzbl -0x24(%ebp),%edx
  202d84:	89 d1                	mov    %edx,%ecx
  202d86:	c1 e1 07             	shl    $0x7,%ecx
  202d89:	0f b6 50 05          	movzbl 0x5(%eax),%edx
  202d8d:	83 e2 7f             	and    $0x7f,%edx
  202d90:	09 ca                	or     %ecx,%edx
  202d92:	88 50 05             	mov    %dl,0x5(%eax)
  202d95:	8b 45 10             	mov    0x10(%ebp),%eax
  202d98:	83 e0 0f             	and    $0xf,%eax
  202d9b:	8b 55 f4             	mov    -0xc(%ebp),%edx
  202d9e:	83 e0 0f             	and    $0xf,%eax
  202da1:	89 c1                	mov    %eax,%ecx
  202da3:	0f b6 42 05          	movzbl 0x5(%edx),%eax
  202da7:	83 e0 f0             	and    $0xfffffff0,%eax
  202daa:	09 c8                	or     %ecx,%eax
  202dac:	88 42 05             	mov    %al,0x5(%edx)
  202daf:	8b 45 f4             	mov    -0xc(%ebp),%eax
  202db2:	c6 40 04 00          	movb   $0x0,0x4(%eax)
  202db6:	8b 45 f4             	mov    -0xc(%ebp),%eax
  202db9:	0f b6 50 05          	movzbl 0x5(%eax),%edx
  202dbd:	83 e2 ef             	and    $0xffffffef,%edx
  202dc0:	88 50 05             	mov    %dl,0x5(%eax)
  202dc3:	90                   	nop
  202dc4:	c9                   	leave
  202dc5:	c3                   	ret

00202dc6 <idt_init>:
  202dc6:	55                   	push   %ebp
  202dc7:	89 e5                	mov    %esp,%ebp
  202dc9:	83 ec 18             	sub    $0x18,%esp
  202dcc:	c7 05 22 39 23 00 20 	movl   $0x233120,0x233922
  202dd3:	31 23 00 
  202dd6:	66 c7 05 20 39 23 00 	movw   $0x7ff,0x233920
  202ddd:	ff 07 
  202ddf:	c6 45 f7 00          	movb   $0x0,-0x9(%ebp)
  202de3:	eb 37                	jmp    202e1c <idt_init+0x56>
  202de5:	0f b6 45 f7          	movzbl -0x9(%ebp),%eax
  202de9:	8b 14 85 f2 33 20 00 	mov    0x2033f2(,%eax,4),%edx
  202df0:	0f b6 45 f7          	movzbl -0x9(%ebp),%eax
  202df4:	83 ec 0c             	sub    $0xc,%esp
  202df7:	6a 01                	push   $0x1
  202df9:	6a 00                	push   $0x0
  202dfb:	6a 0e                	push   $0xe
  202dfd:	52                   	push   %edx
  202dfe:	50                   	push   %eax
  202dff:	e8 c1 fe ff ff       	call   202cc5 <idt_set_descriptor>
  202e04:	83 c4 20             	add    $0x20,%esp
  202e07:	0f b6 45 f7          	movzbl -0x9(%ebp),%eax
  202e0b:	c6 80 40 39 23 00 01 	movb   $0x1,0x233940(%eax)
  202e12:	0f b6 45 f7          	movzbl -0x9(%ebp),%eax
  202e16:	83 c0 01             	add    $0x1,%eax
  202e19:	88 45 f7             	mov    %al,-0x9(%ebp)
  202e1c:	80 7d f7 1f          	cmpb   $0x1f,-0x9(%ebp)
  202e20:	76 c3                	jbe    202de5 <idt_init+0x1f>
  202e22:	c6 45 f6 20          	movb   $0x20,-0xa(%ebp)
  202e26:	eb 3d                	jmp    202e65 <idt_init+0x9f>
  202e28:	80 7d f6 22          	cmpb   $0x22,-0xa(%ebp)
  202e2c:	74 2d                	je     202e5b <idt_init+0x95>
  202e2e:	0f b6 45 f6          	movzbl -0xa(%ebp),%eax
  202e32:	8b 14 85 f2 33 20 00 	mov    0x2033f2(,%eax,4),%edx
  202e39:	0f b6 45 f6          	movzbl -0xa(%ebp),%eax
  202e3d:	83 ec 0c             	sub    $0xc,%esp
  202e40:	6a 01                	push   $0x1
  202e42:	6a 00                	push   $0x0
  202e44:	6a 0e                	push   $0xe
  202e46:	52                   	push   %edx
  202e47:	50                   	push   %eax
  202e48:	e8 78 fe ff ff       	call   202cc5 <idt_set_descriptor>
  202e4d:	83 c4 20             	add    $0x20,%esp
  202e50:	0f b6 45 f6          	movzbl -0xa(%ebp),%eax
  202e54:	c6 80 40 39 23 00 01 	movb   $0x1,0x233940(%eax)
  202e5b:	0f b6 45 f6          	movzbl -0xa(%ebp),%eax
  202e5f:	83 c0 01             	add    $0x1,%eax
  202e62:	88 45 f6             	mov    %al,-0xa(%ebp)
  202e65:	80 7d f6 31          	cmpb   $0x31,-0xa(%ebp)
  202e69:	76 bd                	jbe    202e28 <idt_init+0x62>
  202e6b:	83 ec 0c             	sub    $0xc,%esp
  202e6e:	6a 01                	push   $0x1
  202e70:	6a 00                	push   $0x0
  202e72:	6a 0e                	push   $0xe
  202e74:	68 47 35 20 00       	push   $0x203547
  202e79:	6a 08                	push   $0x8
  202e7b:	e8 45 fe ff ff       	call   202cc5 <idt_set_descriptor>
  202e80:	83 c4 20             	add    $0x20,%esp
  202e83:	c6 05 48 39 23 00 01 	movb   $0x1,0x233948
  202e8a:	83 ec 0c             	sub    $0xc,%esp
  202e8d:	6a 01                	push   $0x1
  202e8f:	6a 00                	push   $0x0
  202e91:	6a 0e                	push   $0xe
  202e93:	68 c6 35 20 00       	push   $0x2035c6
  202e98:	6a 0d                	push   $0xd
  202e9a:	e8 26 fe ff ff       	call   202cc5 <idt_set_descriptor>
  202e9f:	83 c4 20             	add    $0x20,%esp
  202ea2:	c6 05 4d 39 23 00 01 	movb   $0x1,0x23394d
  202ea9:	83 ec 0c             	sub    $0xc,%esp
  202eac:	6a 01                	push   $0x1
  202eae:	6a 00                	push   $0x0
  202eb0:	6a 0e                	push   $0xe
  202eb2:	68 11 36 20 00       	push   $0x203611
  202eb7:	6a 21                	push   $0x21
  202eb9:	e8 07 fe ff ff       	call   202cc5 <idt_set_descriptor>
  202ebe:	83 c4 20             	add    $0x20,%esp
  202ec1:	c6 05 61 39 23 00 01 	movb   $0x1,0x233961
  202ec8:	83 ec 0c             	sub    $0xc,%esp
  202ecb:	6a 01                	push   $0x1
  202ecd:	6a 00                	push   $0x0
  202ecf:	6a 0e                	push   $0xe
  202ed1:	68 4b 36 20 00       	push   $0x20364b
  202ed6:	6a 2c                	push   $0x2c
  202ed8:	e8 e8 fd ff ff       	call   202cc5 <idt_set_descriptor>
  202edd:	83 c4 20             	add    $0x20,%esp
  202ee0:	c6 05 6c 39 23 00 01 	movb   $0x1,0x23396c
  202ee7:	83 ec 08             	sub    $0x8,%esp
  202eea:	83 ec 08             	sub    $0x8,%esp
  202eed:	89 e0                	mov    %esp,%eax
  202eef:	8b 15 20 39 23 00    	mov    0x233920,%edx
  202ef5:	89 10                	mov    %edx,(%eax)
  202ef7:	0f b7 15 24 39 23 00 	movzwl 0x233924,%edx
  202efe:	66 89 50 04          	mov    %dx,0x4(%eax)
  202f02:	e8 a6 fd ff ff       	call   202cad <__lidt>
  202f07:	83 c4 10             	add    $0x10,%esp
  202f0a:	e8 a8 fd ff ff       	call   202cb7 <__sti>
  202f0f:	90                   	nop
  202f10:	c9                   	leave
  202f11:	c3                   	ret
  202f12:	66 90                	xchg   %ax,%ax
  202f14:	66 90                	xchg   %ax,%ax
  202f16:	66 90                	xchg   %ax,%ax
  202f18:	66 90                	xchg   %ax,%ax
  202f1a:	66 90                	xchg   %ax,%ax
  202f1c:	66 90                	xchg   %ax,%ax
  202f1e:	66 90                	xchg   %ax,%ax

00202f20 <hlt_loop>:
  202f20:	b8 cd ab 34 12       	mov    $0x1234abcd,%eax
  202f25:	fa                   	cli
  202f26:	f4                   	hlt
  202f27:	eb f7                	jmp    202f20 <hlt_loop>

00202f29 <isr_stub_0>:
  202f29:	55                   	push   %ebp
  202f2a:	89 e5                	mov    %esp,%ebp
  202f2c:	6a 00                	push   $0x0
  202f2e:	68 30 63 20 00       	push   $0x206330
  202f33:	ff 35 2c 63 20 00    	push   0x20632c
  202f39:	e8 fd f6 ff ff       	call   20263b <kprintf_argc>
  202f3e:	89 ec                	mov    %ebp,%esp
  202f40:	5d                   	pop    %ebp
  202f41:	cf                   	iret

00202f42 <isr_stub_1>:
  202f42:	55                   	push   %ebp
  202f43:	89 e5                	mov    %esp,%ebp
  202f45:	6a 01                	push   $0x1
  202f47:	68 30 63 20 00       	push   $0x206330
  202f4c:	ff 35 2c 63 20 00    	push   0x20632c
  202f52:	e8 e4 f6 ff ff       	call   20263b <kprintf_argc>
  202f57:	89 ec                	mov    %ebp,%esp
  202f59:	5d                   	pop    %ebp
  202f5a:	cf                   	iret

00202f5b <isr_stub_2>:
  202f5b:	55                   	push   %ebp
  202f5c:	89 e5                	mov    %esp,%ebp
  202f5e:	6a 02                	push   $0x2
  202f60:	68 30 63 20 00       	push   $0x206330
  202f65:	ff 35 2c 63 20 00    	push   0x20632c
  202f6b:	e8 cb f6 ff ff       	call   20263b <kprintf_argc>
  202f70:	89 ec                	mov    %ebp,%esp
  202f72:	5d                   	pop    %ebp
  202f73:	cf                   	iret

00202f74 <isr_stub_3>:
  202f74:	55                   	push   %ebp
  202f75:	89 e5                	mov    %esp,%ebp
  202f77:	6a 03                	push   $0x3
  202f79:	68 30 63 20 00       	push   $0x206330
  202f7e:	ff 35 2c 63 20 00    	push   0x20632c
  202f84:	e8 b2 f6 ff ff       	call   20263b <kprintf_argc>
  202f89:	89 ec                	mov    %ebp,%esp
  202f8b:	5d                   	pop    %ebp
  202f8c:	cf                   	iret

00202f8d <isr_stub_4>:
  202f8d:	55                   	push   %ebp
  202f8e:	89 e5                	mov    %esp,%ebp
  202f90:	6a 04                	push   $0x4
  202f92:	68 30 63 20 00       	push   $0x206330
  202f97:	ff 35 2c 63 20 00    	push   0x20632c
  202f9d:	e8 99 f6 ff ff       	call   20263b <kprintf_argc>
  202fa2:	89 ec                	mov    %ebp,%esp
  202fa4:	5d                   	pop    %ebp
  202fa5:	cf                   	iret

00202fa6 <isr_stub_5>:
  202fa6:	55                   	push   %ebp
  202fa7:	89 e5                	mov    %esp,%ebp
  202fa9:	6a 05                	push   $0x5
  202fab:	68 30 63 20 00       	push   $0x206330
  202fb0:	ff 35 2c 63 20 00    	push   0x20632c
  202fb6:	e8 80 f6 ff ff       	call   20263b <kprintf_argc>
  202fbb:	89 ec                	mov    %ebp,%esp
  202fbd:	5d                   	pop    %ebp
  202fbe:	cf                   	iret

00202fbf <isr_stub_6>:
  202fbf:	55                   	push   %ebp
  202fc0:	89 e5                	mov    %esp,%ebp
  202fc2:	6a 06                	push   $0x6
  202fc4:	68 30 63 20 00       	push   $0x206330
  202fc9:	ff 35 2c 63 20 00    	push   0x20632c
  202fcf:	e8 67 f6 ff ff       	call   20263b <kprintf_argc>
  202fd4:	89 ec                	mov    %ebp,%esp
  202fd6:	5d                   	pop    %ebp
  202fd7:	cf                   	iret

00202fd8 <isr_stub_7>:
  202fd8:	55                   	push   %ebp
  202fd9:	89 e5                	mov    %esp,%ebp
  202fdb:	6a 07                	push   $0x7
  202fdd:	68 30 63 20 00       	push   $0x206330
  202fe2:	ff 35 2c 63 20 00    	push   0x20632c
  202fe8:	e8 4e f6 ff ff       	call   20263b <kprintf_argc>
  202fed:	89 ec                	mov    %ebp,%esp
  202fef:	5d                   	pop    %ebp
  202ff0:	cf                   	iret

00202ff1 <isr_stub_8>:
  202ff1:	55                   	push   %ebp
  202ff2:	89 e5                	mov    %esp,%ebp
  202ff4:	6a 08                	push   $0x8
  202ff6:	68 30 63 20 00       	push   $0x206330
  202ffb:	ff 35 2c 63 20 00    	push   0x20632c
  203001:	e8 35 f6 ff ff       	call   20263b <kprintf_argc>
  203006:	89 ec                	mov    %ebp,%esp
  203008:	5d                   	pop    %ebp
  203009:	cf                   	iret

0020300a <isr_stub_9>:
  20300a:	55                   	push   %ebp
  20300b:	89 e5                	mov    %esp,%ebp
  20300d:	6a 09                	push   $0x9
  20300f:	68 30 63 20 00       	push   $0x206330
  203014:	ff 35 2c 63 20 00    	push   0x20632c
  20301a:	e8 1c f6 ff ff       	call   20263b <kprintf_argc>
  20301f:	89 ec                	mov    %ebp,%esp
  203021:	5d                   	pop    %ebp
  203022:	cf                   	iret

00203023 <isr_stub_10>:
  203023:	55                   	push   %ebp
  203024:	89 e5                	mov    %esp,%ebp
  203026:	6a 0a                	push   $0xa
  203028:	68 30 63 20 00       	push   $0x206330
  20302d:	ff 35 2c 63 20 00    	push   0x20632c
  203033:	e8 03 f6 ff ff       	call   20263b <kprintf_argc>
  203038:	89 ec                	mov    %ebp,%esp
  20303a:	5d                   	pop    %ebp
  20303b:	cf                   	iret

0020303c <isr_stub_11>:
  20303c:	55                   	push   %ebp
  20303d:	89 e5                	mov    %esp,%ebp
  20303f:	6a 0b                	push   $0xb
  203041:	68 30 63 20 00       	push   $0x206330
  203046:	ff 35 2c 63 20 00    	push   0x20632c
  20304c:	e8 ea f5 ff ff       	call   20263b <kprintf_argc>
  203051:	89 ec                	mov    %ebp,%esp
  203053:	5d                   	pop    %ebp
  203054:	cf                   	iret

00203055 <isr_stub_12>:
  203055:	55                   	push   %ebp
  203056:	89 e5                	mov    %esp,%ebp
  203058:	6a 0c                	push   $0xc
  20305a:	68 30 63 20 00       	push   $0x206330
  20305f:	ff 35 2c 63 20 00    	push   0x20632c
  203065:	e8 d1 f5 ff ff       	call   20263b <kprintf_argc>
  20306a:	89 ec                	mov    %ebp,%esp
  20306c:	5d                   	pop    %ebp
  20306d:	cf                   	iret

0020306e <isr_stub_13>:
  20306e:	55                   	push   %ebp
  20306f:	89 e5                	mov    %esp,%ebp
  203071:	6a 0d                	push   $0xd
  203073:	68 30 63 20 00       	push   $0x206330
  203078:	ff 35 2c 63 20 00    	push   0x20632c
  20307e:	e8 b8 f5 ff ff       	call   20263b <kprintf_argc>
  203083:	89 ec                	mov    %ebp,%esp
  203085:	5d                   	pop    %ebp
  203086:	cf                   	iret

00203087 <isr_stub_14>:
  203087:	55                   	push   %ebp
  203088:	89 e5                	mov    %esp,%ebp
  20308a:	6a 0e                	push   $0xe
  20308c:	68 30 63 20 00       	push   $0x206330
  203091:	ff 35 2c 63 20 00    	push   0x20632c
  203097:	e8 9f f5 ff ff       	call   20263b <kprintf_argc>
  20309c:	89 ec                	mov    %ebp,%esp
  20309e:	5d                   	pop    %ebp
  20309f:	cf                   	iret

002030a0 <isr_stub_15>:
  2030a0:	55                   	push   %ebp
  2030a1:	89 e5                	mov    %esp,%ebp
  2030a3:	6a 0f                	push   $0xf
  2030a5:	68 30 63 20 00       	push   $0x206330
  2030aa:	ff 35 2c 63 20 00    	push   0x20632c
  2030b0:	e8 86 f5 ff ff       	call   20263b <kprintf_argc>
  2030b5:	89 ec                	mov    %ebp,%esp
  2030b7:	5d                   	pop    %ebp
  2030b8:	cf                   	iret

002030b9 <isr_stub_16>:
  2030b9:	55                   	push   %ebp
  2030ba:	89 e5                	mov    %esp,%ebp
  2030bc:	6a 10                	push   $0x10
  2030be:	68 30 63 20 00       	push   $0x206330
  2030c3:	ff 35 2c 63 20 00    	push   0x20632c
  2030c9:	e8 6d f5 ff ff       	call   20263b <kprintf_argc>
  2030ce:	89 ec                	mov    %ebp,%esp
  2030d0:	5d                   	pop    %ebp
  2030d1:	cf                   	iret

002030d2 <isr_stub_17>:
  2030d2:	55                   	push   %ebp
  2030d3:	89 e5                	mov    %esp,%ebp
  2030d5:	6a 11                	push   $0x11
  2030d7:	68 30 63 20 00       	push   $0x206330
  2030dc:	ff 35 2c 63 20 00    	push   0x20632c
  2030e2:	e8 54 f5 ff ff       	call   20263b <kprintf_argc>
  2030e7:	89 ec                	mov    %ebp,%esp
  2030e9:	5d                   	pop    %ebp
  2030ea:	cf                   	iret

002030eb <isr_stub_18>:
  2030eb:	55                   	push   %ebp
  2030ec:	89 e5                	mov    %esp,%ebp
  2030ee:	6a 12                	push   $0x12
  2030f0:	68 30 63 20 00       	push   $0x206330
  2030f5:	ff 35 2c 63 20 00    	push   0x20632c
  2030fb:	e8 3b f5 ff ff       	call   20263b <kprintf_argc>
  203100:	89 ec                	mov    %ebp,%esp
  203102:	5d                   	pop    %ebp
  203103:	cf                   	iret

00203104 <isr_stub_19>:
  203104:	55                   	push   %ebp
  203105:	89 e5                	mov    %esp,%ebp
  203107:	6a 13                	push   $0x13
  203109:	68 30 63 20 00       	push   $0x206330
  20310e:	ff 35 2c 63 20 00    	push   0x20632c
  203114:	e8 22 f5 ff ff       	call   20263b <kprintf_argc>
  203119:	89 ec                	mov    %ebp,%esp
  20311b:	5d                   	pop    %ebp
  20311c:	cf                   	iret

0020311d <isr_stub_20>:
  20311d:	55                   	push   %ebp
  20311e:	89 e5                	mov    %esp,%ebp
  203120:	6a 14                	push   $0x14
  203122:	68 30 63 20 00       	push   $0x206330
  203127:	ff 35 2c 63 20 00    	push   0x20632c
  20312d:	e8 09 f5 ff ff       	call   20263b <kprintf_argc>
  203132:	89 ec                	mov    %ebp,%esp
  203134:	5d                   	pop    %ebp
  203135:	cf                   	iret

00203136 <isr_stub_21>:
  203136:	55                   	push   %ebp
  203137:	89 e5                	mov    %esp,%ebp
  203139:	6a 15                	push   $0x15
  20313b:	68 30 63 20 00       	push   $0x206330
  203140:	ff 35 2c 63 20 00    	push   0x20632c
  203146:	e8 f0 f4 ff ff       	call   20263b <kprintf_argc>
  20314b:	89 ec                	mov    %ebp,%esp
  20314d:	5d                   	pop    %ebp
  20314e:	cf                   	iret

0020314f <isr_stub_22>:
  20314f:	55                   	push   %ebp
  203150:	89 e5                	mov    %esp,%ebp
  203152:	6a 16                	push   $0x16
  203154:	68 30 63 20 00       	push   $0x206330
  203159:	ff 35 2c 63 20 00    	push   0x20632c
  20315f:	e8 d7 f4 ff ff       	call   20263b <kprintf_argc>
  203164:	89 ec                	mov    %ebp,%esp
  203166:	5d                   	pop    %ebp
  203167:	cf                   	iret

00203168 <isr_stub_23>:
  203168:	55                   	push   %ebp
  203169:	89 e5                	mov    %esp,%ebp
  20316b:	6a 17                	push   $0x17
  20316d:	68 30 63 20 00       	push   $0x206330
  203172:	ff 35 2c 63 20 00    	push   0x20632c
  203178:	e8 be f4 ff ff       	call   20263b <kprintf_argc>
  20317d:	89 ec                	mov    %ebp,%esp
  20317f:	5d                   	pop    %ebp
  203180:	cf                   	iret

00203181 <isr_stub_24>:
  203181:	55                   	push   %ebp
  203182:	89 e5                	mov    %esp,%ebp
  203184:	6a 18                	push   $0x18
  203186:	68 30 63 20 00       	push   $0x206330
  20318b:	ff 35 2c 63 20 00    	push   0x20632c
  203191:	e8 a5 f4 ff ff       	call   20263b <kprintf_argc>
  203196:	89 ec                	mov    %ebp,%esp
  203198:	5d                   	pop    %ebp
  203199:	cf                   	iret

0020319a <isr_stub_25>:
  20319a:	55                   	push   %ebp
  20319b:	89 e5                	mov    %esp,%ebp
  20319d:	6a 19                	push   $0x19
  20319f:	68 30 63 20 00       	push   $0x206330
  2031a4:	ff 35 2c 63 20 00    	push   0x20632c
  2031aa:	e8 8c f4 ff ff       	call   20263b <kprintf_argc>
  2031af:	89 ec                	mov    %ebp,%esp
  2031b1:	5d                   	pop    %ebp
  2031b2:	cf                   	iret

002031b3 <isr_stub_26>:
  2031b3:	55                   	push   %ebp
  2031b4:	89 e5                	mov    %esp,%ebp
  2031b6:	6a 1a                	push   $0x1a
  2031b8:	68 30 63 20 00       	push   $0x206330
  2031bd:	ff 35 2c 63 20 00    	push   0x20632c
  2031c3:	e8 73 f4 ff ff       	call   20263b <kprintf_argc>
  2031c8:	89 ec                	mov    %ebp,%esp
  2031ca:	5d                   	pop    %ebp
  2031cb:	cf                   	iret

002031cc <isr_stub_27>:
  2031cc:	55                   	push   %ebp
  2031cd:	89 e5                	mov    %esp,%ebp
  2031cf:	6a 1b                	push   $0x1b
  2031d1:	68 30 63 20 00       	push   $0x206330
  2031d6:	ff 35 2c 63 20 00    	push   0x20632c
  2031dc:	e8 5a f4 ff ff       	call   20263b <kprintf_argc>
  2031e1:	89 ec                	mov    %ebp,%esp
  2031e3:	5d                   	pop    %ebp
  2031e4:	cf                   	iret

002031e5 <isr_stub_28>:
  2031e5:	55                   	push   %ebp
  2031e6:	89 e5                	mov    %esp,%ebp
  2031e8:	6a 1c                	push   $0x1c
  2031ea:	68 30 63 20 00       	push   $0x206330
  2031ef:	ff 35 2c 63 20 00    	push   0x20632c
  2031f5:	e8 41 f4 ff ff       	call   20263b <kprintf_argc>
  2031fa:	89 ec                	mov    %ebp,%esp
  2031fc:	5d                   	pop    %ebp
  2031fd:	cf                   	iret

002031fe <isr_stub_29>:
  2031fe:	55                   	push   %ebp
  2031ff:	89 e5                	mov    %esp,%ebp
  203201:	6a 1d                	push   $0x1d
  203203:	68 30 63 20 00       	push   $0x206330
  203208:	ff 35 2c 63 20 00    	push   0x20632c
  20320e:	e8 28 f4 ff ff       	call   20263b <kprintf_argc>
  203213:	89 ec                	mov    %ebp,%esp
  203215:	5d                   	pop    %ebp
  203216:	cf                   	iret

00203217 <isr_stub_30>:
  203217:	55                   	push   %ebp
  203218:	89 e5                	mov    %esp,%ebp
  20321a:	6a 1e                	push   $0x1e
  20321c:	68 30 63 20 00       	push   $0x206330
  203221:	ff 35 2c 63 20 00    	push   0x20632c
  203227:	e8 0f f4 ff ff       	call   20263b <kprintf_argc>
  20322c:	89 ec                	mov    %ebp,%esp
  20322e:	5d                   	pop    %ebp
  20322f:	cf                   	iret

00203230 <isr_stub_31>:
  203230:	55                   	push   %ebp
  203231:	89 e5                	mov    %esp,%ebp
  203233:	6a 1f                	push   $0x1f
  203235:	68 30 63 20 00       	push   $0x206330
  20323a:	ff 35 2c 63 20 00    	push   0x20632c
  203240:	e8 f6 f3 ff ff       	call   20263b <kprintf_argc>
  203245:	89 ec                	mov    %ebp,%esp
  203247:	5d                   	pop    %ebp
  203248:	cf                   	iret

00203249 <isr_stub_32>:
  203249:	55                   	push   %ebp
  20324a:	89 e5                	mov    %esp,%ebp
  20324c:	6a 20                	push   $0x20
  20324e:	68 30 63 20 00       	push   $0x206330
  203253:	ff 35 2c 63 20 00    	push   0x20632c
  203259:	e8 dd f3 ff ff       	call   20263b <kprintf_argc>
  20325e:	89 ec                	mov    %ebp,%esp
  203260:	5d                   	pop    %ebp
  203261:	cf                   	iret

00203262 <isr_stub_33>:
  203262:	55                   	push   %ebp
  203263:	89 e5                	mov    %esp,%ebp
  203265:	6a 21                	push   $0x21
  203267:	68 30 63 20 00       	push   $0x206330
  20326c:	ff 35 2c 63 20 00    	push   0x20632c
  203272:	e8 c4 f3 ff ff       	call   20263b <kprintf_argc>
  203277:	89 ec                	mov    %ebp,%esp
  203279:	5d                   	pop    %ebp
  20327a:	cf                   	iret

0020327b <isr_stub_34>:
  20327b:	55                   	push   %ebp
  20327c:	89 e5                	mov    %esp,%ebp
  20327e:	6a 22                	push   $0x22
  203280:	68 30 63 20 00       	push   $0x206330
  203285:	ff 35 2c 63 20 00    	push   0x20632c
  20328b:	e8 ab f3 ff ff       	call   20263b <kprintf_argc>
  203290:	89 ec                	mov    %ebp,%esp
  203292:	5d                   	pop    %ebp
  203293:	cf                   	iret

00203294 <isr_stub_35>:
  203294:	55                   	push   %ebp
  203295:	89 e5                	mov    %esp,%ebp
  203297:	6a 23                	push   $0x23
  203299:	68 30 63 20 00       	push   $0x206330
  20329e:	ff 35 2c 63 20 00    	push   0x20632c
  2032a4:	e8 92 f3 ff ff       	call   20263b <kprintf_argc>
  2032a9:	89 ec                	mov    %ebp,%esp
  2032ab:	5d                   	pop    %ebp
  2032ac:	cf                   	iret

002032ad <isr_stub_36>:
  2032ad:	55                   	push   %ebp
  2032ae:	89 e5                	mov    %esp,%ebp
  2032b0:	6a 24                	push   $0x24
  2032b2:	68 30 63 20 00       	push   $0x206330
  2032b7:	ff 35 2c 63 20 00    	push   0x20632c
  2032bd:	e8 79 f3 ff ff       	call   20263b <kprintf_argc>
  2032c2:	89 ec                	mov    %ebp,%esp
  2032c4:	5d                   	pop    %ebp
  2032c5:	cf                   	iret

002032c6 <isr_stub_37>:
  2032c6:	55                   	push   %ebp
  2032c7:	89 e5                	mov    %esp,%ebp
  2032c9:	6a 25                	push   $0x25
  2032cb:	68 30 63 20 00       	push   $0x206330
  2032d0:	ff 35 2c 63 20 00    	push   0x20632c
  2032d6:	e8 60 f3 ff ff       	call   20263b <kprintf_argc>
  2032db:	89 ec                	mov    %ebp,%esp
  2032dd:	5d                   	pop    %ebp
  2032de:	cf                   	iret

002032df <isr_stub_38>:
  2032df:	55                   	push   %ebp
  2032e0:	89 e5                	mov    %esp,%ebp
  2032e2:	6a 26                	push   $0x26
  2032e4:	68 30 63 20 00       	push   $0x206330
  2032e9:	ff 35 2c 63 20 00    	push   0x20632c
  2032ef:	e8 47 f3 ff ff       	call   20263b <kprintf_argc>
  2032f4:	89 ec                	mov    %ebp,%esp
  2032f6:	5d                   	pop    %ebp
  2032f7:	cf                   	iret

002032f8 <isr_stub_39>:
  2032f8:	55                   	push   %ebp
  2032f9:	89 e5                	mov    %esp,%ebp
  2032fb:	6a 27                	push   $0x27
  2032fd:	68 30 63 20 00       	push   $0x206330
  203302:	ff 35 2c 63 20 00    	push   0x20632c
  203308:	e8 2e f3 ff ff       	call   20263b <kprintf_argc>
  20330d:	89 ec                	mov    %ebp,%esp
  20330f:	5d                   	pop    %ebp
  203310:	cf                   	iret

00203311 <isr_stub_40>:
  203311:	55                   	push   %ebp
  203312:	89 e5                	mov    %esp,%ebp
  203314:	6a 28                	push   $0x28
  203316:	68 30 63 20 00       	push   $0x206330
  20331b:	ff 35 2c 63 20 00    	push   0x20632c
  203321:	e8 15 f3 ff ff       	call   20263b <kprintf_argc>
  203326:	89 ec                	mov    %ebp,%esp
  203328:	5d                   	pop    %ebp
  203329:	cf                   	iret

0020332a <isr_stub_41>:
  20332a:	55                   	push   %ebp
  20332b:	89 e5                	mov    %esp,%ebp
  20332d:	6a 29                	push   $0x29
  20332f:	68 30 63 20 00       	push   $0x206330
  203334:	ff 35 2c 63 20 00    	push   0x20632c
  20333a:	e8 fc f2 ff ff       	call   20263b <kprintf_argc>
  20333f:	89 ec                	mov    %ebp,%esp
  203341:	5d                   	pop    %ebp
  203342:	cf                   	iret

00203343 <isr_stub_42>:
  203343:	55                   	push   %ebp
  203344:	89 e5                	mov    %esp,%ebp
  203346:	6a 2a                	push   $0x2a
  203348:	68 30 63 20 00       	push   $0x206330
  20334d:	ff 35 2c 63 20 00    	push   0x20632c
  203353:	e8 e3 f2 ff ff       	call   20263b <kprintf_argc>
  203358:	89 ec                	mov    %ebp,%esp
  20335a:	5d                   	pop    %ebp
  20335b:	cf                   	iret

0020335c <isr_stub_43>:
  20335c:	55                   	push   %ebp
  20335d:	89 e5                	mov    %esp,%ebp
  20335f:	6a 2b                	push   $0x2b
  203361:	68 30 63 20 00       	push   $0x206330
  203366:	ff 35 2c 63 20 00    	push   0x20632c
  20336c:	e8 ca f2 ff ff       	call   20263b <kprintf_argc>
  203371:	89 ec                	mov    %ebp,%esp
  203373:	5d                   	pop    %ebp
  203374:	cf                   	iret

00203375 <isr_stub_44>:
  203375:	55                   	push   %ebp
  203376:	89 e5                	mov    %esp,%ebp
  203378:	6a 2c                	push   $0x2c
  20337a:	68 30 63 20 00       	push   $0x206330
  20337f:	ff 35 2c 63 20 00    	push   0x20632c
  203385:	e8 b1 f2 ff ff       	call   20263b <kprintf_argc>
  20338a:	89 ec                	mov    %ebp,%esp
  20338c:	5d                   	pop    %ebp
  20338d:	cf                   	iret

0020338e <isr_stub_45>:
  20338e:	55                   	push   %ebp
  20338f:	89 e5                	mov    %esp,%ebp
  203391:	6a 2d                	push   $0x2d
  203393:	68 30 63 20 00       	push   $0x206330
  203398:	ff 35 2c 63 20 00    	push   0x20632c
  20339e:	e8 98 f2 ff ff       	call   20263b <kprintf_argc>
  2033a3:	89 ec                	mov    %ebp,%esp
  2033a5:	5d                   	pop    %ebp
  2033a6:	cf                   	iret

002033a7 <isr_stub_46>:
  2033a7:	55                   	push   %ebp
  2033a8:	89 e5                	mov    %esp,%ebp
  2033aa:	6a 2e                	push   $0x2e
  2033ac:	68 30 63 20 00       	push   $0x206330
  2033b1:	ff 35 2c 63 20 00    	push   0x20632c
  2033b7:	e8 7f f2 ff ff       	call   20263b <kprintf_argc>
  2033bc:	89 ec                	mov    %ebp,%esp
  2033be:	5d                   	pop    %ebp
  2033bf:	cf                   	iret

002033c0 <isr_stub_47>:
  2033c0:	55                   	push   %ebp
  2033c1:	89 e5                	mov    %esp,%ebp
  2033c3:	6a 2f                	push   $0x2f
  2033c5:	68 30 63 20 00       	push   $0x206330
  2033ca:	ff 35 2c 63 20 00    	push   0x20632c
  2033d0:	e8 66 f2 ff ff       	call   20263b <kprintf_argc>
  2033d5:	89 ec                	mov    %ebp,%esp
  2033d7:	5d                   	pop    %ebp
  2033d8:	cf                   	iret

002033d9 <isr_stub_48>:
  2033d9:	55                   	push   %ebp
  2033da:	89 e5                	mov    %esp,%ebp
  2033dc:	6a 30                	push   $0x30
  2033de:	68 30 63 20 00       	push   $0x206330
  2033e3:	ff 35 2c 63 20 00    	push   0x20632c
  2033e9:	e8 4d f2 ff ff       	call   20263b <kprintf_argc>
  2033ee:	89 ec                	mov    %ebp,%esp
  2033f0:	5d                   	pop    %ebp
  2033f1:	cf                   	iret

002033f2 <isr_stub_table>:
  2033f2:	29 2f                	sub    %ebp,(%edi)
  2033f4:	20 00                	and    %al,(%eax)
  2033f6:	42                   	inc    %edx
  2033f7:	2f                   	das
  2033f8:	20 00                	and    %al,(%eax)
  2033fa:	5b                   	pop    %ebx
  2033fb:	2f                   	das
  2033fc:	20 00                	and    %al,(%eax)
  2033fe:	74 2f                	je     20342f <isr_stub_table+0x3d>
  203400:	20 00                	and    %al,(%eax)
  203402:	8d 2f                	lea    (%edi),%ebp
  203404:	20 00                	and    %al,(%eax)
  203406:	a6                   	cmpsb  %es:(%edi),%ds:(%esi)
  203407:	2f                   	das
  203408:	20 00                	and    %al,(%eax)
  20340a:	bf 2f 20 00 d8       	mov    $0xd800202f,%edi
  20340f:	2f                   	das
  203410:	20 00                	and    %al,(%eax)
  203412:	f1                   	int1
  203413:	2f                   	das
  203414:	20 00                	and    %al,(%eax)
  203416:	0a 30                	or     (%eax),%dh
  203418:	20 00                	and    %al,(%eax)
  20341a:	23 30                	and    (%eax),%esi
  20341c:	20 00                	and    %al,(%eax)
  20341e:	3c 30                	cmp    $0x30,%al
  203420:	20 00                	and    %al,(%eax)
  203422:	55                   	push   %ebp
  203423:	30 20                	xor    %ah,(%eax)
  203425:	00 6e 30             	add    %ch,0x30(%esi)
  203428:	20 00                	and    %al,(%eax)
  20342a:	87 30                	xchg   %esi,(%eax)
  20342c:	20 00                	and    %al,(%eax)
  20342e:	a0 30 20 00 b9       	mov    0xb9002030,%al
  203433:	30 20                	xor    %ah,(%eax)
  203435:	00 d2                	add    %dl,%dl
  203437:	30 20                	xor    %ah,(%eax)
  203439:	00 eb                	add    %ch,%bl
  20343b:	30 20                	xor    %ah,(%eax)
  20343d:	00 04 31             	add    %al,(%ecx,%esi,1)
  203440:	20 00                	and    %al,(%eax)
  203442:	1d 31 20 00 36       	sbb    $0x36002031,%eax
  203447:	31 20                	xor    %esp,(%eax)
  203449:	00 4f 31             	add    %cl,0x31(%edi)
  20344c:	20 00                	and    %al,(%eax)
  20344e:	68 31 20 00 81       	push   $0x81002031
  203453:	31 20                	xor    %esp,(%eax)
  203455:	00 9a 31 20 00 b3    	add    %bl,-0x4cffdfcf(%edx)
  20345b:	31 20                	xor    %esp,(%eax)
  20345d:	00 cc                	add    %cl,%ah
  20345f:	31 20                	xor    %esp,(%eax)
  203461:	00 e5                	add    %ah,%ch
  203463:	31 20                	xor    %esp,(%eax)
  203465:	00 fe                	add    %bh,%dh
  203467:	31 20                	xor    %esp,(%eax)
  203469:	00 17                	add    %dl,(%edi)
  20346b:	32 20                	xor    (%eax),%ah
  20346d:	00 30                	add    %dh,(%eax)
  20346f:	32 20                	xor    (%eax),%ah
  203471:	00 49 32             	add    %cl,0x32(%ecx)
  203474:	20 00                	and    %al,(%eax)
  203476:	62 32                	bound  %esi,(%edx)
  203478:	20 00                	and    %al,(%eax)
  20347a:	7b 32                	jnp    2034ae <isr_stub_table+0xbc>
  20347c:	20 00                	and    %al,(%eax)
  20347e:	94                   	xchg   %eax,%esp
  20347f:	32 20                	xor    (%eax),%ah
  203481:	00 ad 32 20 00 c6    	add    %ch,-0x39ffdfce(%ebp)
  203487:	32 20                	xor    (%eax),%ah
  203489:	00 df                	add    %bl,%bh
  20348b:	32 20                	xor    (%eax),%ah
  20348d:	00 f8                	add    %bh,%al
  20348f:	32 20                	xor    (%eax),%ah
  203491:	00 11                	add    %dl,(%ecx)
  203493:	33 20                	xor    (%eax),%esp
  203495:	00 2a                	add    %ch,(%edx)
  203497:	33 20                	xor    (%eax),%esp
  203499:	00 43 33             	add    %al,0x33(%ebx)
  20349c:	20 00                	and    %al,(%eax)
  20349e:	5c                   	pop    %esp
  20349f:	33 20                	xor    (%eax),%esp
  2034a1:	00 75 33             	add    %dh,0x33(%ebp)
  2034a4:	20 00                	and    %al,(%eax)
  2034a6:	8e 33                	mov    (%ebx),%?
  2034a8:	20 00                	and    %al,(%eax)
  2034aa:	a7                   	cmpsl  %es:(%edi),%ds:(%esi)
  2034ab:	33 20                	xor    (%eax),%esp
  2034ad:	00 c0                	add    %al,%al
  2034af:	33 20                	xor    (%eax),%esp
  2034b1:	00 d9                	add    %bl,%cl
  2034b3:	33 20                	xor    (%eax),%esp
	...

002034b6 <interrupt_34_handler>:
  2034b6:	55                   	push   %ebp
  2034b7:	89 e5                	mov    %esp,%ebp
  2034b9:	6a 22                	push   $0x22
  2034bb:	68 30 63 20 00       	push   $0x206330
  2034c0:	ff 35 2c 63 20 00    	push   0x20632c
  2034c6:	e8 70 f1 ff ff       	call   20263b <kprintf_argc>
  2034cb:	83 c4 0c             	add    $0xc,%esp
  2034ce:	89 ec                	mov    %ebp,%esp
  2034d0:	5d                   	pop    %ebp
  2034d1:	cf                   	iret

002034d2 <interrupt_69_handler>:
  2034d2:	55                   	push   %ebp
  2034d3:	89 e5                	mov    %esp,%ebp
  2034d5:	6a 45                	push   $0x45
  2034d7:	68 4b 63 20 00       	push   $0x20634b
  2034dc:	ff 35 2c 63 20 00    	push   0x20632c
  2034e2:	e8 54 f1 ff ff       	call   20263b <kprintf_argc>
  2034e7:	83 c4 0c             	add    $0xc,%esp
  2034ea:	89 ec                	mov    %ebp,%esp
  2034ec:	5d                   	pop    %ebp
  2034ed:	cf                   	iret

002034ee <interrupt_8_fmt>:
  2034ee:	49                   	dec    %ecx
  2034ef:	6e                   	outsb  %ds:(%esi),(%dx)
  2034f0:	20 49 6e             	and    %cl,0x6e(%ecx)
  2034f3:	74 65                	je     20355a <interrupt_8_handler+0x13>
  2034f5:	72 72                	jb     203569 <interrupt_8_handler+0x22>
  2034f7:	75 70                	jne    203569 <interrupt_8_handler+0x22>
  2034f9:	74 20                	je     20351b <err_inf_fmt+0x5>
  2034fb:	68 61 6e 64 6c       	push   $0x6c646e61
  203500:	65 72 3a             	gs jb  20353d <err_inf_fmt+0x27>
  203503:	20 25 64 2c 20 44    	and    %ah,0x44202c64
  203509:	4f                   	dec    %edi
  20350a:	55                   	push   %ebp
  20350b:	42                   	inc    %edx
  20350c:	4c                   	dec    %esp
  20350d:	45                   	inc    %ebp
  20350e:	5f                   	pop    %edi
  20350f:	46                   	inc    %esi
  203510:	41                   	inc    %ecx
  203511:	55                   	push   %ebp
  203512:	4c                   	dec    %esp
  203513:	54                   	push   %esp
  203514:	0a 00                	or     (%eax),%al

00203516 <err_inf_fmt>:
  203516:	45                   	inc    %ebp
  203517:	72 72                	jb     20358b <interrupt_8_handler+0x44>
  203519:	6f                   	outsl  %ds:(%esi),(%dx)
  20351a:	72 20                	jb     20353c <err_inf_fmt+0x26>
  20351c:	43                   	inc    %ebx
  20351d:	6f                   	outsl  %ds:(%esi),(%dx)
  20351e:	64 65 20 3d 20 25 75 	fs and %bh,%gs:0x2c752520
  203525:	2c 
  203526:	20 45 49             	and    %al,0x49(%ebp)
  203529:	50                   	push   %eax
  20352a:	20 3d 20 25 68 2c    	and    %bh,0x2c682520
  203530:	20 43 53             	and    %al,0x53(%ebx)
  203533:	20 3d 20 25 75 2c    	and    %bh,0x2c752520
  203539:	20 45 66             	and    %al,0x66(%ebp)
  20353c:	6c                   	insb   (%dx),%es:(%edi)
  20353d:	61                   	popa
  20353e:	67 73 20             	addr16 jae 203561 <interrupt_8_handler+0x1a>
  203541:	3d 20 25 62 0a       	cmp    $0xa622520,%eax
	...

00203547 <interrupt_8_handler>:
  203547:	55                   	push   %ebp
  203548:	89 e5                	mov    %esp,%ebp
  20354a:	60                   	pusha
  20354b:	1e                   	push   %ds
  20354c:	06                   	push   %es
  20354d:	0f a0                	push   %fs
  20354f:	0f a8                	push   %gs
  203551:	6a 08                	push   $0x8
  203553:	68 ee 34 20 00       	push   $0x2034ee
  203558:	6a 02                	push   $0x2
  20355a:	e8 dc f0 ff ff       	call   20263b <kprintf_argc>
  20355f:	83 c4 0c             	add    $0xc,%esp
  203562:	8b 45 00             	mov    0x0(%ebp),%eax
  203565:	8b 5d 04             	mov    0x4(%ebp),%ebx
  203568:	b9 00 00 00 00       	mov    $0x0,%ecx
  20356d:	66 8b 4d 08          	mov    0x8(%ebp),%cx
  203571:	8b 55 0c             	mov    0xc(%ebp),%edx
  203574:	52                   	push   %edx
  203575:	51                   	push   %ecx
  203576:	53                   	push   %ebx
  203577:	50                   	push   %eax
  203578:	68 16 35 20 00       	push   $0x203516
  20357d:	6a 05                	push   $0x5
  20357f:	e8 b7 f0 ff ff       	call   20263b <kprintf_argc>
  203584:	83 c4 18             	add    $0x18,%esp
  203587:	0f a9                	pop    %gs
  203589:	0f a1                	pop    %fs
  20358b:	07                   	pop    %es
  20358c:	1f                   	pop    %ds
  20358d:	61                   	popa
  20358e:	89 ec                	mov    %ebp,%esp
  203590:	5d                   	pop    %ebp
  203591:	cf                   	iret

00203592 <interrupt_13_fmt>:
  203592:	49                   	dec    %ecx
  203593:	6e                   	outsb  %ds:(%esi),(%dx)
  203594:	20 49 6e             	and    %cl,0x6e(%ecx)
  203597:	74 65                	je     2035fe <interrupt_13_handler+0x38>
  203599:	72 72                	jb     20360d <interrupt_13_handler+0x47>
  20359b:	75 70                	jne    20360d <interrupt_13_handler+0x47>
  20359d:	74 20                	je     2035bf <interrupt_13_fmt+0x2d>
  20359f:	68 61 6e 64 6c       	push   $0x6c646e61
  2035a4:	65 72 3a             	gs jb  2035e1 <interrupt_13_handler+0x1b>
  2035a7:	20 25 64 2c 20 47    	and    %ah,0x47202c64
  2035ad:	45                   	inc    %ebp
  2035ae:	4e                   	dec    %esi
  2035af:	45                   	inc    %ebp
  2035b0:	52                   	push   %edx
  2035b1:	41                   	inc    %ecx
  2035b2:	4c                   	dec    %esp
  2035b3:	20 50 52             	and    %dl,0x52(%eax)
  2035b6:	4f                   	dec    %edi
  2035b7:	54                   	push   %esp
  2035b8:	45                   	inc    %ebp
  2035b9:	43                   	inc    %ebx
  2035ba:	54                   	push   %esp
  2035bb:	49                   	dec    %ecx
  2035bc:	4f                   	dec    %edi
  2035bd:	4e                   	dec    %esi
  2035be:	20 46 41             	and    %al,0x41(%esi)
  2035c1:	55                   	push   %ebp
  2035c2:	4c                   	dec    %esp
  2035c3:	54                   	push   %esp
  2035c4:	0a 00                	or     (%eax),%al

002035c6 <interrupt_13_handler>:
  2035c6:	55                   	push   %ebp
  2035c7:	89 e5                	mov    %esp,%ebp
  2035c9:	60                   	pusha
  2035ca:	1e                   	push   %ds
  2035cb:	06                   	push   %es
  2035cc:	0f a0                	push   %fs
  2035ce:	0f a8                	push   %gs
  2035d0:	6a 0d                	push   $0xd
  2035d2:	68 92 35 20 00       	push   $0x203592
  2035d7:	6a 02                	push   $0x2
  2035d9:	e8 5d f0 ff ff       	call   20263b <kprintf_argc>
  2035de:	83 c4 0c             	add    $0xc,%esp
  2035e1:	8b 45 04             	mov    0x4(%ebp),%eax
  2035e4:	8b 5d 08             	mov    0x8(%ebp),%ebx
  2035e7:	b9 00 00 00 00       	mov    $0x0,%ecx
  2035ec:	66 8b 4d 0c          	mov    0xc(%ebp),%cx
  2035f0:	8b 55 10             	mov    0x10(%ebp),%edx
  2035f3:	52                   	push   %edx
  2035f4:	51                   	push   %ecx
  2035f5:	53                   	push   %ebx
  2035f6:	50                   	push   %eax
  2035f7:	68 16 35 20 00       	push   $0x203516
  2035fc:	6a 05                	push   $0x5
  2035fe:	e8 38 f0 ff ff       	call   20263b <kprintf_argc>
  203603:	83 c4 18             	add    $0x18,%esp
  203606:	0f a9                	pop    %gs
  203608:	0f a1                	pop    %fs
  20360a:	07                   	pop    %es
  20360b:	1f                   	pop    %ds
  20360c:	61                   	popa
  20360d:	89 ec                	mov    %ebp,%esp
  20360f:	5d                   	pop    %ebp
  203610:	cf                   	iret

00203611 <interrupt_33_handler>:
  203611:	55                   	push   %ebp
  203612:	89 e5                	mov    %esp,%ebp
  203614:	60                   	pusha
  203615:	1e                   	push   %ds
  203616:	06                   	push   %es
  203617:	0f a0                	push   %fs
  203619:	0f a8                	push   %gs
  20361b:	b4 f4                	mov    $0xf4,%ah
  20361d:	e4 60                	in     $0x60,%al
  20361f:	8b 1d 20 6b 20 00    	mov    0x206b20,%ebx
  203625:	66 89 84 1b 00 80 0b 	mov    %ax,0xb8000(%ebx,%ebx,1)
  20362c:	00 
  20362d:	83 c3 01             	add    $0x1,%ebx
  203630:	89 1d 20 6b 20 00    	mov    %ebx,0x206b20
  203636:	6a 01                	push   $0x1
  203638:	e8 52 01 00 00       	call   20378f <PIC_sendEOI>
  20363d:	83 c4 04             	add    $0x4,%esp
  203640:	0f a9                	pop    %gs
  203642:	0f a1                	pop    %fs
  203644:	07                   	pop    %es
  203645:	1f                   	pop    %ds
  203646:	61                   	popa
  203647:	89 ec                	mov    %ebp,%esp
  203649:	5d                   	pop    %ebp
  20364a:	cf                   	iret

0020364b <interrupt_44_handler>:
  20364b:	55                   	push   %ebp
  20364c:	89 e5                	mov    %esp,%ebp
  20364e:	60                   	pusha
  20364f:	1e                   	push   %ds
  203650:	06                   	push   %es
  203651:	0f a0                	push   %fs
  203653:	0f a8                	push   %gs
  203655:	6a 2c                	push   $0x2c
  203657:	68 30 63 20 00       	push   $0x206330
  20365c:	ff 35 2c 63 20 00    	push   0x20632c
  203662:	e8 d4 ef ff ff       	call   20263b <kprintf_argc>
  203667:	83 c4 0c             	add    $0xc,%esp
  20366a:	6a 0c                	push   $0xc
  20366c:	e8 1e 01 00 00       	call   20378f <PIC_sendEOI>
  203671:	83 c4 04             	add    $0x4,%esp
  203674:	0f a9                	pop    %gs
  203676:	0f a1                	pop    %fs
  203678:	07                   	pop    %es
  203679:	1f                   	pop    %ds
  20367a:	61                   	popa
  20367b:	89 ec                	mov    %ebp,%esp
  20367d:	5d                   	pop    %ebp
  20367e:	cf                   	iret

0020367f <__outb>:
  20367f:	55                   	push   %ebp
  203680:	89 e5                	mov    %esp,%ebp
  203682:	83 ec 08             	sub    $0x8,%esp
  203685:	8b 55 08             	mov    0x8(%ebp),%edx
  203688:	8b 45 0c             	mov    0xc(%ebp),%eax
  20368b:	66 89 55 fc          	mov    %dx,-0x4(%ebp)
  20368f:	88 45 f8             	mov    %al,-0x8(%ebp)
  203692:	0f b6 45 f8          	movzbl -0x8(%ebp),%eax
  203696:	0f b7 55 fc          	movzwl -0x4(%ebp),%edx
  20369a:	ee                   	out    %al,(%dx)
  20369b:	90                   	nop
  20369c:	c9                   	leave
  20369d:	c3                   	ret

0020369e <__inb>:
  20369e:	55                   	push   %ebp
  20369f:	89 e5                	mov    %esp,%ebp
  2036a1:	83 ec 14             	sub    $0x14,%esp
  2036a4:	8b 45 08             	mov    0x8(%ebp),%eax
  2036a7:	66 89 45 ec          	mov    %ax,-0x14(%ebp)
  2036ab:	0f b7 45 ec          	movzwl -0x14(%ebp),%eax
  2036af:	89 c2                	mov    %eax,%edx
  2036b1:	ec                   	in     (%dx),%al
  2036b2:	88 45 ff             	mov    %al,-0x1(%ebp)
  2036b5:	0f b6 45 ff          	movzbl -0x1(%ebp),%eax
  2036b9:	c9                   	leave
  2036ba:	c3                   	ret

002036bb <io_wait>:
  2036bb:	55                   	push   %ebp
  2036bc:	89 e5                	mov    %esp,%ebp
  2036be:	6a 00                	push   $0x0
  2036c0:	68 80 00 00 00       	push   $0x80
  2036c5:	e8 b5 ff ff ff       	call   20367f <__outb>
  2036ca:	83 c4 08             	add    $0x8,%esp
  2036cd:	90                   	nop
  2036ce:	c9                   	leave
  2036cf:	c3                   	ret

002036d0 <PIC_remap>:
  2036d0:	55                   	push   %ebp
  2036d1:	89 e5                	mov    %esp,%ebp
  2036d3:	6a 11                	push   $0x11
  2036d5:	6a 20                	push   $0x20
  2036d7:	e8 a3 ff ff ff       	call   20367f <__outb>
  2036dc:	83 c4 08             	add    $0x8,%esp
  2036df:	e8 d7 ff ff ff       	call   2036bb <io_wait>
  2036e4:	6a 11                	push   $0x11
  2036e6:	68 a0 00 00 00       	push   $0xa0
  2036eb:	e8 8f ff ff ff       	call   20367f <__outb>
  2036f0:	83 c4 08             	add    $0x8,%esp
  2036f3:	e8 c3 ff ff ff       	call   2036bb <io_wait>
  2036f8:	8b 45 08             	mov    0x8(%ebp),%eax
  2036fb:	0f b6 c0             	movzbl %al,%eax
  2036fe:	50                   	push   %eax
  2036ff:	6a 21                	push   $0x21
  203701:	e8 79 ff ff ff       	call   20367f <__outb>
  203706:	83 c4 08             	add    $0x8,%esp
  203709:	e8 ad ff ff ff       	call   2036bb <io_wait>
  20370e:	8b 45 0c             	mov    0xc(%ebp),%eax
  203711:	0f b6 c0             	movzbl %al,%eax
  203714:	50                   	push   %eax
  203715:	68 a1 00 00 00       	push   $0xa1
  20371a:	e8 60 ff ff ff       	call   20367f <__outb>
  20371f:	83 c4 08             	add    $0x8,%esp
  203722:	e8 94 ff ff ff       	call   2036bb <io_wait>
  203727:	6a 04                	push   $0x4
  203729:	6a 21                	push   $0x21
  20372b:	e8 4f ff ff ff       	call   20367f <__outb>
  203730:	83 c4 08             	add    $0x8,%esp
  203733:	e8 83 ff ff ff       	call   2036bb <io_wait>
  203738:	6a 02                	push   $0x2
  20373a:	68 a1 00 00 00       	push   $0xa1
  20373f:	e8 3b ff ff ff       	call   20367f <__outb>
  203744:	83 c4 08             	add    $0x8,%esp
  203747:	e8 6f ff ff ff       	call   2036bb <io_wait>
  20374c:	6a 01                	push   $0x1
  20374e:	6a 21                	push   $0x21
  203750:	e8 2a ff ff ff       	call   20367f <__outb>
  203755:	83 c4 08             	add    $0x8,%esp
  203758:	e8 5e ff ff ff       	call   2036bb <io_wait>
  20375d:	6a 01                	push   $0x1
  20375f:	68 a1 00 00 00       	push   $0xa1
  203764:	e8 16 ff ff ff       	call   20367f <__outb>
  203769:	83 c4 08             	add    $0x8,%esp
  20376c:	e8 4a ff ff ff       	call   2036bb <io_wait>
  203771:	6a 00                	push   $0x0
  203773:	6a 21                	push   $0x21
  203775:	e8 05 ff ff ff       	call   20367f <__outb>
  20377a:	83 c4 08             	add    $0x8,%esp
  20377d:	6a 00                	push   $0x0
  20377f:	68 a1 00 00 00       	push   $0xa1
  203784:	e8 f6 fe ff ff       	call   20367f <__outb>
  203789:	83 c4 08             	add    $0x8,%esp
  20378c:	90                   	nop
  20378d:	c9                   	leave
  20378e:	c3                   	ret

0020378f <PIC_sendEOI>:
  20378f:	55                   	push   %ebp
  203790:	89 e5                	mov    %esp,%ebp
  203792:	83 ec 04             	sub    $0x4,%esp
  203795:	8b 45 08             	mov    0x8(%ebp),%eax
  203798:	88 45 fc             	mov    %al,-0x4(%ebp)
  20379b:	80 7d fc 07          	cmpb   $0x7,-0x4(%ebp)
  20379f:	76 0f                	jbe    2037b0 <PIC_sendEOI+0x21>
  2037a1:	6a 20                	push   $0x20
  2037a3:	68 a0 00 00 00       	push   $0xa0
  2037a8:	e8 d2 fe ff ff       	call   20367f <__outb>
  2037ad:	83 c4 08             	add    $0x8,%esp
  2037b0:	6a 20                	push   $0x20
  2037b2:	6a 20                	push   $0x20
  2037b4:	e8 c6 fe ff ff       	call   20367f <__outb>
  2037b9:	83 c4 08             	add    $0x8,%esp
  2037bc:	90                   	nop
  2037bd:	c9                   	leave
  2037be:	c3                   	ret

002037bf <IRQ_set_mask>:
  2037bf:	55                   	push   %ebp
  2037c0:	89 e5                	mov    %esp,%ebp
  2037c2:	53                   	push   %ebx
  2037c3:	83 ec 14             	sub    $0x14,%esp
  2037c6:	8b 45 08             	mov    0x8(%ebp),%eax
  2037c9:	88 45 e8             	mov    %al,-0x18(%ebp)
  2037cc:	80 7d e8 07          	cmpb   $0x7,-0x18(%ebp)
  2037d0:	77 08                	ja     2037da <IRQ_set_mask+0x1b>
  2037d2:	66 c7 45 fa 21 00    	movw   $0x21,-0x6(%ebp)
  2037d8:	eb 0a                	jmp    2037e4 <IRQ_set_mask+0x25>
  2037da:	66 c7 45 fa a1 00    	movw   $0xa1,-0x6(%ebp)
  2037e0:	80 6d e8 08          	subb   $0x8,-0x18(%ebp)
  2037e4:	0f b7 45 fa          	movzwl -0x6(%ebp),%eax
  2037e8:	50                   	push   %eax
  2037e9:	e8 b0 fe ff ff       	call   20369e <__inb>
  2037ee:	83 c4 04             	add    $0x4,%esp
  2037f1:	89 c3                	mov    %eax,%ebx
  2037f3:	0f b6 45 e8          	movzbl -0x18(%ebp),%eax
  2037f7:	ba 01 00 00 00       	mov    $0x1,%edx
  2037fc:	89 c1                	mov    %eax,%ecx
  2037fe:	d3 e2                	shl    %cl,%edx
  203800:	89 d0                	mov    %edx,%eax
  203802:	09 d8                	or     %ebx,%eax
  203804:	88 45 f9             	mov    %al,-0x7(%ebp)
  203807:	0f b6 55 f9          	movzbl -0x7(%ebp),%edx
  20380b:	0f b7 45 fa          	movzwl -0x6(%ebp),%eax
  20380f:	52                   	push   %edx
  203810:	50                   	push   %eax
  203811:	e8 69 fe ff ff       	call   20367f <__outb>
  203816:	83 c4 08             	add    $0x8,%esp
  203819:	90                   	nop
  20381a:	8b 5d fc             	mov    -0x4(%ebp),%ebx
  20381d:	c9                   	leave
  20381e:	c3                   	ret

0020381f <IRQ_clear_mask>:
  20381f:	55                   	push   %ebp
  203820:	89 e5                	mov    %esp,%ebp
  203822:	53                   	push   %ebx
  203823:	83 ec 14             	sub    $0x14,%esp
  203826:	8b 45 08             	mov    0x8(%ebp),%eax
  203829:	88 45 e8             	mov    %al,-0x18(%ebp)
  20382c:	80 7d e8 07          	cmpb   $0x7,-0x18(%ebp)
  203830:	77 08                	ja     20383a <IRQ_clear_mask+0x1b>
  203832:	66 c7 45 fa 21 00    	movw   $0x21,-0x6(%ebp)
  203838:	eb 0a                	jmp    203844 <IRQ_clear_mask+0x25>
  20383a:	66 c7 45 fa a1 00    	movw   $0xa1,-0x6(%ebp)
  203840:	80 6d e8 08          	subb   $0x8,-0x18(%ebp)
  203844:	0f b7 45 fa          	movzwl -0x6(%ebp),%eax
  203848:	50                   	push   %eax
  203849:	e8 50 fe ff ff       	call   20369e <__inb>
  20384e:	83 c4 04             	add    $0x4,%esp
  203851:	89 c3                	mov    %eax,%ebx
  203853:	0f b6 45 e8          	movzbl -0x18(%ebp),%eax
  203857:	ba 01 00 00 00       	mov    $0x1,%edx
  20385c:	89 c1                	mov    %eax,%ecx
  20385e:	d3 e2                	shl    %cl,%edx
  203860:	89 d0                	mov    %edx,%eax
  203862:	f7 d0                	not    %eax
  203864:	21 d8                	and    %ebx,%eax
  203866:	88 45 f9             	mov    %al,-0x7(%ebp)
  203869:	0f b6 55 f9          	movzbl -0x7(%ebp),%edx
  20386d:	0f b7 45 fa          	movzwl -0x6(%ebp),%eax
  203871:	52                   	push   %edx
  203872:	50                   	push   %eax
  203873:	e8 07 fe ff ff       	call   20367f <__outb>
  203878:	83 c4 08             	add    $0x8,%esp
  20387b:	90                   	nop
  20387c:	8b 5d fc             	mov    -0x4(%ebp),%ebx
  20387f:	c9                   	leave
  203880:	c3                   	ret

00203881 <PIC_disable>:
  203881:	55                   	push   %ebp
  203882:	89 e5                	mov    %esp,%ebp
  203884:	68 ff 00 00 00       	push   $0xff
  203889:	6a 21                	push   $0x21
  20388b:	e8 ef fd ff ff       	call   20367f <__outb>
  203890:	83 c4 08             	add    $0x8,%esp
  203893:	68 ff 00 00 00       	push   $0xff
  203898:	68 a1 00 00 00       	push   $0xa1
  20389d:	e8 dd fd ff ff       	call   20367f <__outb>
  2038a2:	83 c4 08             	add    $0x8,%esp
  2038a5:	90                   	nop
  2038a6:	c9                   	leave
  2038a7:	c3                   	ret

002038a8 <initialize_irqs>:
  2038a8:	55                   	push   %ebp
  2038a9:	89 e5                	mov    %esp,%ebp
  2038ab:	83 ec 10             	sub    $0x10,%esp
  2038ae:	c7 45 fc 00 00 00 00 	movl   $0x0,-0x4(%ebp)
  2038b5:	eb 13                	jmp    2038ca <initialize_irqs+0x22>
  2038b7:	8b 45 fc             	mov    -0x4(%ebp),%eax
  2038ba:	0f b6 c0             	movzbl %al,%eax
  2038bd:	50                   	push   %eax
  2038be:	e8 fc fe ff ff       	call   2037bf <IRQ_set_mask>
  2038c3:	83 c4 04             	add    $0x4,%esp
  2038c6:	83 45 fc 01          	addl   $0x1,-0x4(%ebp)
  2038ca:	83 7d fc 0f          	cmpl   $0xf,-0x4(%ebp)
  2038ce:	7e e7                	jle    2038b7 <initialize_irqs+0xf>
  2038d0:	90                   	nop
  2038d1:	90                   	nop
  2038d2:	c9                   	leave
  2038d3:	c3                   	ret

002038d4 <page_index>:
  2038d4:	55                   	push   %ebp
  2038d5:	89 e5                	mov    %esp,%ebp
  2038d7:	8b 45 08             	mov    0x8(%ebp),%eax
  2038da:	c1 e8 0c             	shr    $0xc,%eax
  2038dd:	5d                   	pop    %ebp
  2038de:	c3                   	ret

002038df <set_page_present>:
  2038df:	55                   	push   %ebp
  2038e0:	89 e5                	mov    %esp,%ebp
  2038e2:	56                   	push   %esi
  2038e3:	53                   	push   %ebx
  2038e4:	8b 45 08             	mov    0x8(%ebp),%eax
  2038e7:	c1 e8 03             	shr    $0x3,%eax
  2038ea:	0f b6 90 00 60 23 00 	movzbl 0x236000(%eax),%edx
  2038f1:	89 d6                	mov    %edx,%esi
  2038f3:	8b 55 08             	mov    0x8(%ebp),%edx
  2038f6:	83 e2 07             	and    $0x7,%edx
  2038f9:	bb 01 00 00 00       	mov    $0x1,%ebx
  2038fe:	89 d1                	mov    %edx,%ecx
  203900:	d3 e3                	shl    %cl,%ebx
  203902:	89 da                	mov    %ebx,%edx
  203904:	09 f2                	or     %esi,%edx
  203906:	88 90 00 60 23 00    	mov    %dl,0x236000(%eax)
  20390c:	90                   	nop
  20390d:	5b                   	pop    %ebx
  20390e:	5e                   	pop    %esi
  20390f:	5d                   	pop    %ebp
  203910:	c3                   	ret

00203911 <clear_page_present>:
  203911:	55                   	push   %ebp
  203912:	89 e5                	mov    %esp,%ebp
  203914:	56                   	push   %esi
  203915:	53                   	push   %ebx
  203916:	8b 45 08             	mov    0x8(%ebp),%eax
  203919:	c1 e8 03             	shr    $0x3,%eax
  20391c:	0f b6 90 00 60 23 00 	movzbl 0x236000(%eax),%edx
  203923:	89 d6                	mov    %edx,%esi
  203925:	8b 55 08             	mov    0x8(%ebp),%edx
  203928:	83 e2 07             	and    $0x7,%edx
  20392b:	bb 01 00 00 00       	mov    $0x1,%ebx
  203930:	89 d1                	mov    %edx,%ecx
  203932:	d3 e3                	shl    %cl,%ebx
  203934:	89 da                	mov    %ebx,%edx
  203936:	f7 d2                	not    %edx
  203938:	21 f2                	and    %esi,%edx
  20393a:	88 90 00 60 23 00    	mov    %dl,0x236000(%eax)
  203940:	90                   	nop
  203941:	5b                   	pop    %ebx
  203942:	5e                   	pop    %esi
  203943:	5d                   	pop    %ebp
  203944:	c3                   	ret

00203945 <is_page_present>:
  203945:	55                   	push   %ebp
  203946:	89 e5                	mov    %esp,%ebp
  203948:	53                   	push   %ebx
  203949:	8b 45 08             	mov    0x8(%ebp),%eax
  20394c:	c1 e8 03             	shr    $0x3,%eax
  20394f:	0f b6 80 00 60 23 00 	movzbl 0x236000(%eax),%eax
  203956:	0f b6 c0             	movzbl %al,%eax
  203959:	8b 55 08             	mov    0x8(%ebp),%edx
  20395c:	83 e2 07             	and    $0x7,%edx
  20395f:	bb 01 00 00 00       	mov    $0x1,%ebx
  203964:	89 d1                	mov    %edx,%ecx
  203966:	d3 e3                	shl    %cl,%ebx
  203968:	89 da                	mov    %ebx,%edx
  20396a:	21 d0                	and    %edx,%eax
  20396c:	8b 5d fc             	mov    -0x4(%ebp),%ebx
  20396f:	c9                   	leave
  203970:	c3                   	ret

00203971 <init_page_bitmap>:
  203971:	55                   	push   %ebp
  203972:	89 e5                	mov    %esp,%ebp
  203974:	83 ec 10             	sub    $0x10,%esp
  203977:	c7 45 fc 00 00 00 00 	movl   $0x0,-0x4(%ebp)
  20397e:	eb 0f                	jmp    20398f <init_page_bitmap+0x1e>
  203980:	8b 45 fc             	mov    -0x4(%ebp),%eax
  203983:	05 00 60 23 00       	add    $0x236000,%eax
  203988:	c6 00 00             	movb   $0x0,(%eax)
  20398b:	83 45 fc 01          	addl   $0x1,-0x4(%ebp)
  20398f:	81 7d fc ff ff 01 00 	cmpl   $0x1ffff,-0x4(%ebp)
  203996:	76 e8                	jbe    203980 <init_page_bitmap+0xf>
  203998:	c7 45 f8 00 00 00 00 	movl   $0x0,-0x8(%ebp)
  20399f:	eb 0f                	jmp    2039b0 <init_page_bitmap+0x3f>
  2039a1:	ff 75 f8             	push   -0x8(%ebp)
  2039a4:	e8 36 ff ff ff       	call   2038df <set_page_present>
  2039a9:	83 c4 04             	add    $0x4,%esp
  2039ac:	83 45 f8 01          	addl   $0x1,-0x8(%ebp)
  2039b0:	81 7d f8 ff 03 00 00 	cmpl   $0x3ff,-0x8(%ebp)
  2039b7:	76 e8                	jbe    2039a1 <init_page_bitmap+0x30>
  2039b9:	90                   	nop
  2039ba:	90                   	nop
  2039bb:	c9                   	leave
  2039bc:	c3                   	ret

002039bd <init_paging>:
  2039bd:	55                   	push   %ebp
  2039be:	89 e5                	mov    %esp,%ebp
  2039c0:	83 ec 10             	sub    $0x10,%esp
  2039c3:	c7 45 fc 00 00 00 00 	movl   $0x0,-0x4(%ebp)
  2039ca:	eb 19                	jmp    2039e5 <init_paging+0x28>
  2039cc:	8b 45 fc             	mov    -0x4(%ebp),%eax
  2039cf:	c1 e0 0c             	shl    $0xc,%eax
  2039d2:	83 c8 03             	or     $0x3,%eax
  2039d5:	89 c2                	mov    %eax,%edx
  2039d7:	8b 45 fc             	mov    -0x4(%ebp),%eax
  2039da:	89 14 85 00 50 23 00 	mov    %edx,0x235000(,%eax,4)
  2039e1:	83 45 fc 01          	addl   $0x1,-0x4(%ebp)
  2039e5:	81 7d fc ff 03 00 00 	cmpl   $0x3ff,-0x4(%ebp)
  2039ec:	7e de                	jle    2039cc <init_paging+0xf>
  2039ee:	b8 00 50 23 00       	mov    $0x235000,%eax
  2039f3:	83 c8 03             	or     $0x3,%eax
  2039f6:	a3 00 40 23 00       	mov    %eax,0x234000
  2039fb:	ba 00 40 23 00       	mov    $0x234000,%edx
  203a00:	0f 22 da             	mov    %edx,%cr3
  203a03:	0f 20 c0             	mov    %cr0,%eax
  203a06:	0d 00 00 00 80       	or     $0x80000000,%eax
  203a0b:	0f 22 c0             	mov    %eax,%cr0
  203a0e:	90                   	nop
  203a0f:	c9                   	leave
  203a10:	c3                   	ret

00203a11 <alloc_page>:
  203a11:	55                   	push   %ebp
  203a12:	89 e5                	mov    %esp,%ebp
  203a14:	83 ec 10             	sub    $0x10,%esp
  203a17:	c7 45 fc 00 00 00 00 	movl   $0x0,-0x4(%ebp)
  203a1e:	eb 26                	jmp    203a46 <alloc_page+0x35>
  203a20:	ff 75 fc             	push   -0x4(%ebp)
  203a23:	e8 1d ff ff ff       	call   203945 <is_page_present>
  203a28:	83 c4 04             	add    $0x4,%esp
  203a2b:	85 c0                	test   %eax,%eax
  203a2d:	75 13                	jne    203a42 <alloc_page+0x31>
  203a2f:	ff 75 fc             	push   -0x4(%ebp)
  203a32:	e8 a8 fe ff ff       	call   2038df <set_page_present>
  203a37:	83 c4 04             	add    $0x4,%esp
  203a3a:	8b 45 fc             	mov    -0x4(%ebp),%eax
  203a3d:	c1 e0 0c             	shl    $0xc,%eax
  203a40:	eb 12                	jmp    203a54 <alloc_page+0x43>
  203a42:	83 45 fc 01          	addl   $0x1,-0x4(%ebp)
  203a46:	81 7d fc ff ff 0f 00 	cmpl   $0xfffff,-0x4(%ebp)
  203a4d:	76 d1                	jbe    203a20 <alloc_page+0xf>
  203a4f:	b8 00 00 00 00       	mov    $0x0,%eax
  203a54:	c9                   	leave
  203a55:	c3                   	ret

00203a56 <free_page>:
  203a56:	55                   	push   %ebp
  203a57:	89 e5                	mov    %esp,%ebp
  203a59:	83 ec 10             	sub    $0x10,%esp
  203a5c:	ff 75 08             	push   0x8(%ebp)
  203a5f:	e8 70 fe ff ff       	call   2038d4 <page_index>
  203a64:	83 c4 04             	add    $0x4,%esp
  203a67:	89 45 fc             	mov    %eax,-0x4(%ebp)
  203a6a:	ff 75 fc             	push   -0x4(%ebp)
  203a6d:	e8 9f fe ff ff       	call   203911 <clear_page_present>
  203a72:	83 c4 04             	add    $0x4,%esp
  203a75:	90                   	nop
  203a76:	c9                   	leave
  203a77:	c3                   	ret

00203a78 <alloc_n_pages>:
  203a78:	55                   	push   %ebp
  203a79:	89 e5                	mov    %esp,%ebp
  203a7b:	83 ec 10             	sub    $0x10,%esp
  203a7e:	83 7d 08 00          	cmpl   $0x0,0x8(%ebp)
  203a82:	74 09                	je     203a8d <alloc_n_pages+0x15>
  203a84:	81 7d 08 00 00 10 00 	cmpl   $0x100000,0x8(%ebp)
  203a8b:	76 0a                	jbe    203a97 <alloc_n_pages+0x1f>
  203a8d:	b8 00 00 00 00       	mov    $0x0,%eax
  203a92:	e9 85 00 00 00       	jmp    203b1c <alloc_n_pages+0xa4>
  203a97:	c7 45 fc 00 00 00 00 	movl   $0x0,-0x4(%ebp)
  203a9e:	c7 45 f8 00 00 00 00 	movl   $0x0,-0x8(%ebp)
  203aa5:	c7 45 f4 00 00 00 00 	movl   $0x0,-0xc(%ebp)
  203aac:	eb 60                	jmp    203b0e <alloc_n_pages+0x96>
  203aae:	ff 75 f4             	push   -0xc(%ebp)
  203ab1:	e8 8f fe ff ff       	call   203945 <is_page_present>
  203ab6:	83 c4 04             	add    $0x4,%esp
  203ab9:	85 c0                	test   %eax,%eax
  203abb:	75 46                	jne    203b03 <alloc_n_pages+0x8b>
  203abd:	83 7d f8 00          	cmpl   $0x0,-0x8(%ebp)
  203ac1:	75 06                	jne    203ac9 <alloc_n_pages+0x51>
  203ac3:	8b 45 f4             	mov    -0xc(%ebp),%eax
  203ac6:	89 45 fc             	mov    %eax,-0x4(%ebp)
  203ac9:	83 45 f8 01          	addl   $0x1,-0x8(%ebp)
  203acd:	8b 45 f8             	mov    -0x8(%ebp),%eax
  203ad0:	3b 45 08             	cmp    0x8(%ebp),%eax
  203ad3:	75 35                	jne    203b0a <alloc_n_pages+0x92>
  203ad5:	c7 45 f0 00 00 00 00 	movl   $0x0,-0x10(%ebp)
  203adc:	eb 15                	jmp    203af3 <alloc_n_pages+0x7b>
  203ade:	8b 55 fc             	mov    -0x4(%ebp),%edx
  203ae1:	8b 45 f0             	mov    -0x10(%ebp),%eax
  203ae4:	01 d0                	add    %edx,%eax
  203ae6:	50                   	push   %eax
  203ae7:	e8 f3 fd ff ff       	call   2038df <set_page_present>
  203aec:	83 c4 04             	add    $0x4,%esp
  203aef:	83 45 f0 01          	addl   $0x1,-0x10(%ebp)
  203af3:	8b 45 f0             	mov    -0x10(%ebp),%eax
  203af6:	3b 45 08             	cmp    0x8(%ebp),%eax
  203af9:	72 e3                	jb     203ade <alloc_n_pages+0x66>
  203afb:	8b 45 fc             	mov    -0x4(%ebp),%eax
  203afe:	c1 e0 0c             	shl    $0xc,%eax
  203b01:	eb 19                	jmp    203b1c <alloc_n_pages+0xa4>
  203b03:	c7 45 f8 00 00 00 00 	movl   $0x0,-0x8(%ebp)
  203b0a:	83 45 f4 01          	addl   $0x1,-0xc(%ebp)
  203b0e:	81 7d f4 ff ff 0f 00 	cmpl   $0xfffff,-0xc(%ebp)
  203b15:	76 97                	jbe    203aae <alloc_n_pages+0x36>
  203b17:	b8 00 00 00 00       	mov    $0x0,%eax
  203b1c:	c9                   	leave
  203b1d:	c3                   	ret

00203b1e <free_n_pages>:
  203b1e:	55                   	push   %ebp
  203b1f:	89 e5                	mov    %esp,%ebp
  203b21:	83 ec 10             	sub    $0x10,%esp
  203b24:	ff 75 08             	push   0x8(%ebp)
  203b27:	e8 a8 fd ff ff       	call   2038d4 <page_index>
  203b2c:	83 c4 04             	add    $0x4,%esp
  203b2f:	89 45 f8             	mov    %eax,-0x8(%ebp)
  203b32:	c7 45 fc 00 00 00 00 	movl   $0x0,-0x4(%ebp)
  203b39:	eb 15                	jmp    203b50 <free_n_pages+0x32>
  203b3b:	8b 55 f8             	mov    -0x8(%ebp),%edx
  203b3e:	8b 45 fc             	mov    -0x4(%ebp),%eax
  203b41:	01 d0                	add    %edx,%eax
  203b43:	50                   	push   %eax
  203b44:	e8 c8 fd ff ff       	call   203911 <clear_page_present>
  203b49:	83 c4 04             	add    $0x4,%esp
  203b4c:	83 45 fc 01          	addl   $0x1,-0x4(%ebp)
  203b50:	8b 45 fc             	mov    -0x4(%ebp),%eax
  203b53:	3b 45 0c             	cmp    0xc(%ebp),%eax
  203b56:	72 e3                	jb     203b3b <free_n_pages+0x1d>
  203b58:	90                   	nop
  203b59:	90                   	nop
  203b5a:	c9                   	leave
  203b5b:	c3                   	ret

00203b5c <virt_to_phys>:
  203b5c:	55                   	push   %ebp
  203b5d:	89 e5                	mov    %esp,%ebp
  203b5f:	83 ec 20             	sub    $0x20,%esp
  203b62:	8b 45 08             	mov    0x8(%ebp),%eax
  203b65:	c1 e8 16             	shr    $0x16,%eax
  203b68:	89 45 fc             	mov    %eax,-0x4(%ebp)
  203b6b:	8b 45 08             	mov    0x8(%ebp),%eax
  203b6e:	c1 e8 0c             	shr    $0xc,%eax
  203b71:	25 ff 03 00 00       	and    $0x3ff,%eax
  203b76:	89 45 f8             	mov    %eax,-0x8(%ebp)
  203b79:	8b 45 08             	mov    0x8(%ebp),%eax
  203b7c:	25 ff 0f 00 00       	and    $0xfff,%eax
  203b81:	89 45 f4             	mov    %eax,-0xc(%ebp)
  203b84:	8b 45 fc             	mov    -0x4(%ebp),%eax
  203b87:	8b 04 85 00 40 23 00 	mov    0x234000(,%eax,4),%eax
  203b8e:	89 45 f0             	mov    %eax,-0x10(%ebp)
  203b91:	8b 45 f0             	mov    -0x10(%ebp),%eax
  203b94:	83 e0 01             	and    $0x1,%eax
  203b97:	85 c0                	test   %eax,%eax
  203b99:	75 07                	jne    203ba2 <virt_to_phys+0x46>
  203b9b:	b8 00 00 00 00       	mov    $0x0,%eax
  203ba0:	eb 45                	jmp    203be7 <virt_to_phys+0x8b>
  203ba2:	8b 45 f0             	mov    -0x10(%ebp),%eax
  203ba5:	25 00 f0 ff ff       	and    $0xfffff000,%eax
  203baa:	89 45 ec             	mov    %eax,-0x14(%ebp)
  203bad:	8b 45 f8             	mov    -0x8(%ebp),%eax
  203bb0:	8d 14 85 00 00 00 00 	lea    0x0(,%eax,4),%edx
  203bb7:	8b 45 ec             	mov    -0x14(%ebp),%eax
  203bba:	01 d0                	add    %edx,%eax
  203bbc:	8b 00                	mov    (%eax),%eax
  203bbe:	89 45 e8             	mov    %eax,-0x18(%ebp)
  203bc1:	8b 45 e8             	mov    -0x18(%ebp),%eax
  203bc4:	83 e0 01             	and    $0x1,%eax
  203bc7:	85 c0                	test   %eax,%eax
  203bc9:	75 07                	jne    203bd2 <virt_to_phys+0x76>
  203bcb:	b8 00 00 00 00       	mov    $0x0,%eax
  203bd0:	eb 15                	jmp    203be7 <virt_to_phys+0x8b>
  203bd2:	8b 45 e8             	mov    -0x18(%ebp),%eax
  203bd5:	25 00 f0 ff ff       	and    $0xfffff000,%eax
  203bda:	89 c2                	mov    %eax,%edx
  203bdc:	8b 45 f4             	mov    -0xc(%ebp),%eax
  203bdf:	01 d0                	add    %edx,%eax
  203be1:	89 45 e4             	mov    %eax,-0x1c(%ebp)
  203be4:	8b 45 e4             	mov    -0x1c(%ebp),%eax
  203be7:	c9                   	leave
  203be8:	c3                   	ret

00203be9 <phys_to_virt>:
  203be9:	55                   	push   %ebp
  203bea:	89 e5                	mov    %esp,%ebp
  203bec:	83 ec 20             	sub    $0x20,%esp
  203bef:	8b 45 08             	mov    0x8(%ebp),%eax
  203bf2:	25 ff 0f 00 00       	and    $0xfff,%eax
  203bf7:	89 45 f4             	mov    %eax,-0xc(%ebp)
  203bfa:	8b 45 08             	mov    0x8(%ebp),%eax
  203bfd:	25 00 f0 ff ff       	and    $0xfffff000,%eax
  203c02:	89 45 f0             	mov    %eax,-0x10(%ebp)
  203c05:	c7 45 fc 00 00 00 00 	movl   $0x0,-0x4(%ebp)
  203c0c:	e9 86 00 00 00       	jmp    203c97 <phys_to_virt+0xae>
  203c11:	8b 45 fc             	mov    -0x4(%ebp),%eax
  203c14:	8b 04 85 00 40 23 00 	mov    0x234000(,%eax,4),%eax
  203c1b:	89 45 ec             	mov    %eax,-0x14(%ebp)
  203c1e:	8b 45 ec             	mov    -0x14(%ebp),%eax
  203c21:	83 e0 01             	and    $0x1,%eax
  203c24:	85 c0                	test   %eax,%eax
  203c26:	74 6a                	je     203c92 <phys_to_virt+0xa9>
  203c28:	8b 45 ec             	mov    -0x14(%ebp),%eax
  203c2b:	25 00 f0 ff ff       	and    $0xfffff000,%eax
  203c30:	89 45 e8             	mov    %eax,-0x18(%ebp)
  203c33:	c7 45 f8 00 00 00 00 	movl   $0x0,-0x8(%ebp)
  203c3a:	eb 4b                	jmp    203c87 <phys_to_virt+0x9e>
  203c3c:	8b 45 f8             	mov    -0x8(%ebp),%eax
  203c3f:	8d 14 85 00 00 00 00 	lea    0x0(,%eax,4),%edx
  203c46:	8b 45 e8             	mov    -0x18(%ebp),%eax
  203c49:	01 d0                	add    %edx,%eax
  203c4b:	8b 00                	mov    (%eax),%eax
  203c4d:	89 45 e4             	mov    %eax,-0x1c(%ebp)
  203c50:	8b 45 e4             	mov    -0x1c(%ebp),%eax
  203c53:	83 e0 01             	and    $0x1,%eax
  203c56:	85 c0                	test   %eax,%eax
  203c58:	74 28                	je     203c82 <phys_to_virt+0x99>
  203c5a:	8b 45 e4             	mov    -0x1c(%ebp),%eax
  203c5d:	25 00 f0 ff ff       	and    $0xfffff000,%eax
  203c62:	39 45 f0             	cmp    %eax,-0x10(%ebp)
  203c65:	75 1c                	jne    203c83 <phys_to_virt+0x9a>
  203c67:	8b 45 fc             	mov    -0x4(%ebp),%eax
  203c6a:	c1 e0 16             	shl    $0x16,%eax
  203c6d:	89 c2                	mov    %eax,%edx
  203c6f:	8b 45 f8             	mov    -0x8(%ebp),%eax
  203c72:	c1 e0 0c             	shl    $0xc,%eax
  203c75:	09 d0                	or     %edx,%eax
  203c77:	0b 45 f4             	or     -0xc(%ebp),%eax
  203c7a:	89 45 e0             	mov    %eax,-0x20(%ebp)
  203c7d:	8b 45 e0             	mov    -0x20(%ebp),%eax
  203c80:	eb 27                	jmp    203ca9 <phys_to_virt+0xc0>
  203c82:	90                   	nop
  203c83:	83 45 f8 01          	addl   $0x1,-0x8(%ebp)
  203c87:	81 7d f8 ff 03 00 00 	cmpl   $0x3ff,-0x8(%ebp)
  203c8e:	76 ac                	jbe    203c3c <phys_to_virt+0x53>
  203c90:	eb 01                	jmp    203c93 <phys_to_virt+0xaa>
  203c92:	90                   	nop
  203c93:	83 45 fc 01          	addl   $0x1,-0x4(%ebp)
  203c97:	81 7d fc ff 03 00 00 	cmpl   $0x3ff,-0x4(%ebp)
  203c9e:	0f 86 6d ff ff ff    	jbe    203c11 <phys_to_virt+0x28>
  203ca4:	b8 00 00 00 00       	mov    $0x0,%eax
  203ca9:	c9                   	leave
  203caa:	c3                   	ret

00203cab <kmalloc>:
  203cab:	55                   	push   %ebp
  203cac:	89 e5                	mov    %esp,%ebp
  203cae:	83 ec 10             	sub    $0x10,%esp
  203cb1:	83 7d 08 00          	cmpl   $0x0,0x8(%ebp)
  203cb5:	75 07                	jne    203cbe <kmalloc+0x13>
  203cb7:	b8 00 00 00 00       	mov    $0x0,%eax
  203cbc:	eb 4b                	jmp    203d09 <kmalloc+0x5e>
  203cbe:	8b 45 08             	mov    0x8(%ebp),%eax
  203cc1:	05 ff 0f 00 00       	add    $0xfff,%eax
  203cc6:	c1 e8 0c             	shr    $0xc,%eax
  203cc9:	89 45 fc             	mov    %eax,-0x4(%ebp)
  203ccc:	ff 75 fc             	push   -0x4(%ebp)
  203ccf:	e8 a4 fd ff ff       	call   203a78 <alloc_n_pages>
  203cd4:	83 c4 04             	add    $0x4,%esp
  203cd7:	89 45 f8             	mov    %eax,-0x8(%ebp)
  203cda:	83 7d f8 00          	cmpl   $0x0,-0x8(%ebp)
  203cde:	75 07                	jne    203ce7 <kmalloc+0x3c>
  203ce0:	b8 00 00 00 00       	mov    $0x0,%eax
  203ce5:	eb 22                	jmp    203d09 <kmalloc+0x5e>
  203ce7:	ff 75 f8             	push   -0x8(%ebp)
  203cea:	e8 fa fe ff ff       	call   203be9 <phys_to_virt>
  203cef:	83 c4 04             	add    $0x4,%esp
  203cf2:	89 45 f4             	mov    %eax,-0xc(%ebp)
  203cf5:	8b 45 f4             	mov    -0xc(%ebp),%eax
  203cf8:	89 45 f0             	mov    %eax,-0x10(%ebp)
  203cfb:	8b 45 f0             	mov    -0x10(%ebp),%eax
  203cfe:	8b 55 fc             	mov    -0x4(%ebp),%edx
  203d01:	89 10                	mov    %edx,(%eax)
  203d03:	8b 45 f0             	mov    -0x10(%ebp),%eax
  203d06:	83 c0 04             	add    $0x4,%eax
  203d09:	c9                   	leave
  203d0a:	c3                   	ret

00203d0b <kfree>:
  203d0b:	55                   	push   %ebp
  203d0c:	89 e5                	mov    %esp,%ebp
  203d0e:	83 ec 10             	sub    $0x10,%esp
  203d11:	83 7d 08 00          	cmpl   $0x0,0x8(%ebp)
  203d15:	74 2b                	je     203d42 <kfree+0x37>
  203d17:	8b 45 08             	mov    0x8(%ebp),%eax
  203d1a:	83 e8 04             	sub    $0x4,%eax
  203d1d:	89 45 fc             	mov    %eax,-0x4(%ebp)
  203d20:	8b 45 fc             	mov    -0x4(%ebp),%eax
  203d23:	50                   	push   %eax
  203d24:	e8 33 fe ff ff       	call   203b5c <virt_to_phys>
  203d29:	83 c4 04             	add    $0x4,%esp
  203d2c:	89 45 f8             	mov    %eax,-0x8(%ebp)
  203d2f:	8b 45 fc             	mov    -0x4(%ebp),%eax
  203d32:	8b 00                	mov    (%eax),%eax
  203d34:	50                   	push   %eax
  203d35:	ff 75 f8             	push   -0x8(%ebp)
  203d38:	e8 e1 fd ff ff       	call   203b1e <free_n_pages>
  203d3d:	83 c4 08             	add    $0x8,%esp
  203d40:	eb 01                	jmp    203d43 <kfree+0x38>
  203d42:	90                   	nop
  203d43:	c9                   	leave
  203d44:	c3                   	ret

00203d45 <outb>:
  203d45:	55                   	push   %ebp
  203d46:	89 e5                	mov    %esp,%ebp
  203d48:	83 ec 08             	sub    $0x8,%esp
  203d4b:	8b 55 08             	mov    0x8(%ebp),%edx
  203d4e:	8b 45 0c             	mov    0xc(%ebp),%eax
  203d51:	66 89 55 fc          	mov    %dx,-0x4(%ebp)
  203d55:	88 45 f8             	mov    %al,-0x8(%ebp)
  203d58:	0f b6 45 f8          	movzbl -0x8(%ebp),%eax
  203d5c:	0f b7 55 fc          	movzwl -0x4(%ebp),%edx
  203d60:	ee                   	out    %al,(%dx)
  203d61:	90                   	nop
  203d62:	c9                   	leave
  203d63:	c3                   	ret

00203d64 <pit_init>:
  203d64:	55                   	push   %ebp
  203d65:	89 e5                	mov    %esp,%ebp
  203d67:	83 ec 04             	sub    $0x4,%esp
  203d6a:	8b 45 08             	mov    0x8(%ebp),%eax
  203d6d:	66 89 45 fc          	mov    %ax,-0x4(%ebp)
  203d71:	6a 36                	push   $0x36
  203d73:	6a 43                	push   $0x43
  203d75:	e8 cb ff ff ff       	call   203d45 <outb>
  203d7a:	83 c4 08             	add    $0x8,%esp
  203d7d:	0f b7 45 fc          	movzwl -0x4(%ebp),%eax
  203d81:	0f b6 c0             	movzbl %al,%eax
  203d84:	50                   	push   %eax
  203d85:	6a 40                	push   $0x40
  203d87:	e8 b9 ff ff ff       	call   203d45 <outb>
  203d8c:	83 c4 08             	add    $0x8,%esp
  203d8f:	0f b7 45 fc          	movzwl -0x4(%ebp),%eax
  203d93:	66 c1 e8 08          	shr    $0x8,%ax
  203d97:	0f b6 c0             	movzbl %al,%eax
  203d9a:	50                   	push   %eax
  203d9b:	6a 40                	push   $0x40
  203d9d:	e8 a3 ff ff ff       	call   203d45 <outb>
  203da2:	83 c4 08             	add    $0x8,%esp
  203da5:	90                   	nop
  203da6:	c9                   	leave
  203da7:	c3                   	ret

00203da8 <wait>:
  203da8:	55                   	push   %ebp
  203da9:	89 e5                	mov    %esp,%ebp
  203dab:	83 ec 20             	sub    $0x20,%esp
  203dae:	c7 45 f8 80 d1 f0 08 	movl   $0x8f0d180,-0x8(%ebp)
  203db5:	8b 45 f8             	mov    -0x8(%ebp),%eax
  203db8:	ba 00 00 00 00       	mov    $0x0,%edx
  203dbd:	89 45 e0             	mov    %eax,-0x20(%ebp)
  203dc0:	89 55 e4             	mov    %edx,-0x1c(%ebp)
  203dc3:	df 6d e0             	fildll -0x20(%ebp)
  203dc6:	d8 4d 08             	fmuls  0x8(%ebp)
  203dc9:	d9 7d ee             	fnstcw -0x12(%ebp)
  203dcc:	0f b7 45 ee          	movzwl -0x12(%ebp),%eax
  203dd0:	80 cc 0c             	or     $0xc,%ah
  203dd3:	66 89 45 ec          	mov    %ax,-0x14(%ebp)
  203dd7:	d9 6d ec             	fldcw  -0x14(%ebp)
  203dda:	df 7d e0             	fistpll -0x20(%ebp)
  203ddd:	d9 6d ee             	fldcw  -0x12(%ebp)
  203de0:	8b 45 e0             	mov    -0x20(%ebp),%eax
  203de3:	89 45 f4             	mov    %eax,-0xc(%ebp)
  203de6:	c7 45 fc 00 00 00 00 	movl   $0x0,-0x4(%ebp)
  203ded:	eb 05                	jmp    203df4 <wait+0x4c>
  203def:	90                   	nop
  203df0:	83 45 fc 01          	addl   $0x1,-0x4(%ebp)
  203df4:	8b 45 fc             	mov    -0x4(%ebp),%eax
  203df7:	3b 45 f4             	cmp    -0xc(%ebp),%eax
  203dfa:	72 f3                	jb     203def <wait+0x47>
  203dfc:	90                   	nop
  203dfd:	90                   	nop
  203dfe:	c9                   	leave
  203dff:	c3                   	ret

00203e00 <generateMask>:
  203e00:	55                   	push   %ebp
  203e01:	89 e5                	mov    %esp,%ebp
  203e03:	83 ec 18             	sub    $0x18,%esp
  203e06:	8b 55 08             	mov    0x8(%ebp),%edx
  203e09:	8b 45 0c             	mov    0xc(%ebp),%eax
  203e0c:	88 55 ec             	mov    %dl,-0x14(%ebp)
  203e0f:	88 45 e8             	mov    %al,-0x18(%ebp)
  203e12:	0f b6 45 ec          	movzbl -0x14(%ebp),%eax
  203e16:	2a 45 e8             	sub    -0x18(%ebp),%al
  203e19:	83 c0 01             	add    $0x1,%eax
  203e1c:	88 45 fb             	mov    %al,-0x5(%ebp)
  203e1f:	80 7d fb 1f          	cmpb   $0x1f,-0x5(%ebp)
  203e23:	76 09                	jbe    203e2e <generateMask+0x2e>
  203e25:	c7 45 fc ff ff ff ff 	movl   $0xffffffff,-0x4(%ebp)
  203e2c:	eb 24                	jmp    203e52 <generateMask+0x52>
  203e2e:	0f b6 55 ec          	movzbl -0x14(%ebp),%edx
  203e32:	0f b6 45 e8          	movzbl -0x18(%ebp),%eax
  203e36:	29 c2                	sub    %eax,%edx
  203e38:	8d 42 01             	lea    0x1(%edx),%eax
  203e3b:	ba 01 00 00 00       	mov    $0x1,%edx
  203e40:	89 c1                	mov    %eax,%ecx
  203e42:	d3 e2                	shl    %cl,%edx
  203e44:	89 d0                	mov    %edx,%eax
  203e46:	89 45 f4             	mov    %eax,-0xc(%ebp)
  203e49:	8b 45 f4             	mov    -0xc(%ebp),%eax
  203e4c:	83 e8 01             	sub    $0x1,%eax
  203e4f:	89 45 fc             	mov    %eax,-0x4(%ebp)
  203e52:	0f b6 45 e8          	movzbl -0x18(%ebp),%eax
  203e56:	8b 55 fc             	mov    -0x4(%ebp),%edx
  203e59:	89 c1                	mov    %eax,%ecx
  203e5b:	d3 e2                	shl    %cl,%edx
  203e5d:	89 d0                	mov    %edx,%eax
  203e5f:	89 45 f0             	mov    %eax,-0x10(%ebp)
  203e62:	8b 45 f0             	mov    -0x10(%ebp),%eax
  203e65:	c9                   	leave
  203e66:	c3                   	ret

00203e67 <generateAntiMask>:
  203e67:	55                   	push   %ebp
  203e68:	89 e5                	mov    %esp,%ebp
  203e6a:	83 ec 08             	sub    $0x8,%esp
  203e6d:	8b 55 08             	mov    0x8(%ebp),%edx
  203e70:	8b 45 0c             	mov    0xc(%ebp),%eax
  203e73:	88 55 fc             	mov    %dl,-0x4(%ebp)
  203e76:	88 45 f8             	mov    %al,-0x8(%ebp)
  203e79:	0f b6 55 f8          	movzbl -0x8(%ebp),%edx
  203e7d:	0f b6 45 fc          	movzbl -0x4(%ebp),%eax
  203e81:	52                   	push   %edx
  203e82:	50                   	push   %eax
  203e83:	e8 78 ff ff ff       	call   203e00 <generateMask>
  203e88:	83 c4 08             	add    $0x8,%esp
  203e8b:	f7 d0                	not    %eax
  203e8d:	c9                   	leave
  203e8e:	c3                   	ret

00203e8f <getBits>:
  203e8f:	55                   	push   %ebp
  203e90:	89 e5                	mov    %esp,%ebp
  203e92:	83 ec 18             	sub    $0x18,%esp
  203e95:	8b 55 0c             	mov    0xc(%ebp),%edx
  203e98:	8b 45 10             	mov    0x10(%ebp),%eax
  203e9b:	88 55 ec             	mov    %dl,-0x14(%ebp)
  203e9e:	88 45 e8             	mov    %al,-0x18(%ebp)
  203ea1:	0f b6 55 e8          	movzbl -0x18(%ebp),%edx
  203ea5:	0f b6 45 ec          	movzbl -0x14(%ebp),%eax
  203ea9:	52                   	push   %edx
  203eaa:	50                   	push   %eax
  203eab:	e8 50 ff ff ff       	call   203e00 <generateMask>
  203eb0:	83 c4 08             	add    $0x8,%esp
  203eb3:	89 45 fc             	mov    %eax,-0x4(%ebp)
  203eb6:	8b 45 08             	mov    0x8(%ebp),%eax
  203eb9:	23 45 fc             	and    -0x4(%ebp),%eax
  203ebc:	89 45 f8             	mov    %eax,-0x8(%ebp)
  203ebf:	0f b6 45 e8          	movzbl -0x18(%ebp),%eax
  203ec3:	8b 55 f8             	mov    -0x8(%ebp),%edx
  203ec6:	89 c1                	mov    %eax,%ecx
  203ec8:	d3 ea                	shr    %cl,%edx
  203eca:	89 d0                	mov    %edx,%eax
  203ecc:	89 45 f4             	mov    %eax,-0xc(%ebp)
  203ecf:	8b 45 f4             	mov    -0xc(%ebp),%eax
  203ed2:	c9                   	leave
  203ed3:	c3                   	ret

00203ed4 <getBits2>:
  203ed4:	55                   	push   %ebp
  203ed5:	89 e5                	mov    %esp,%ebp
  203ed7:	83 ec 28             	sub    $0x28,%esp
  203eda:	8b 55 0c             	mov    0xc(%ebp),%edx
  203edd:	8b 45 10             	mov    0x10(%ebp),%eax
  203ee0:	88 55 e4             	mov    %dl,-0x1c(%ebp)
  203ee3:	88 45 e0             	mov    %al,-0x20(%ebp)
  203ee6:	0f b6 45 e4          	movzbl -0x1c(%ebp),%eax
  203eea:	3a 45 e0             	cmp    -0x20(%ebp),%al
  203eed:	73 17                	jae    203f06 <getBits2+0x32>
  203eef:	83 ec 0c             	sub    $0xc,%esp
  203ef2:	68 80 63 20 00       	push   $0x206380
  203ef7:	e8 db da ff ff       	call   2019d7 <terminal_writestring>
  203efc:	83 c4 10             	add    $0x10,%esp
  203eff:	b8 ff ff ff ff       	mov    $0xffffffff,%eax
  203f04:	eb 3a                	jmp    203f40 <getBits2+0x6c>
  203f06:	0f b6 45 e0          	movzbl -0x20(%ebp),%eax
  203f0a:	8b 55 08             	mov    0x8(%ebp),%edx
  203f0d:	89 c1                	mov    %eax,%ecx
  203f0f:	d3 ea                	shr    %cl,%edx
  203f11:	89 d0                	mov    %edx,%eax
  203f13:	89 45 f4             	mov    %eax,-0xc(%ebp)
  203f16:	0f b6 55 e4          	movzbl -0x1c(%ebp),%edx
  203f1a:	0f b6 45 e0          	movzbl -0x20(%ebp),%eax
  203f1e:	29 c2                	sub    %eax,%edx
  203f20:	8d 42 01             	lea    0x1(%edx),%eax
  203f23:	ba 01 00 00 00       	mov    $0x1,%edx
  203f28:	89 c1                	mov    %eax,%ecx
  203f2a:	d3 e2                	shl    %cl,%edx
  203f2c:	89 d0                	mov    %edx,%eax
  203f2e:	89 45 f0             	mov    %eax,-0x10(%ebp)
  203f31:	8b 45 f0             	mov    -0x10(%ebp),%eax
  203f34:	83 e8 01             	sub    $0x1,%eax
  203f37:	89 45 ec             	mov    %eax,-0x14(%ebp)
  203f3a:	8b 45 f4             	mov    -0xc(%ebp),%eax
  203f3d:	23 45 ec             	and    -0x14(%ebp),%eax
  203f40:	c9                   	leave
  203f41:	c3                   	ret

00203f42 <setBits>:
  203f42:	55                   	push   %ebp
  203f43:	89 e5                	mov    %esp,%ebp
  203f45:	83 ec 18             	sub    $0x18,%esp
  203f48:	8b 55 10             	mov    0x10(%ebp),%edx
  203f4b:	8b 45 14             	mov    0x14(%ebp),%eax
  203f4e:	88 55 ec             	mov    %dl,-0x14(%ebp)
  203f51:	88 45 e8             	mov    %al,-0x18(%ebp)
  203f54:	0f b6 45 e8          	movzbl -0x18(%ebp),%eax
  203f58:	8b 55 0c             	mov    0xc(%ebp),%edx
  203f5b:	89 c1                	mov    %eax,%ecx
  203f5d:	d3 e2                	shl    %cl,%edx
  203f5f:	89 d0                	mov    %edx,%eax
  203f61:	89 45 fc             	mov    %eax,-0x4(%ebp)
  203f64:	0f b6 55 e8          	movzbl -0x18(%ebp),%edx
  203f68:	0f b6 45 ec          	movzbl -0x14(%ebp),%eax
  203f6c:	52                   	push   %edx
  203f6d:	50                   	push   %eax
  203f6e:	e8 f4 fe ff ff       	call   203e67 <generateAntiMask>
  203f73:	83 c4 08             	add    $0x8,%esp
  203f76:	89 45 f8             	mov    %eax,-0x8(%ebp)
  203f79:	8b 45 08             	mov    0x8(%ebp),%eax
  203f7c:	23 45 f8             	and    -0x8(%ebp),%eax
  203f7f:	0b 45 fc             	or     -0x4(%ebp),%eax
  203f82:	c9                   	leave
  203f83:	c3                   	ret

00203f84 <setBitsModify>:
  203f84:	55                   	push   %ebp
  203f85:	89 e5                	mov    %esp,%ebp
  203f87:	83 ec 08             	sub    $0x8,%esp
  203f8a:	8b 55 10             	mov    0x10(%ebp),%edx
  203f8d:	8b 45 14             	mov    0x14(%ebp),%eax
  203f90:	88 55 fc             	mov    %dl,-0x4(%ebp)
  203f93:	88 45 f8             	mov    %al,-0x8(%ebp)
  203f96:	0f b6 4d f8          	movzbl -0x8(%ebp),%ecx
  203f9a:	0f b6 55 fc          	movzbl -0x4(%ebp),%edx
  203f9e:	8b 45 08             	mov    0x8(%ebp),%eax
  203fa1:	8b 00                	mov    (%eax),%eax
  203fa3:	51                   	push   %ecx
  203fa4:	52                   	push   %edx
  203fa5:	ff 75 0c             	push   0xc(%ebp)
  203fa8:	50                   	push   %eax
  203fa9:	e8 94 ff ff ff       	call   203f42 <setBits>
  203fae:	83 c4 10             	add    $0x10,%esp
  203fb1:	8b 55 08             	mov    0x8(%ebp),%edx
  203fb4:	89 02                	mov    %eax,(%edx)
  203fb6:	90                   	nop
  203fb7:	c9                   	leave
  203fb8:	c3                   	ret

00203fb9 <getType>:
  203fb9:	55                   	push   %ebp
  203fba:	89 e5                	mov    %esp,%ebp
  203fbc:	83 ec 18             	sub    $0x18,%esp
  203fbf:	b8 08 00 00 00       	mov    $0x8,%eax
  203fc4:	0f b6 c8             	movzbl %al,%ecx
  203fc7:	b8 0b 00 00 00       	mov    $0xb,%eax
  203fcc:	0f b6 d0             	movzbl %al,%edx
  203fcf:	8b 45 08             	mov    0x8(%ebp),%eax
  203fd2:	8b 40 04             	mov    0x4(%eax),%eax
  203fd5:	83 ec 04             	sub    $0x4,%esp
  203fd8:	51                   	push   %ecx
  203fd9:	52                   	push   %edx
  203fda:	50                   	push   %eax
  203fdb:	e8 af fe ff ff       	call   203e8f <getBits>
  203fe0:	83 c4 10             	add    $0x10,%esp
  203fe3:	88 45 f7             	mov    %al,-0x9(%ebp)
  203fe6:	0f b6 45 f7          	movzbl -0x9(%ebp),%eax
  203fea:	c9                   	leave
  203feb:	c3                   	ret

00203fec <setType>:
  203fec:	55                   	push   %ebp
  203fed:	89 e5                	mov    %esp,%ebp
  203fef:	53                   	push   %ebx
  203ff0:	83 ec 14             	sub    $0x14,%esp
  203ff3:	8b 45 0c             	mov    0xc(%ebp),%eax
  203ff6:	88 45 f4             	mov    %al,-0xc(%ebp)
  203ff9:	b8 08 00 00 00       	mov    $0x8,%eax
  203ffe:	0f b6 c8             	movzbl %al,%ecx
  204001:	b8 0b 00 00 00       	mov    $0xb,%eax
  204006:	0f b6 d0             	movzbl %al,%edx
  204009:	0f b6 45 f4          	movzbl -0xc(%ebp),%eax
  20400d:	8b 5d 08             	mov    0x8(%ebp),%ebx
  204010:	83 c3 04             	add    $0x4,%ebx
  204013:	51                   	push   %ecx
  204014:	52                   	push   %edx
  204015:	50                   	push   %eax
  204016:	53                   	push   %ebx
  204017:	e8 68 ff ff ff       	call   203f84 <setBitsModify>
  20401c:	83 c4 10             	add    $0x10,%esp
  20401f:	0f b6 45 f4          	movzbl -0xc(%ebp),%eax
  204023:	83 ec 08             	sub    $0x8,%esp
  204026:	68 b2 63 20 00       	push   $0x2063b2
  20402b:	50                   	push   %eax
  20402c:	e8 ef cf ff ff       	call   201020 <printBinary>
  204031:	83 c4 10             	add    $0x10,%esp
  204034:	90                   	nop
  204035:	8b 5d fc             	mov    -0x4(%ebp),%ebx
  204038:	c9                   	leave
  204039:	c3                   	ret

0020403a <getDescriptorTypeS>:
  20403a:	55                   	push   %ebp
  20403b:	89 e5                	mov    %esp,%ebp
  20403d:	83 ec 18             	sub    $0x18,%esp
  204040:	b8 0c 00 00 00       	mov    $0xc,%eax
  204045:	0f b6 c8             	movzbl %al,%ecx
  204048:	b8 0c 00 00 00       	mov    $0xc,%eax
  20404d:	0f b6 d0             	movzbl %al,%edx
  204050:	8b 45 08             	mov    0x8(%ebp),%eax
  204053:	8b 40 04             	mov    0x4(%eax),%eax
  204056:	83 ec 04             	sub    $0x4,%esp
  204059:	51                   	push   %ecx
  20405a:	52                   	push   %edx
  20405b:	50                   	push   %eax
  20405c:	e8 2e fe ff ff       	call   203e8f <getBits>
  204061:	83 c4 10             	add    $0x10,%esp
  204064:	88 45 f7             	mov    %al,-0x9(%ebp)
  204067:	0f b6 45 f7          	movzbl -0x9(%ebp),%eax
  20406b:	c9                   	leave
  20406c:	c3                   	ret

0020406d <setDescriptorTypeS>:
  20406d:	55                   	push   %ebp
  20406e:	89 e5                	mov    %esp,%ebp
  204070:	53                   	push   %ebx
  204071:	83 ec 14             	sub    $0x14,%esp
  204074:	8b 45 0c             	mov    0xc(%ebp),%eax
  204077:	88 45 f4             	mov    %al,-0xc(%ebp)
  20407a:	b8 0c 00 00 00       	mov    $0xc,%eax
  20407f:	0f b6 c8             	movzbl %al,%ecx
  204082:	b8 0c 00 00 00       	mov    $0xc,%eax
  204087:	0f b6 d0             	movzbl %al,%edx
  20408a:	0f b6 45 f4          	movzbl -0xc(%ebp),%eax
  20408e:	8b 5d 08             	mov    0x8(%ebp),%ebx
  204091:	83 c3 04             	add    $0x4,%ebx
  204094:	51                   	push   %ecx
  204095:	52                   	push   %edx
  204096:	50                   	push   %eax
  204097:	53                   	push   %ebx
  204098:	e8 e7 fe ff ff       	call   203f84 <setBitsModify>
  20409d:	83 c4 10             	add    $0x10,%esp
  2040a0:	0f b6 45 f4          	movzbl -0xc(%ebp),%eax
  2040a4:	83 ec 08             	sub    $0x8,%esp
  2040a7:	68 b7 63 20 00       	push   $0x2063b7
  2040ac:	50                   	push   %eax
  2040ad:	e8 6e cf ff ff       	call   201020 <printBinary>
  2040b2:	83 c4 10             	add    $0x10,%esp
  2040b5:	90                   	nop
  2040b6:	8b 5d fc             	mov    -0x4(%ebp),%ebx
  2040b9:	c9                   	leave
  2040ba:	c3                   	ret

002040bb <getPriviledgeDPL>:
  2040bb:	55                   	push   %ebp
  2040bc:	89 e5                	mov    %esp,%ebp
  2040be:	83 ec 18             	sub    $0x18,%esp
  2040c1:	b8 0d 00 00 00       	mov    $0xd,%eax
  2040c6:	0f b6 c8             	movzbl %al,%ecx
  2040c9:	b8 0e 00 00 00       	mov    $0xe,%eax
  2040ce:	0f b6 d0             	movzbl %al,%edx
  2040d1:	8b 45 08             	mov    0x8(%ebp),%eax
  2040d4:	8b 40 04             	mov    0x4(%eax),%eax
  2040d7:	83 ec 04             	sub    $0x4,%esp
  2040da:	51                   	push   %ecx
  2040db:	52                   	push   %edx
  2040dc:	50                   	push   %eax
  2040dd:	e8 ad fd ff ff       	call   203e8f <getBits>
  2040e2:	83 c4 10             	add    $0x10,%esp
  2040e5:	88 45 f7             	mov    %al,-0x9(%ebp)
  2040e8:	0f b6 45 f7          	movzbl -0x9(%ebp),%eax
  2040ec:	c9                   	leave
  2040ed:	c3                   	ret

002040ee <setPriviledgeDPL>:
  2040ee:	55                   	push   %ebp
  2040ef:	89 e5                	mov    %esp,%ebp
  2040f1:	53                   	push   %ebx
  2040f2:	83 ec 14             	sub    $0x14,%esp
  2040f5:	8b 45 0c             	mov    0xc(%ebp),%eax
  2040f8:	88 45 f4             	mov    %al,-0xc(%ebp)
  2040fb:	b8 0d 00 00 00       	mov    $0xd,%eax
  204100:	0f b6 c8             	movzbl %al,%ecx
  204103:	b8 0e 00 00 00       	mov    $0xe,%eax
  204108:	0f b6 d0             	movzbl %al,%edx
  20410b:	0f b6 45 f4          	movzbl -0xc(%ebp),%eax
  20410f:	8b 5d 08             	mov    0x8(%ebp),%ebx
  204112:	83 c3 04             	add    $0x4,%ebx
  204115:	51                   	push   %ecx
  204116:	52                   	push   %edx
  204117:	50                   	push   %eax
  204118:	53                   	push   %ebx
  204119:	e8 66 fe ff ff       	call   203f84 <setBitsModify>
  20411e:	83 c4 10             	add    $0x10,%esp
  204121:	0f b6 45 f4          	movzbl -0xc(%ebp),%eax
  204125:	83 ec 08             	sub    $0x8,%esp
  204128:	68 c7 63 20 00       	push   $0x2063c7
  20412d:	50                   	push   %eax
  20412e:	e8 ed ce ff ff       	call   201020 <printBinary>
  204133:	83 c4 10             	add    $0x10,%esp
  204136:	90                   	nop
  204137:	8b 5d fc             	mov    -0x4(%ebp),%ebx
  20413a:	c9                   	leave
  20413b:	c3                   	ret

0020413c <getPresent>:
  20413c:	55                   	push   %ebp
  20413d:	89 e5                	mov    %esp,%ebp
  20413f:	83 ec 18             	sub    $0x18,%esp
  204142:	8b 45 08             	mov    0x8(%ebp),%eax
  204145:	8b 40 04             	mov    0x4(%eax),%eax
  204148:	83 ec 04             	sub    $0x4,%esp
  20414b:	68 80 00 00 00       	push   $0x80
  204150:	68 80 00 00 00       	push   $0x80
  204155:	50                   	push   %eax
  204156:	e8 34 fd ff ff       	call   203e8f <getBits>
  20415b:	83 c4 10             	add    $0x10,%esp
  20415e:	88 45 f7             	mov    %al,-0x9(%ebp)
  204161:	0f b6 45 f7          	movzbl -0x9(%ebp),%eax
  204165:	c9                   	leave
  204166:	c3                   	ret

00204167 <setPresent>:
  204167:	55                   	push   %ebp
  204168:	89 e5                	mov    %esp,%ebp
  20416a:	83 ec 18             	sub    $0x18,%esp
  20416d:	8b 45 0c             	mov    0xc(%ebp),%eax
  204170:	88 45 f4             	mov    %al,-0xc(%ebp)
  204173:	0f b6 45 f4          	movzbl -0xc(%ebp),%eax
  204177:	8b 55 08             	mov    0x8(%ebp),%edx
  20417a:	83 c2 04             	add    $0x4,%edx
  20417d:	68 80 00 00 00       	push   $0x80
  204182:	68 80 00 00 00       	push   $0x80
  204187:	50                   	push   %eax
  204188:	52                   	push   %edx
  204189:	e8 f6 fd ff ff       	call   203f84 <setBitsModify>
  20418e:	83 c4 10             	add    $0x10,%esp
  204191:	0f b6 45 f4          	movzbl -0xc(%ebp),%eax
  204195:	83 ec 08             	sub    $0x8,%esp
  204198:	68 d5 63 20 00       	push   $0x2063d5
  20419d:	50                   	push   %eax
  20419e:	e8 7d ce ff ff       	call   201020 <printBinary>
  2041a3:	83 c4 10             	add    $0x10,%esp
  2041a6:	90                   	nop
  2041a7:	c9                   	leave
  2041a8:	c3                   	ret

002041a9 <getSegmentLimit>:
  2041a9:	55                   	push   %ebp
  2041aa:	89 e5                	mov    %esp,%ebp
  2041ac:	83 ec 18             	sub    $0x18,%esp
  2041af:	b8 10 00 00 00       	mov    $0x10,%eax
  2041b4:	0f b6 c8             	movzbl %al,%ecx
  2041b7:	b8 13 00 00 00       	mov    $0x13,%eax
  2041bc:	0f b6 d0             	movzbl %al,%edx
  2041bf:	8b 45 08             	mov    0x8(%ebp),%eax
  2041c2:	8b 40 04             	mov    0x4(%eax),%eax
  2041c5:	83 ec 04             	sub    $0x4,%esp
  2041c8:	51                   	push   %ecx
  2041c9:	52                   	push   %edx
  2041ca:	50                   	push   %eax
  2041cb:	e8 bf fc ff ff       	call   203e8f <getBits>
  2041d0:	83 c4 10             	add    $0x10,%esp
  2041d3:	89 45 f4             	mov    %eax,-0xc(%ebp)
  2041d6:	b8 00 00 00 00       	mov    $0x0,%eax
  2041db:	0f b6 c8             	movzbl %al,%ecx
  2041de:	b8 0f 00 00 00       	mov    $0xf,%eax
  2041e3:	0f b6 d0             	movzbl %al,%edx
  2041e6:	8b 45 08             	mov    0x8(%ebp),%eax
  2041e9:	8b 00                	mov    (%eax),%eax
  2041eb:	83 ec 04             	sub    $0x4,%esp
  2041ee:	51                   	push   %ecx
  2041ef:	52                   	push   %edx
  2041f0:	50                   	push   %eax
  2041f1:	e8 99 fc ff ff       	call   203e8f <getBits>
  2041f6:	83 c4 10             	add    $0x10,%esp
  2041f9:	89 45 f0             	mov    %eax,-0x10(%ebp)
  2041fc:	8b 45 f4             	mov    -0xc(%ebp),%eax
  2041ff:	c1 e0 10             	shl    $0x10,%eax
  204202:	89 45 ec             	mov    %eax,-0x14(%ebp)
  204205:	8b 45 ec             	mov    -0x14(%ebp),%eax
  204208:	0b 45 f0             	or     -0x10(%ebp),%eax
  20420b:	c9                   	leave
  20420c:	c3                   	ret

0020420d <setSegmentLimit>:
  20420d:	55                   	push   %ebp
  20420e:	89 e5                	mov    %esp,%ebp
  204210:	83 ec 18             	sub    $0x18,%esp
  204213:	b8 10 00 00 00       	mov    $0x10,%eax
  204218:	0f b6 d0             	movzbl %al,%edx
  20421b:	b8 13 00 00 00       	mov    $0x13,%eax
  204220:	0f b6 c0             	movzbl %al,%eax
  204223:	83 ec 04             	sub    $0x4,%esp
  204226:	52                   	push   %edx
  204227:	50                   	push   %eax
  204228:	ff 75 0c             	push   0xc(%ebp)
  20422b:	e8 5f fc ff ff       	call   203e8f <getBits>
  204230:	83 c4 10             	add    $0x10,%esp
  204233:	89 45 f4             	mov    %eax,-0xc(%ebp)
  204236:	b8 00 00 00 00       	mov    $0x0,%eax
  20423b:	0f b6 d0             	movzbl %al,%edx
  20423e:	b8 0f 00 00 00       	mov    $0xf,%eax
  204243:	0f b6 c0             	movzbl %al,%eax
  204246:	83 ec 04             	sub    $0x4,%esp
  204249:	52                   	push   %edx
  20424a:	50                   	push   %eax
  20424b:	ff 75 0c             	push   0xc(%ebp)
  20424e:	e8 3c fc ff ff       	call   203e8f <getBits>
  204253:	83 c4 10             	add    $0x10,%esp
  204256:	89 45 f0             	mov    %eax,-0x10(%ebp)
  204259:	b8 10 00 00 00       	mov    $0x10,%eax
  20425e:	0f b6 d0             	movzbl %al,%edx
  204261:	b8 13 00 00 00       	mov    $0x13,%eax
  204266:	0f b6 c0             	movzbl %al,%eax
  204269:	8b 4d 08             	mov    0x8(%ebp),%ecx
  20426c:	83 c1 04             	add    $0x4,%ecx
  20426f:	52                   	push   %edx
  204270:	50                   	push   %eax
  204271:	ff 75 f4             	push   -0xc(%ebp)
  204274:	51                   	push   %ecx
  204275:	e8 0a fd ff ff       	call   203f84 <setBitsModify>
  20427a:	83 c4 10             	add    $0x10,%esp
  20427d:	b8 00 00 00 00       	mov    $0x0,%eax
  204282:	0f b6 c8             	movzbl %al,%ecx
  204285:	b8 0f 00 00 00       	mov    $0xf,%eax
  20428a:	0f b6 d0             	movzbl %al,%edx
  20428d:	8b 45 08             	mov    0x8(%ebp),%eax
  204290:	51                   	push   %ecx
  204291:	52                   	push   %edx
  204292:	ff 75 f0             	push   -0x10(%ebp)
  204295:	50                   	push   %eax
  204296:	e8 e9 fc ff ff       	call   203f84 <setBitsModify>
  20429b:	83 c4 10             	add    $0x10,%esp
  20429e:	83 ec 08             	sub    $0x8,%esp
  2042a1:	68 de 63 20 00       	push   $0x2063de
  2042a6:	ff 75 0c             	push   0xc(%ebp)
  2042a9:	e8 72 cd ff ff       	call   201020 <printBinary>
  2042ae:	83 c4 10             	add    $0x10,%esp
  2042b1:	90                   	nop
  2042b2:	c9                   	leave
  2042b3:	c3                   	ret

002042b4 <getAVL>:
  2042b4:	55                   	push   %ebp
  2042b5:	89 e5                	mov    %esp,%ebp
  2042b7:	83 ec 18             	sub    $0x18,%esp
  2042ba:	b8 14 00 00 00       	mov    $0x14,%eax
  2042bf:	0f b6 c8             	movzbl %al,%ecx
  2042c2:	b8 14 00 00 00       	mov    $0x14,%eax
  2042c7:	0f b6 d0             	movzbl %al,%edx
  2042ca:	8b 45 08             	mov    0x8(%ebp),%eax
  2042cd:	8b 40 04             	mov    0x4(%eax),%eax
  2042d0:	83 ec 04             	sub    $0x4,%esp
  2042d3:	51                   	push   %ecx
  2042d4:	52                   	push   %edx
  2042d5:	50                   	push   %eax
  2042d6:	e8 b4 fb ff ff       	call   203e8f <getBits>
  2042db:	83 c4 10             	add    $0x10,%esp
  2042de:	88 45 f7             	mov    %al,-0x9(%ebp)
  2042e1:	0f b6 45 f7          	movzbl -0x9(%ebp),%eax
  2042e5:	c9                   	leave
  2042e6:	c3                   	ret

002042e7 <setAVL>:
  2042e7:	55                   	push   %ebp
  2042e8:	89 e5                	mov    %esp,%ebp
  2042ea:	53                   	push   %ebx
  2042eb:	83 ec 14             	sub    $0x14,%esp
  2042ee:	8b 45 0c             	mov    0xc(%ebp),%eax
  2042f1:	88 45 f4             	mov    %al,-0xc(%ebp)
  2042f4:	b8 14 00 00 00       	mov    $0x14,%eax
  2042f9:	0f b6 c8             	movzbl %al,%ecx
  2042fc:	b8 14 00 00 00       	mov    $0x14,%eax
  204301:	0f b6 d0             	movzbl %al,%edx
  204304:	0f b6 45 f4          	movzbl -0xc(%ebp),%eax
  204308:	8b 5d 08             	mov    0x8(%ebp),%ebx
  20430b:	83 c3 04             	add    $0x4,%ebx
  20430e:	51                   	push   %ecx
  20430f:	52                   	push   %edx
  204310:	50                   	push   %eax
  204311:	53                   	push   %ebx
  204312:	e8 6d fc ff ff       	call   203f84 <setBitsModify>
  204317:	83 c4 10             	add    $0x10,%esp
  20431a:	0f b6 45 f4          	movzbl -0xc(%ebp),%eax
  20431e:	83 ec 08             	sub    $0x8,%esp
  204321:	68 eb 63 20 00       	push   $0x2063eb
  204326:	50                   	push   %eax
  204327:	e8 f4 cc ff ff       	call   201020 <printBinary>
  20432c:	83 c4 10             	add    $0x10,%esp
  20432f:	90                   	nop
  204330:	8b 5d fc             	mov    -0x4(%ebp),%ebx
  204333:	c9                   	leave
  204334:	c3                   	ret

00204335 <getLongMode>:
  204335:	55                   	push   %ebp
  204336:	89 e5                	mov    %esp,%ebp
  204338:	83 ec 18             	sub    $0x18,%esp
  20433b:	8b 45 08             	mov    0x8(%ebp),%eax
  20433e:	8b 40 04             	mov    0x4(%eax),%eax
  204341:	83 ec 04             	sub    $0x4,%esp
  204344:	6a 20                	push   $0x20
  204346:	6a 20                	push   $0x20
  204348:	50                   	push   %eax
  204349:	e8 41 fb ff ff       	call   203e8f <getBits>
  20434e:	83 c4 10             	add    $0x10,%esp
  204351:	88 45 f7             	mov    %al,-0x9(%ebp)
  204354:	0f b6 45 f7          	movzbl -0x9(%ebp),%eax
  204358:	c9                   	leave
  204359:	c3                   	ret

0020435a <setLongMode>:
  20435a:	55                   	push   %ebp
  20435b:	89 e5                	mov    %esp,%ebp
  20435d:	83 ec 18             	sub    $0x18,%esp
  204360:	8b 45 0c             	mov    0xc(%ebp),%eax
  204363:	88 45 f4             	mov    %al,-0xc(%ebp)
  204366:	0f b6 45 f4          	movzbl -0xc(%ebp),%eax
  20436a:	8b 55 08             	mov    0x8(%ebp),%edx
  20436d:	83 c2 04             	add    $0x4,%edx
  204370:	6a 20                	push   $0x20
  204372:	6a 20                	push   $0x20
  204374:	50                   	push   %eax
  204375:	52                   	push   %edx
  204376:	e8 09 fc ff ff       	call   203f84 <setBitsModify>
  20437b:	83 c4 10             	add    $0x10,%esp
  20437e:	0f b6 45 f4          	movzbl -0xc(%ebp),%eax
  204382:	83 ec 08             	sub    $0x8,%esp
  204385:	68 ef 63 20 00       	push   $0x2063ef
  20438a:	50                   	push   %eax
  20438b:	e8 90 cc ff ff       	call   201020 <printBinary>
  204390:	83 c4 10             	add    $0x10,%esp
  204393:	90                   	nop
  204394:	c9                   	leave
  204395:	c3                   	ret

00204396 <getDefaultOperationSize>:
  204396:	55                   	push   %ebp
  204397:	89 e5                	mov    %esp,%ebp
  204399:	83 ec 18             	sub    $0x18,%esp
  20439c:	b8 16 00 00 00       	mov    $0x16,%eax
  2043a1:	0f b6 c8             	movzbl %al,%ecx
  2043a4:	b8 16 00 00 00       	mov    $0x16,%eax
  2043a9:	0f b6 d0             	movzbl %al,%edx
  2043ac:	8b 45 08             	mov    0x8(%ebp),%eax
  2043af:	8b 40 04             	mov    0x4(%eax),%eax
  2043b2:	83 ec 04             	sub    $0x4,%esp
  2043b5:	51                   	push   %ecx
  2043b6:	52                   	push   %edx
  2043b7:	50                   	push   %eax
  2043b8:	e8 d2 fa ff ff       	call   203e8f <getBits>
  2043bd:	83 c4 10             	add    $0x10,%esp
  2043c0:	88 45 f7             	mov    %al,-0x9(%ebp)
  2043c3:	0f b6 45 f7          	movzbl -0x9(%ebp),%eax
  2043c7:	c9                   	leave
  2043c8:	c3                   	ret

002043c9 <setDefaultOperationSize>:
  2043c9:	55                   	push   %ebp
  2043ca:	89 e5                	mov    %esp,%ebp
  2043cc:	53                   	push   %ebx
  2043cd:	83 ec 14             	sub    $0x14,%esp
  2043d0:	8b 45 0c             	mov    0xc(%ebp),%eax
  2043d3:	88 45 f4             	mov    %al,-0xc(%ebp)
  2043d6:	b8 16 00 00 00       	mov    $0x16,%eax
  2043db:	0f b6 c8             	movzbl %al,%ecx
  2043de:	b8 16 00 00 00       	mov    $0x16,%eax
  2043e3:	0f b6 d0             	movzbl %al,%edx
  2043e6:	0f b6 45 f4          	movzbl -0xc(%ebp),%eax
  2043ea:	8b 5d 08             	mov    0x8(%ebp),%ebx
  2043ed:	83 c3 04             	add    $0x4,%ebx
  2043f0:	51                   	push   %ecx
  2043f1:	52                   	push   %edx
  2043f2:	50                   	push   %eax
  2043f3:	53                   	push   %ebx
  2043f4:	e8 8b fb ff ff       	call   203f84 <setBitsModify>
  2043f9:	83 c4 10             	add    $0x10,%esp
  2043fc:	0f b6 45 f4          	movzbl -0xc(%ebp),%eax
  204400:	83 ec 08             	sub    $0x8,%esp
  204403:	68 f1 63 20 00       	push   $0x2063f1
  204408:	50                   	push   %eax
  204409:	e8 12 cc ff ff       	call   201020 <printBinary>
  20440e:	83 c4 10             	add    $0x10,%esp
  204411:	90                   	nop
  204412:	8b 5d fc             	mov    -0x4(%ebp),%ebx
  204415:	c9                   	leave
  204416:	c3                   	ret

00204417 <getGranularity>:
  204417:	55                   	push   %ebp
  204418:	89 e5                	mov    %esp,%ebp
  20441a:	83 ec 18             	sub    $0x18,%esp
  20441d:	b8 17 00 00 00       	mov    $0x17,%eax
  204422:	0f b6 c8             	movzbl %al,%ecx
  204425:	b8 17 00 00 00       	mov    $0x17,%eax
  20442a:	0f b6 d0             	movzbl %al,%edx
  20442d:	8b 45 08             	mov    0x8(%ebp),%eax
  204430:	8b 40 04             	mov    0x4(%eax),%eax
  204433:	83 ec 04             	sub    $0x4,%esp
  204436:	51                   	push   %ecx
  204437:	52                   	push   %edx
  204438:	50                   	push   %eax
  204439:	e8 51 fa ff ff       	call   203e8f <getBits>
  20443e:	83 c4 10             	add    $0x10,%esp
  204441:	88 45 f7             	mov    %al,-0x9(%ebp)
  204444:	0f b6 45 f7          	movzbl -0x9(%ebp),%eax
  204448:	c9                   	leave
  204449:	c3                   	ret

0020444a <setGranularity>:
  20444a:	55                   	push   %ebp
  20444b:	89 e5                	mov    %esp,%ebp
  20444d:	53                   	push   %ebx
  20444e:	83 ec 14             	sub    $0x14,%esp
  204451:	8b 45 0c             	mov    0xc(%ebp),%eax
  204454:	88 45 f4             	mov    %al,-0xc(%ebp)
  204457:	b8 17 00 00 00       	mov    $0x17,%eax
  20445c:	0f b6 c8             	movzbl %al,%ecx
  20445f:	b8 17 00 00 00       	mov    $0x17,%eax
  204464:	0f b6 d0             	movzbl %al,%edx
  204467:	0f b6 45 f4          	movzbl -0xc(%ebp),%eax
  20446b:	8b 5d 08             	mov    0x8(%ebp),%ebx
  20446e:	83 c3 04             	add    $0x4,%ebx
  204471:	51                   	push   %ecx
  204472:	52                   	push   %edx
  204473:	50                   	push   %eax
  204474:	53                   	push   %ebx
  204475:	e8 0a fb ff ff       	call   203f84 <setBitsModify>
  20447a:	83 c4 10             	add    $0x10,%esp
  20447d:	0f b6 45 f4          	movzbl -0xc(%ebp),%eax
  204481:	83 ec 08             	sub    $0x8,%esp
  204484:	68 f5 63 20 00       	push   $0x2063f5
  204489:	50                   	push   %eax
  20448a:	e8 91 cb ff ff       	call   201020 <printBinary>
  20448f:	83 c4 10             	add    $0x10,%esp
  204492:	90                   	nop
  204493:	8b 5d fc             	mov    -0x4(%ebp),%ebx
  204496:	c9                   	leave
  204497:	c3                   	ret

00204498 <getBaseAddress>:
  204498:	55                   	push   %ebp
  204499:	89 e5                	mov    %esp,%ebp
  20449b:	83 ec 28             	sub    $0x28,%esp
  20449e:	8b 45 08             	mov    0x8(%ebp),%eax
  2044a1:	8b 00                	mov    (%eax),%eax
  2044a3:	83 ec 04             	sub    $0x4,%esp
  2044a6:	6a 10                	push   $0x10
  2044a8:	6a 1f                	push   $0x1f
  2044aa:	50                   	push   %eax
  2044ab:	e8 df f9 ff ff       	call   203e8f <getBits>
  2044b0:	83 c4 10             	add    $0x10,%esp
  2044b3:	89 45 f4             	mov    %eax,-0xc(%ebp)
  2044b6:	8b 45 08             	mov    0x8(%ebp),%eax
  2044b9:	8b 40 04             	mov    0x4(%eax),%eax
  2044bc:	83 ec 04             	sub    $0x4,%esp
  2044bf:	6a 00                	push   $0x0
  2044c1:	6a 07                	push   $0x7
  2044c3:	50                   	push   %eax
  2044c4:	e8 c6 f9 ff ff       	call   203e8f <getBits>
  2044c9:	83 c4 10             	add    $0x10,%esp
  2044cc:	89 45 f0             	mov    %eax,-0x10(%ebp)
  2044cf:	8b 45 08             	mov    0x8(%ebp),%eax
  2044d2:	8b 40 04             	mov    0x4(%eax),%eax
  2044d5:	83 ec 04             	sub    $0x4,%esp
  2044d8:	6a 18                	push   $0x18
  2044da:	6a 1f                	push   $0x1f
  2044dc:	50                   	push   %eax
  2044dd:	e8 ad f9 ff ff       	call   203e8f <getBits>
  2044e2:	83 c4 10             	add    $0x10,%esp
  2044e5:	89 45 ec             	mov    %eax,-0x14(%ebp)
  2044e8:	8b 45 f4             	mov    -0xc(%ebp),%eax
  2044eb:	89 45 e8             	mov    %eax,-0x18(%ebp)
  2044ee:	8b 45 f0             	mov    -0x10(%ebp),%eax
  2044f1:	c1 e0 10             	shl    $0x10,%eax
  2044f4:	89 45 e4             	mov    %eax,-0x1c(%ebp)
  2044f7:	8b 45 ec             	mov    -0x14(%ebp),%eax
  2044fa:	c1 e0 18             	shl    $0x18,%eax
  2044fd:	89 45 e0             	mov    %eax,-0x20(%ebp)
  204500:	8b 45 e8             	mov    -0x18(%ebp),%eax
  204503:	0b 45 e4             	or     -0x1c(%ebp),%eax
  204506:	0b 45 e0             	or     -0x20(%ebp),%eax
  204509:	89 45 dc             	mov    %eax,-0x24(%ebp)
  20450c:	8b 45 dc             	mov    -0x24(%ebp),%eax
  20450f:	c9                   	leave
  204510:	c3                   	ret

00204511 <setBaseAddress>:
  204511:	55                   	push   %ebp
  204512:	89 e5                	mov    %esp,%ebp
  204514:	83 ec 18             	sub    $0x18,%esp
  204517:	83 ec 04             	sub    $0x4,%esp
  20451a:	6a 18                	push   $0x18
  20451c:	6a 1f                	push   $0x1f
  20451e:	ff 75 0c             	push   0xc(%ebp)
  204521:	e8 69 f9 ff ff       	call   203e8f <getBits>
  204526:	83 c4 10             	add    $0x10,%esp
  204529:	89 45 f4             	mov    %eax,-0xc(%ebp)
  20452c:	83 ec 04             	sub    $0x4,%esp
  20452f:	6a 10                	push   $0x10
  204531:	6a 17                	push   $0x17
  204533:	ff 75 0c             	push   0xc(%ebp)
  204536:	e8 54 f9 ff ff       	call   203e8f <getBits>
  20453b:	83 c4 10             	add    $0x10,%esp
  20453e:	89 45 f0             	mov    %eax,-0x10(%ebp)
  204541:	83 ec 04             	sub    $0x4,%esp
  204544:	6a 00                	push   $0x0
  204546:	6a 0f                	push   $0xf
  204548:	ff 75 0c             	push   0xc(%ebp)
  20454b:	e8 3f f9 ff ff       	call   203e8f <getBits>
  204550:	83 c4 10             	add    $0x10,%esp
  204553:	89 45 ec             	mov    %eax,-0x14(%ebp)
  204556:	8b 45 08             	mov    0x8(%ebp),%eax
  204559:	6a 10                	push   $0x10
  20455b:	6a 1f                	push   $0x1f
  20455d:	ff 75 ec             	push   -0x14(%ebp)
  204560:	50                   	push   %eax
  204561:	e8 1e fa ff ff       	call   203f84 <setBitsModify>
  204566:	83 c4 10             	add    $0x10,%esp
  204569:	8b 45 08             	mov    0x8(%ebp),%eax
  20456c:	83 c0 04             	add    $0x4,%eax
  20456f:	6a 00                	push   $0x0
  204571:	6a 07                	push   $0x7
  204573:	ff 75 f0             	push   -0x10(%ebp)
  204576:	50                   	push   %eax
  204577:	e8 08 fa ff ff       	call   203f84 <setBitsModify>
  20457c:	83 c4 10             	add    $0x10,%esp
  20457f:	8b 45 08             	mov    0x8(%ebp),%eax
  204582:	83 c0 04             	add    $0x4,%eax
  204585:	6a 18                	push   $0x18
  204587:	6a 1f                	push   $0x1f
  204589:	ff 75 f4             	push   -0xc(%ebp)
  20458c:	50                   	push   %eax
  20458d:	e8 f2 f9 ff ff       	call   203f84 <setBitsModify>
  204592:	83 c4 10             	add    $0x10,%esp
  204595:	83 ec 08             	sub    $0x8,%esp
  204598:	68 01 64 20 00       	push   $0x206401
  20459d:	ff 75 0c             	push   0xc(%ebp)
  2045a0:	e8 7b ca ff ff       	call   201020 <printBinary>
  2045a5:	83 c4 10             	add    $0x10,%esp
  2045a8:	90                   	nop
  2045a9:	c9                   	leave
  2045aa:	c3                   	ret

002045ab <get_access>:
  2045ab:	55                   	push   %ebp
  2045ac:	89 e5                	mov    %esp,%ebp
  2045ae:	83 ec 10             	sub    $0x10,%esp
  2045b1:	8b 45 08             	mov    0x8(%ebp),%eax
  2045b4:	89 45 fc             	mov    %eax,-0x4(%ebp)
  2045b7:	8b 45 fc             	mov    -0x4(%ebp),%eax
  2045ba:	0f b6 40 05          	movzbl 0x5(%eax),%eax
  2045be:	88 45 fb             	mov    %al,-0x5(%ebp)
  2045c1:	0f b6 45 fb          	movzbl -0x5(%ebp),%eax
  2045c5:	c9                   	leave
  2045c6:	c3                   	ret

002045c7 <get_flags>:
  2045c7:	55                   	push   %ebp
  2045c8:	89 e5                	mov    %esp,%ebp
  2045ca:	83 ec 18             	sub    $0x18,%esp
  2045cd:	8b 45 08             	mov    0x8(%ebp),%eax
  2045d0:	89 45 f4             	mov    %eax,-0xc(%ebp)
  2045d3:	8b 45 f4             	mov    -0xc(%ebp),%eax
  2045d6:	0f b6 40 06          	movzbl 0x6(%eax),%eax
  2045da:	88 45 f3             	mov    %al,-0xd(%ebp)
  2045dd:	0f b6 45 f3          	movzbl -0xd(%ebp),%eax
  2045e1:	c0 e8 04             	shr    $0x4,%al
  2045e4:	88 45 f2             	mov    %al,-0xe(%ebp)
  2045e7:	0f b6 45 f3          	movzbl -0xd(%ebp),%eax
  2045eb:	83 e0 0f             	and    $0xf,%eax
  2045ee:	88 45 f1             	mov    %al,-0xf(%ebp)
  2045f1:	80 7d f2 0f          	cmpb   $0xf,-0xe(%ebp)
  2045f5:	76 10                	jbe    204607 <get_flags+0x40>
  2045f7:	83 ec 0c             	sub    $0xc,%esp
  2045fa:	68 10 64 20 00       	push   $0x206410
  2045ff:	e8 d3 d3 ff ff       	call   2019d7 <terminal_writestring>
  204604:	83 c4 10             	add    $0x10,%esp
  204607:	0f b6 45 f2          	movzbl -0xe(%ebp),%eax
  20460b:	c9                   	leave
  20460c:	c3                   	ret

0020460d <printFlags>:
  20460d:	55                   	push   %ebp
  20460e:	89 e5                	mov    %esp,%ebp
  204610:	81 ec 98 00 00 00    	sub    $0x98,%esp
  204616:	83 ec 0c             	sub    $0xc,%esp
  204619:	ff 75 08             	push   0x8(%ebp)
  20461c:	e8 a6 ff ff ff       	call   2045c7 <get_flags>
  204621:	83 c4 10             	add    $0x10,%esp
  204624:	88 45 f7             	mov    %al,-0x9(%ebp)
  204627:	0f b6 45 f7          	movzbl -0x9(%ebp),%eax
  20462b:	83 ec 04             	sub    $0x4,%esp
  20462e:	6a 04                	push   $0x4
  204630:	68 3e 64 20 00       	push   $0x20643e
  204635:	50                   	push   %eax
  204636:	e8 68 ca ff ff       	call   2010a3 <printBinarySize>
  20463b:	83 c4 10             	add    $0x10,%esp
  20463e:	0f b6 45 f7          	movzbl -0x9(%ebp),%eax
  204642:	83 ec 08             	sub    $0x8,%esp
  204645:	8d 95 77 ff ff ff    	lea    -0x89(%ebp),%edx
  20464b:	52                   	push   %edx
  20464c:	50                   	push   %eax
  20464d:	e8 45 08 00 00       	call   204e97 <interpret_flags>
  204652:	83 c4 10             	add    $0x10,%esp
  204655:	83 ec 0c             	sub    $0xc,%esp
  204658:	8d 85 77 ff ff ff    	lea    -0x89(%ebp),%eax
  20465e:	50                   	push   %eax
  20465f:	e8 73 d3 ff ff       	call   2019d7 <terminal_writestring>
  204664:	83 c4 10             	add    $0x10,%esp
  204667:	90                   	nop
  204668:	c9                   	leave
  204669:	c3                   	ret

0020466a <printAccess>:
  20466a:	55                   	push   %ebp
  20466b:	89 e5                	mov    %esp,%ebp
  20466d:	81 ec 98 00 00 00    	sub    $0x98,%esp
  204673:	ff 75 08             	push   0x8(%ebp)
  204676:	e8 30 ff ff ff       	call   2045ab <get_access>
  20467b:	83 c4 04             	add    $0x4,%esp
  20467e:	88 45 f7             	mov    %al,-0x9(%ebp)
  204681:	0f b6 45 f7          	movzbl -0x9(%ebp),%eax
  204685:	83 ec 04             	sub    $0x4,%esp
  204688:	6a 08                	push   $0x8
  20468a:	68 44 64 20 00       	push   $0x206444
  20468f:	50                   	push   %eax
  204690:	e8 0e ca ff ff       	call   2010a3 <printBinarySize>
  204695:	83 c4 10             	add    $0x10,%esp
  204698:	0f b6 45 f7          	movzbl -0x9(%ebp),%eax
  20469c:	83 ec 08             	sub    $0x8,%esp
  20469f:	8d 95 77 ff ff ff    	lea    -0x89(%ebp),%edx
  2046a5:	52                   	push   %edx
  2046a6:	50                   	push   %eax
  2046a7:	e8 13 03 00 00       	call   2049bf <interpret_access>
  2046ac:	83 c4 10             	add    $0x10,%esp
  2046af:	83 ec 0c             	sub    $0xc,%esp
  2046b2:	8d 85 77 ff ff ff    	lea    -0x89(%ebp),%eax
  2046b8:	50                   	push   %eax
  2046b9:	e8 19 d3 ff ff       	call   2019d7 <terminal_writestring>
  2046be:	83 c4 10             	add    $0x10,%esp
  2046c1:	90                   	nop
  2046c2:	c9                   	leave
  2046c3:	c3                   	ret

002046c4 <bool_to_char>:
  2046c4:	55                   	push   %ebp
  2046c5:	89 e5                	mov    %esp,%ebp
  2046c7:	83 ec 04             	sub    $0x4,%esp
  2046ca:	8b 45 08             	mov    0x8(%ebp),%eax
  2046cd:	88 45 fc             	mov    %al,-0x4(%ebp)
  2046d0:	80 7d fc 00          	cmpb   $0x0,-0x4(%ebp)
  2046d4:	74 07                	je     2046dd <bool_to_char+0x19>
  2046d6:	b8 31 00 00 00       	mov    $0x31,%eax
  2046db:	eb 05                	jmp    2046e2 <bool_to_char+0x1e>
  2046dd:	b8 30 00 00 00       	mov    $0x30,%eax
  2046e2:	c9                   	leave
  2046e3:	c3                   	ret

002046e4 <modify_string>:
  2046e4:	55                   	push   %ebp
  2046e5:	89 e5                	mov    %esp,%ebp
  2046e7:	83 ec 14             	sub    $0x14,%esp
  2046ea:	8b 45 0c             	mov    0xc(%ebp),%eax
  2046ed:	88 45 ec             	mov    %al,-0x14(%ebp)
  2046f0:	8b 45 08             	mov    0x8(%ebp),%eax
  2046f3:	89 45 fc             	mov    %eax,-0x4(%ebp)
  2046f6:	c6 45 fb 00          	movb   $0x0,-0x5(%ebp)
  2046fa:	c6 45 fa 00          	movb   $0x0,-0x6(%ebp)
  2046fe:	eb 4f                	jmp    20474f <modify_string+0x6b>
  204700:	8b 45 fc             	mov    -0x4(%ebp),%eax
  204703:	0f b6 00             	movzbl (%eax),%eax
  204706:	3c 25                	cmp    $0x25,%al
  204708:	75 37                	jne    204741 <modify_string+0x5d>
  20470a:	80 7d fa 07          	cmpb   $0x7,-0x6(%ebp)
  20470e:	77 4b                	ja     20475b <modify_string+0x77>
  204710:	0f b6 55 ec          	movzbl -0x14(%ebp),%edx
  204714:	0f b6 45 fa          	movzbl -0x6(%ebp),%eax
  204718:	89 c1                	mov    %eax,%ecx
  20471a:	d3 fa                	sar    %cl,%edx
  20471c:	89 d0                	mov    %edx,%eax
  20471e:	88 45 f9             	mov    %al,-0x7(%ebp)
  204721:	80 65 f9 01          	andb   $0x1,-0x7(%ebp)
  204725:	0f b6 45 f9          	movzbl -0x7(%ebp),%eax
  204729:	50                   	push   %eax
  20472a:	e8 95 ff ff ff       	call   2046c4 <bool_to_char>
  20472f:	83 c4 04             	add    $0x4,%esp
  204732:	8b 55 fc             	mov    -0x4(%ebp),%edx
  204735:	88 02                	mov    %al,(%edx)
  204737:	0f b6 45 fa          	movzbl -0x6(%ebp),%eax
  20473b:	83 c0 01             	add    $0x1,%eax
  20473e:	88 45 fa             	mov    %al,-0x6(%ebp)
  204741:	0f b6 45 fb          	movzbl -0x5(%ebp),%eax
  204745:	83 c0 01             	add    $0x1,%eax
  204748:	88 45 fb             	mov    %al,-0x5(%ebp)
  20474b:	83 45 fc 01          	addl   $0x1,-0x4(%ebp)
  20474f:	8b 45 fc             	mov    -0x4(%ebp),%eax
  204752:	0f b6 00             	movzbl (%eax),%eax
  204755:	84 c0                	test   %al,%al
  204757:	75 a7                	jne    204700 <modify_string+0x1c>
  204759:	eb 01                	jmp    20475c <modify_string+0x78>
  20475b:	90                   	nop
  20475c:	90                   	nop
  20475d:	c9                   	leave
  20475e:	c3                   	ret

0020475f <modify_string_opsize>:
  20475f:	55                   	push   %ebp
  204760:	89 e5                	mov    %esp,%ebp
  204762:	83 ec 14             	sub    $0x14,%esp
  204765:	8b 45 0c             	mov    0xc(%ebp),%eax
  204768:	88 45 ec             	mov    %al,-0x14(%ebp)
  20476b:	8b 45 08             	mov    0x8(%ebp),%eax
  20476e:	89 45 fc             	mov    %eax,-0x4(%ebp)
  204771:	c6 45 fb 00          	movb   $0x0,-0x5(%ebp)
  204775:	c6 45 fa 00          	movb   $0x0,-0x6(%ebp)
  204779:	c6 45 f9 00          	movb   $0x0,-0x7(%ebp)
  20477d:	0f b6 45 ec          	movzbl -0x14(%ebp),%eax
  204781:	83 f8 40             	cmp    $0x40,%eax
  204784:	74 25                	je     2047ab <modify_string_opsize+0x4c>
  204786:	83 f8 40             	cmp    $0x40,%eax
  204789:	7f 67                	jg     2047f2 <modify_string_opsize+0x93>
  20478b:	83 f8 10             	cmp    $0x10,%eax
  20478e:	74 07                	je     204797 <modify_string_opsize+0x38>
  204790:	83 f8 20             	cmp    $0x20,%eax
  204793:	74 0c                	je     2047a1 <modify_string_opsize+0x42>
  204795:	eb 1d                	jmp    2047b4 <modify_string_opsize+0x55>
  204797:	c6 45 f7 31          	movb   $0x31,-0x9(%ebp)
  20479b:	c6 45 f8 36          	movb   $0x36,-0x8(%ebp)
  20479f:	eb 13                	jmp    2047b4 <modify_string_opsize+0x55>
  2047a1:	c6 45 f7 33          	movb   $0x33,-0x9(%ebp)
  2047a5:	c6 45 f8 32          	movb   $0x32,-0x8(%ebp)
  2047a9:	eb 09                	jmp    2047b4 <modify_string_opsize+0x55>
  2047ab:	c6 45 f7 36          	movb   $0x36,-0x9(%ebp)
  2047af:	c6 45 f8 34          	movb   $0x34,-0x8(%ebp)
  2047b3:	90                   	nop
  2047b4:	eb 3c                	jmp    2047f2 <modify_string_opsize+0x93>
  2047b6:	8b 45 fc             	mov    -0x4(%ebp),%eax
  2047b9:	0f b6 00             	movzbl (%eax),%eax
  2047bc:	3c 25                	cmp    $0x25,%al
  2047be:	75 24                	jne    2047e4 <modify_string_opsize+0x85>
  2047c0:	80 7d fa 01          	cmpb   $0x1,-0x6(%ebp)
  2047c4:	77 38                	ja     2047fe <modify_string_opsize+0x9f>
  2047c6:	0f b6 45 fa          	movzbl -0x6(%ebp),%eax
  2047ca:	0f b6 4d fb          	movzbl -0x5(%ebp),%ecx
  2047ce:	8b 55 08             	mov    0x8(%ebp),%edx
  2047d1:	01 ca                	add    %ecx,%edx
  2047d3:	0f b6 44 05 f7       	movzbl -0x9(%ebp,%eax,1),%eax
  2047d8:	88 02                	mov    %al,(%edx)
  2047da:	0f b6 45 fa          	movzbl -0x6(%ebp),%eax
  2047de:	83 c0 01             	add    $0x1,%eax
  2047e1:	88 45 fa             	mov    %al,-0x6(%ebp)
  2047e4:	0f b6 45 fb          	movzbl -0x5(%ebp),%eax
  2047e8:	83 c0 01             	add    $0x1,%eax
  2047eb:	88 45 fb             	mov    %al,-0x5(%ebp)
  2047ee:	83 45 fc 01          	addl   $0x1,-0x4(%ebp)
  2047f2:	8b 45 fc             	mov    -0x4(%ebp),%eax
  2047f5:	0f b6 00             	movzbl (%eax),%eax
  2047f8:	84 c0                	test   %al,%al
  2047fa:	75 ba                	jne    2047b6 <modify_string_opsize+0x57>
  2047fc:	eb 01                	jmp    2047ff <modify_string_opsize+0xa0>
  2047fe:	90                   	nop
  2047ff:	90                   	nop
  204800:	c9                   	leave
  204801:	c3                   	ret

00204802 <create_access_desc_str>:
  204802:	55                   	push   %ebp
  204803:	89 e5                	mov    %esp,%ebp
  204805:	83 ec 60             	sub    $0x60,%esp
  204808:	8b 45 0c             	mov    0xc(%ebp),%eax
  20480b:	85 c0                	test   %eax,%eax
  20480d:	74 07                	je     204816 <create_access_desc_str+0x14>
  20480f:	83 f8 01             	cmp    $0x1,%eax
  204812:	74 47                	je     20485b <create_access_desc_str+0x59>
  204814:	eb 7d                	jmp    204893 <create_access_desc_str+0x91>
  204816:	8b 45 10             	mov    0x10(%ebp),%eax
  204819:	89 45 ac             	mov    %eax,-0x54(%ebp)
  20481c:	8b 45 14             	mov    0x14(%ebp),%eax
  20481f:	89 45 b0             	mov    %eax,-0x50(%ebp)
  204822:	8b 45 18             	mov    0x18(%ebp),%eax
  204825:	89 45 b4             	mov    %eax,-0x4c(%ebp)
  204828:	8b 45 1c             	mov    0x1c(%ebp),%eax
  20482b:	89 45 b8             	mov    %eax,-0x48(%ebp)
  20482e:	8b 45 20             	mov    0x20(%ebp),%eax
  204831:	89 45 bc             	mov    %eax,-0x44(%ebp)
  204834:	8b 45 24             	mov    0x24(%ebp),%eax
  204837:	89 45 c0             	mov    %eax,-0x40(%ebp)
  20483a:	8b 45 28             	mov    0x28(%ebp),%eax
  20483d:	89 45 c4             	mov    %eax,-0x3c(%ebp)
  204840:	8b 45 2c             	mov    0x2c(%ebp),%eax
  204843:	89 45 c8             	mov    %eax,-0x38(%ebp)
  204846:	8b 45 ac             	mov    -0x54(%ebp),%eax
  204849:	89 45 fc             	mov    %eax,-0x4(%ebp)
  20484c:	8d 45 ac             	lea    -0x54(%ebp),%eax
  20484f:	83 c0 04             	add    $0x4,%eax
  204852:	89 45 f8             	mov    %eax,-0x8(%ebp)
  204855:	c6 45 f7 07          	movb   $0x7,-0x9(%ebp)
  204859:	eb 38                	jmp    204893 <create_access_desc_str+0x91>
  20485b:	8b 45 10             	mov    0x10(%ebp),%eax
  20485e:	89 45 cc             	mov    %eax,-0x34(%ebp)
  204861:	8b 45 14             	mov    0x14(%ebp),%eax
  204864:	89 45 d0             	mov    %eax,-0x30(%ebp)
  204867:	8b 45 18             	mov    0x18(%ebp),%eax
  20486a:	89 45 d4             	mov    %eax,-0x2c(%ebp)
  20486d:	8b 45 1c             	mov    0x1c(%ebp),%eax
  204870:	89 45 d8             	mov    %eax,-0x28(%ebp)
  204873:	8b 45 20             	mov    0x20(%ebp),%eax
  204876:	89 45 dc             	mov    %eax,-0x24(%ebp)
  204879:	8b 45 24             	mov    0x24(%ebp),%eax
  20487c:	89 45 e0             	mov    %eax,-0x20(%ebp)
  20487f:	8b 45 cc             	mov    -0x34(%ebp),%eax
  204882:	89 45 fc             	mov    %eax,-0x4(%ebp)
  204885:	8d 45 cc             	lea    -0x34(%ebp),%eax
  204888:	83 c0 04             	add    $0x4,%eax
  20488b:	89 45 f8             	mov    %eax,-0x8(%ebp)
  20488e:	c6 45 f7 05          	movb   $0x5,-0x9(%ebp)
  204892:	90                   	nop
  204893:	c6 45 f6 00          	movb   $0x0,-0xa(%ebp)
  204897:	8b 45 fc             	mov    -0x4(%ebp),%eax
  20489a:	89 45 f0             	mov    %eax,-0x10(%ebp)
  20489d:	eb 1f                	jmp    2048be <create_access_desc_str+0xbc>
  20489f:	0f b6 55 f6          	movzbl -0xa(%ebp),%edx
  2048a3:	8b 45 08             	mov    0x8(%ebp),%eax
  2048a6:	01 c2                	add    %eax,%edx
  2048a8:	8b 45 f0             	mov    -0x10(%ebp),%eax
  2048ab:	0f b6 00             	movzbl (%eax),%eax
  2048ae:	88 02                	mov    %al,(%edx)
  2048b0:	0f b6 45 f6          	movzbl -0xa(%ebp),%eax
  2048b4:	83 c0 01             	add    $0x1,%eax
  2048b7:	88 45 f6             	mov    %al,-0xa(%ebp)
  2048ba:	83 45 f0 01          	addl   $0x1,-0x10(%ebp)
  2048be:	8b 45 f0             	mov    -0x10(%ebp),%eax
  2048c1:	0f b6 00             	movzbl (%eax),%eax
  2048c4:	3c 7b                	cmp    $0x7b,%al
  2048c6:	75 d7                	jne    20489f <create_access_desc_str+0x9d>
  2048c8:	0f b6 55 f6          	movzbl -0xa(%ebp),%edx
  2048cc:	8b 45 08             	mov    0x8(%ebp),%eax
  2048cf:	01 d0                	add    %edx,%eax
  2048d1:	c6 00 7b             	movb   $0x7b,(%eax)
  2048d4:	0f b6 45 f6          	movzbl -0xa(%ebp),%eax
  2048d8:	83 c0 01             	add    $0x1,%eax
  2048db:	88 45 f6             	mov    %al,-0xa(%ebp)
  2048de:	83 45 f0 01          	addl   $0x1,-0x10(%ebp)
  2048e2:	c6 45 ef 00          	movb   $0x0,-0x11(%ebp)
  2048e6:	eb 6f                	jmp    204957 <create_access_desc_str+0x155>
  2048e8:	0f b6 45 ef          	movzbl -0x11(%ebp),%eax
  2048ec:	8d 14 85 00 00 00 00 	lea    0x0(,%eax,4),%edx
  2048f3:	8b 45 f8             	mov    -0x8(%ebp),%eax
  2048f6:	01 d0                	add    %edx,%eax
  2048f8:	8b 00                	mov    (%eax),%eax
  2048fa:	89 45 e4             	mov    %eax,-0x1c(%ebp)
  2048fd:	8b 45 e4             	mov    -0x1c(%ebp),%eax
  204900:	89 45 e8             	mov    %eax,-0x18(%ebp)
  204903:	0f b6 55 f6          	movzbl -0xa(%ebp),%edx
  204907:	8b 45 08             	mov    0x8(%ebp),%eax
  20490a:	01 d0                	add    %edx,%eax
  20490c:	c6 00 0a             	movb   $0xa,(%eax)
  20490f:	0f b6 45 f6          	movzbl -0xa(%ebp),%eax
  204913:	8d 50 01             	lea    0x1(%eax),%edx
  204916:	8b 45 08             	mov    0x8(%ebp),%eax
  204919:	01 d0                	add    %edx,%eax
  20491b:	c6 00 09             	movb   $0x9,(%eax)
  20491e:	80 45 f6 02          	addb   $0x2,-0xa(%ebp)
  204922:	eb 1f                	jmp    204943 <create_access_desc_str+0x141>
  204924:	0f b6 55 f6          	movzbl -0xa(%ebp),%edx
  204928:	8b 45 08             	mov    0x8(%ebp),%eax
  20492b:	01 c2                	add    %eax,%edx
  20492d:	8b 45 e8             	mov    -0x18(%ebp),%eax
  204930:	0f b6 00             	movzbl (%eax),%eax
  204933:	88 02                	mov    %al,(%edx)
  204935:	0f b6 45 f6          	movzbl -0xa(%ebp),%eax
  204939:	83 c0 01             	add    $0x1,%eax
  20493c:	88 45 f6             	mov    %al,-0xa(%ebp)
  20493f:	83 45 e8 01          	addl   $0x1,-0x18(%ebp)
  204943:	8b 45 e8             	mov    -0x18(%ebp),%eax
  204946:	0f b6 00             	movzbl (%eax),%eax
  204949:	84 c0                	test   %al,%al
  20494b:	75 d7                	jne    204924 <create_access_desc_str+0x122>
  20494d:	0f b6 45 ef          	movzbl -0x11(%ebp),%eax
  204951:	83 c0 01             	add    $0x1,%eax
  204954:	88 45 ef             	mov    %al,-0x11(%ebp)
  204957:	0f b6 45 ef          	movzbl -0x11(%ebp),%eax
  20495b:	3a 45 f7             	cmp    -0x9(%ebp),%al
  20495e:	72 88                	jb     2048e8 <create_access_desc_str+0xe6>
  204960:	0f b6 55 f6          	movzbl -0xa(%ebp),%edx
  204964:	8b 45 08             	mov    0x8(%ebp),%eax
  204967:	01 d0                	add    %edx,%eax
  204969:	c6 00 0a             	movb   $0xa,(%eax)
  20496c:	0f b6 45 f6          	movzbl -0xa(%ebp),%eax
  204970:	83 c0 01             	add    $0x1,%eax
  204973:	88 45 f6             	mov    %al,-0xa(%ebp)
  204976:	eb 1f                	jmp    204997 <create_access_desc_str+0x195>
  204978:	0f b6 55 f6          	movzbl -0xa(%ebp),%edx
  20497c:	8b 45 08             	mov    0x8(%ebp),%eax
  20497f:	01 c2                	add    %eax,%edx
  204981:	8b 45 f0             	mov    -0x10(%ebp),%eax
  204984:	0f b6 00             	movzbl (%eax),%eax
  204987:	88 02                	mov    %al,(%edx)
  204989:	0f b6 45 f6          	movzbl -0xa(%ebp),%eax
  20498d:	83 c0 01             	add    $0x1,%eax
  204990:	88 45 f6             	mov    %al,-0xa(%ebp)
  204993:	83 45 f0 01          	addl   $0x1,-0x10(%ebp)
  204997:	8b 45 f0             	mov    -0x10(%ebp),%eax
  20499a:	0f b6 00             	movzbl (%eax),%eax
  20499d:	84 c0                	test   %al,%al
  20499f:	75 d7                	jne    204978 <create_access_desc_str+0x176>
  2049a1:	0f b6 55 f6          	movzbl -0xa(%ebp),%edx
  2049a5:	8b 45 08             	mov    0x8(%ebp),%eax
  2049a8:	01 d0                	add    %edx,%eax
  2049aa:	c6 00 0a             	movb   $0xa,(%eax)
  2049ad:	0f b6 45 f6          	movzbl -0xa(%ebp),%eax
  2049b1:	8d 50 01             	lea    0x1(%eax),%edx
  2049b4:	8b 45 08             	mov    0x8(%ebp),%eax
  2049b7:	01 d0                	add    %edx,%eax
  2049b9:	c6 00 00             	movb   $0x0,(%eax)
  2049bc:	90                   	nop
  2049bd:	c9                   	leave
  2049be:	c3                   	ret

002049bf <interpret_access>:
  2049bf:	55                   	push   %ebp
  2049c0:	89 e5                	mov    %esp,%ebp
  2049c2:	81 ec 14 01 00 00    	sub    $0x114,%esp
  2049c8:	8b 45 08             	mov    0x8(%ebp),%eax
  2049cb:	88 85 ec fe ff ff    	mov    %al,-0x114(%ebp)
  2049d1:	0f b6 85 ec fe ff ff 	movzbl -0x114(%ebp),%eax
  2049d8:	c0 e8 07             	shr    $0x7,%al
  2049db:	83 e0 01             	and    $0x1,%eax
  2049de:	88 45 ff             	mov    %al,-0x1(%ebp)
  2049e1:	0f b6 85 ec fe ff ff 	movzbl -0x114(%ebp),%eax
  2049e8:	c0 e8 05             	shr    $0x5,%al
  2049eb:	83 e0 03             	and    $0x3,%eax
  2049ee:	88 45 fe             	mov    %al,-0x2(%ebp)
  2049f1:	0f b6 85 ec fe ff ff 	movzbl -0x114(%ebp),%eax
  2049f8:	c0 e8 04             	shr    $0x4,%al
  2049fb:	83 e0 01             	and    $0x1,%eax
  2049fe:	88 45 fd             	mov    %al,-0x3(%ebp)
  204a01:	0f b6 85 ec fe ff ff 	movzbl -0x114(%ebp),%eax
  204a08:	c0 e8 03             	shr    $0x3,%al
  204a0b:	83 e0 01             	and    $0x1,%eax
  204a0e:	88 45 fc             	mov    %al,-0x4(%ebp)
  204a11:	0f b6 85 ec fe ff ff 	movzbl -0x114(%ebp),%eax
  204a18:	c0 e8 02             	shr    $0x2,%al
  204a1b:	83 e0 01             	and    $0x1,%eax
  204a1e:	88 45 fb             	mov    %al,-0x5(%ebp)
  204a21:	0f b6 85 ec fe ff ff 	movzbl -0x114(%ebp),%eax
  204a28:	d0 e8                	shr    $1,%al
  204a2a:	83 e0 01             	and    $0x1,%eax
  204a2d:	88 45 fa             	mov    %al,-0x6(%ebp)
  204a30:	0f b6 85 ec fe ff ff 	movzbl -0x114(%ebp),%eax
  204a37:	83 e0 01             	and    $0x1,%eax
  204a3a:	88 45 f9             	mov    %al,-0x7(%ebp)
  204a3d:	c7 45 cc 41 63 63 65 	movl   $0x65636341,-0x34(%ebp)
  204a44:	c7 45 d0 73 73 20 3d 	movl   $0x3d207373,-0x30(%ebp)
  204a4b:	c7 45 d4 20 7b 7d 00 	movl   $0x7d7b20,-0x2c(%ebp)
  204a52:	8d 45 cc             	lea    -0x34(%ebp),%eax
  204a55:	89 45 d8             	mov    %eax,-0x28(%ebp)
  204a58:	80 7d fc 00          	cmpb   $0x0,-0x4(%ebp)
  204a5c:	0f 84 f0 01 00 00    	je     204c52 <interpret_access+0x293>
  204a62:	c7 45 c0 70 72 65 73 	movl   $0x73657270,-0x40(%ebp)
  204a69:	c7 45 c4 65 6e 74 20 	movl   $0x20746e65,-0x3c(%ebp)
  204a70:	c7 45 c8 3d 20 25 00 	movl   $0x25203d,-0x38(%ebp)
  204a77:	0f b6 45 ff          	movzbl -0x1(%ebp),%eax
  204a7b:	50                   	push   %eax
  204a7c:	8d 45 c0             	lea    -0x40(%ebp),%eax
  204a7f:	50                   	push   %eax
  204a80:	e8 5f fc ff ff       	call   2046e4 <modify_string>
  204a85:	83 c4 08             	add    $0x8,%esp
  204a88:	8d 45 c0             	lea    -0x40(%ebp),%eax
  204a8b:	89 45 dc             	mov    %eax,-0x24(%ebp)
  204a8e:	c7 45 b7 64 70 6c 20 	movl   $0x206c7064,-0x49(%ebp)
  204a95:	c7 45 bb 3d 20 25 25 	movl   $0x2525203d,-0x45(%ebp)
  204a9c:	c6 45 bf 00          	movb   $0x0,-0x41(%ebp)
  204aa0:	0f b6 45 fe          	movzbl -0x2(%ebp),%eax
  204aa4:	50                   	push   %eax
  204aa5:	8d 45 b7             	lea    -0x49(%ebp),%eax
  204aa8:	50                   	push   %eax
  204aa9:	e8 36 fc ff ff       	call   2046e4 <modify_string>
  204aae:	83 c4 08             	add    $0x8,%esp
  204ab1:	8d 45 b7             	lea    -0x49(%ebp),%eax
  204ab4:	89 45 e0             	mov    %eax,-0x20(%ebp)
  204ab7:	c7 45 a8 4e 6f 74 20 	movl   $0x20746f4e,-0x58(%ebp)
  204abe:	c7 45 ac 53 79 73 74 	movl   $0x74737953,-0x54(%ebp)
  204ac5:	c7 45 b0 65 6d 20 3d 	movl   $0x3d206d65,-0x50(%ebp)
  204acc:	c7 45 b3 3d 20 25 00 	movl   $0x25203d,-0x4d(%ebp)
  204ad3:	0f b6 45 fd          	movzbl -0x3(%ebp),%eax
  204ad7:	50                   	push   %eax
  204ad8:	8d 45 a8             	lea    -0x58(%ebp),%eax
  204adb:	50                   	push   %eax
  204adc:	e8 03 fc ff ff       	call   2046e4 <modify_string>
  204ae1:	83 c4 08             	add    $0x8,%esp
  204ae4:	8d 45 a8             	lea    -0x58(%ebp),%eax
  204ae7:	89 45 e4             	mov    %eax,-0x1c(%ebp)
  204aea:	c7 45 a3 43 6f 64 65 	movl   $0x65646f43,-0x5d(%ebp)
  204af1:	c6 45 a7 00          	movb   $0x0,-0x59(%ebp)
  204af5:	8d 45 a3             	lea    -0x5d(%ebp),%eax
  204af8:	89 45 e8             	mov    %eax,-0x18(%ebp)
  204afb:	c7 45 90 4e 6f 6e 20 	movl   $0x206e6f4e,-0x70(%ebp)
  204b02:	c7 45 94 43 6f 6e 66 	movl   $0x666e6f43,-0x6c(%ebp)
  204b09:	c7 45 98 6f 72 6d 69 	movl   $0x696d726f,-0x68(%ebp)
  204b10:	c7 45 9c 6e 67 20 3d 	movl   $0x3d20676e,-0x64(%ebp)
  204b17:	c7 45 9f 3d 20 25 00 	movl   $0x25203d,-0x61(%ebp)
  204b1e:	0f b6 45 fb          	movzbl -0x5(%ebp),%eax
  204b22:	50                   	push   %eax
  204b23:	8d 45 90             	lea    -0x70(%ebp),%eax
  204b26:	50                   	push   %eax
  204b27:	e8 b8 fb ff ff       	call   2046e4 <modify_string>
  204b2c:	83 c4 08             	add    $0x8,%esp
  204b2f:	8d 45 90             	lea    -0x70(%ebp),%eax
  204b32:	89 45 ec             	mov    %eax,-0x14(%ebp)
  204b35:	c7 85 7c ff ff ff 52 	movl   $0x64616552,-0x84(%ebp)
  204b3c:	65 61 64 
  204b3f:	c7 45 80 20 50 65 72 	movl   $0x72655020,-0x80(%ebp)
  204b46:	c7 45 84 6d 69 73 73 	movl   $0x7373696d,-0x7c(%ebp)
  204b4d:	c7 45 88 69 6f 6e 20 	movl   $0x206e6f69,-0x78(%ebp)
  204b54:	c7 45 8c 3d 20 25 00 	movl   $0x25203d,-0x74(%ebp)
  204b5b:	0f b6 45 fa          	movzbl -0x6(%ebp),%eax
  204b5f:	50                   	push   %eax
  204b60:	8d 85 7c ff ff ff    	lea    -0x84(%ebp),%eax
  204b66:	50                   	push   %eax
  204b67:	e8 78 fb ff ff       	call   2046e4 <modify_string>
  204b6c:	83 c4 08             	add    $0x8,%esp
  204b6f:	8d 85 7c ff ff ff    	lea    -0x84(%ebp),%eax
  204b75:	89 45 f0             	mov    %eax,-0x10(%ebp)
  204b78:	c7 85 6f ff ff ff 61 	movl   $0x65636361,-0x91(%ebp)
  204b7f:	63 63 65 
  204b82:	c7 85 73 ff ff ff 73 	movl   $0x64657373,-0x8d(%ebp)
  204b89:	73 65 64 
  204b8c:	c7 85 77 ff ff ff 20 	movl   $0x25203d20,-0x89(%ebp)
  204b93:	3d 20 25 
  204b96:	c6 85 7b ff ff ff 00 	movb   $0x0,-0x85(%ebp)
  204b9d:	0f b6 45 f9          	movzbl -0x7(%ebp),%eax
  204ba1:	50                   	push   %eax
  204ba2:	8d 85 6f ff ff ff    	lea    -0x91(%ebp),%eax
  204ba8:	50                   	push   %eax
  204ba9:	e8 36 fb ff ff       	call   2046e4 <modify_string>
  204bae:	83 c4 08             	add    $0x8,%esp
  204bb1:	8d 85 6f ff ff ff    	lea    -0x91(%ebp),%eax
  204bb7:	89 45 f4             	mov    %eax,-0xc(%ebp)
  204bba:	c7 85 f0 fe ff ff 00 	movl   $0x0,-0x110(%ebp)
  204bc1:	00 00 00 
  204bc4:	8b 45 d8             	mov    -0x28(%ebp),%eax
  204bc7:	89 85 f4 fe ff ff    	mov    %eax,-0x10c(%ebp)
  204bcd:	8b 45 dc             	mov    -0x24(%ebp),%eax
  204bd0:	89 85 f8 fe ff ff    	mov    %eax,-0x108(%ebp)
  204bd6:	8b 45 e0             	mov    -0x20(%ebp),%eax
  204bd9:	89 85 fc fe ff ff    	mov    %eax,-0x104(%ebp)
  204bdf:	8b 45 e4             	mov    -0x1c(%ebp),%eax
  204be2:	89 85 00 ff ff ff    	mov    %eax,-0x100(%ebp)
  204be8:	8b 45 e8             	mov    -0x18(%ebp),%eax
  204beb:	89 85 04 ff ff ff    	mov    %eax,-0xfc(%ebp)
  204bf1:	8b 45 ec             	mov    -0x14(%ebp),%eax
  204bf4:	89 85 08 ff ff ff    	mov    %eax,-0xf8(%ebp)
  204bfa:	8b 45 f0             	mov    -0x10(%ebp),%eax
  204bfd:	89 85 0c ff ff ff    	mov    %eax,-0xf4(%ebp)
  204c03:	8b 45 f4             	mov    -0xc(%ebp),%eax
  204c06:	89 85 10 ff ff ff    	mov    %eax,-0xf0(%ebp)
  204c0c:	ff b5 10 ff ff ff    	push   -0xf0(%ebp)
  204c12:	ff b5 0c ff ff ff    	push   -0xf4(%ebp)
  204c18:	ff b5 08 ff ff ff    	push   -0xf8(%ebp)
  204c1e:	ff b5 04 ff ff ff    	push   -0xfc(%ebp)
  204c24:	ff b5 00 ff ff ff    	push   -0x100(%ebp)
  204c2a:	ff b5 fc fe ff ff    	push   -0x104(%ebp)
  204c30:	ff b5 f8 fe ff ff    	push   -0x108(%ebp)
  204c36:	ff b5 f4 fe ff ff    	push   -0x10c(%ebp)
  204c3c:	ff b5 f0 fe ff ff    	push   -0x110(%ebp)
  204c42:	ff 75 0c             	push   0xc(%ebp)
  204c45:	e8 b8 fb ff ff       	call   204802 <create_access_desc_str>
  204c4a:	83 c4 28             	add    $0x28,%esp
  204c4d:	e9 42 02 00 00       	jmp    204e94 <interpret_access+0x4d5>
  204c52:	c7 85 63 ff ff ff 70 	movl   $0x73657270,-0x9d(%ebp)
  204c59:	72 65 73 
  204c5c:	c7 85 67 ff ff ff 65 	movl   $0x20746e65,-0x99(%ebp)
  204c63:	6e 74 20 
  204c66:	c7 85 6b ff ff ff 3d 	movl   $0x25203d,-0x95(%ebp)
  204c6d:	20 25 00 
  204c70:	0f b6 45 ff          	movzbl -0x1(%ebp),%eax
  204c74:	50                   	push   %eax
  204c75:	8d 85 63 ff ff ff    	lea    -0x9d(%ebp),%eax
  204c7b:	50                   	push   %eax
  204c7c:	e8 63 fa ff ff       	call   2046e4 <modify_string>
  204c81:	83 c4 08             	add    $0x8,%esp
  204c84:	8d 85 63 ff ff ff    	lea    -0x9d(%ebp),%eax
  204c8a:	89 45 dc             	mov    %eax,-0x24(%ebp)
  204c8d:	c7 85 5a ff ff ff 64 	movl   $0x206c7064,-0xa6(%ebp)
  204c94:	70 6c 20 
  204c97:	c7 85 5e ff ff ff 3d 	movl   $0x2525203d,-0xa2(%ebp)
  204c9e:	20 25 25 
  204ca1:	c6 85 62 ff ff ff 00 	movb   $0x0,-0x9e(%ebp)
  204ca8:	0f b6 45 fe          	movzbl -0x2(%ebp),%eax
  204cac:	50                   	push   %eax
  204cad:	8d 85 5a ff ff ff    	lea    -0xa6(%ebp),%eax
  204cb3:	50                   	push   %eax
  204cb4:	e8 2b fa ff ff       	call   2046e4 <modify_string>
  204cb9:	83 c4 08             	add    $0x8,%esp
  204cbc:	8d 85 5a ff ff ff    	lea    -0xa6(%ebp),%eax
  204cc2:	89 45 e0             	mov    %eax,-0x20(%ebp)
  204cc5:	c7 85 4b ff ff ff 4e 	movl   $0x20746f4e,-0xb5(%ebp)
  204ccc:	6f 74 20 
  204ccf:	c7 85 4f ff ff ff 53 	movl   $0x74737953,-0xb1(%ebp)
  204cd6:	79 73 74 
  204cd9:	c7 85 53 ff ff ff 65 	movl   $0x3d206d65,-0xad(%ebp)
  204ce0:	6d 20 3d 
  204ce3:	c7 85 56 ff ff ff 3d 	movl   $0x25203d,-0xaa(%ebp)
  204cea:	20 25 00 
  204ced:	0f b6 45 fd          	movzbl -0x3(%ebp),%eax
  204cf1:	50                   	push   %eax
  204cf2:	8d 85 4b ff ff ff    	lea    -0xb5(%ebp),%eax
  204cf8:	50                   	push   %eax
  204cf9:	e8 e6 f9 ff ff       	call   2046e4 <modify_string>
  204cfe:	83 c4 08             	add    $0x8,%esp
  204d01:	8d 85 4b ff ff ff    	lea    -0xb5(%ebp),%eax
  204d07:	89 45 e4             	mov    %eax,-0x1c(%ebp)
  204d0a:	c7 85 46 ff ff ff 44 	movl   $0x61746144,-0xba(%ebp)
  204d11:	61 74 61 
  204d14:	c6 85 4a ff ff ff 00 	movb   $0x0,-0xb6(%ebp)
  204d1b:	8d 85 46 ff ff ff    	lea    -0xba(%ebp),%eax
  204d21:	89 45 e8             	mov    %eax,-0x18(%ebp)
  204d24:	c7 85 36 ff ff ff 45 	movl   $0x61707845,-0xca(%ebp)
  204d2b:	78 70 61 
  204d2e:	c7 85 3a ff ff ff 6e 	movl   $0x4420646e,-0xc6(%ebp)
  204d35:	64 20 44 
  204d38:	c7 85 3e ff ff ff 6f 	movl   $0x206e776f,-0xc2(%ebp)
  204d3f:	77 6e 20 
  204d42:	c7 85 42 ff ff ff 3d 	movl   $0x25203d,-0xbe(%ebp)
  204d49:	20 25 00 
  204d4c:	0f b6 45 fb          	movzbl -0x5(%ebp),%eax
  204d50:	50                   	push   %eax
  204d51:	8d 85 36 ff ff ff    	lea    -0xca(%ebp),%eax
  204d57:	50                   	push   %eax
  204d58:	e8 87 f9 ff ff       	call   2046e4 <modify_string>
  204d5d:	83 c4 08             	add    $0x8,%esp
  204d60:	8d 85 36 ff ff ff    	lea    -0xca(%ebp),%eax
  204d66:	89 45 ec             	mov    %eax,-0x14(%ebp)
  204d69:	c7 85 21 ff ff ff 57 	movl   $0x74697257,-0xdf(%ebp)
  204d70:	72 69 74 
  204d73:	c7 85 25 ff ff ff 65 	movl   $0x65502065,-0xdb(%ebp)
  204d7a:	20 50 65 
  204d7d:	c7 85 29 ff ff ff 72 	movl   $0x73696d72,-0xd7(%ebp)
  204d84:	6d 69 73 
  204d87:	c7 85 2d ff ff ff 73 	movl   $0x6e6f6973,-0xd3(%ebp)
  204d8e:	69 6f 6e 
  204d91:	c7 85 31 ff ff ff 20 	movl   $0x25203d20,-0xcf(%ebp)
  204d98:	3d 20 25 
  204d9b:	c6 85 35 ff ff ff 00 	movb   $0x0,-0xcb(%ebp)
  204da2:	0f b6 45 fa          	movzbl -0x6(%ebp),%eax
  204da6:	50                   	push   %eax
  204da7:	8d 85 21 ff ff ff    	lea    -0xdf(%ebp),%eax
  204dad:	50                   	push   %eax
  204dae:	e8 31 f9 ff ff       	call   2046e4 <modify_string>
  204db3:	83 c4 08             	add    $0x8,%esp
  204db6:	8d 85 21 ff ff ff    	lea    -0xdf(%ebp),%eax
  204dbc:	89 45 f0             	mov    %eax,-0x10(%ebp)
  204dbf:	c7 85 14 ff ff ff 61 	movl   $0x65636361,-0xec(%ebp)
  204dc6:	63 63 65 
  204dc9:	c7 85 18 ff ff ff 73 	movl   $0x64657373,-0xe8(%ebp)
  204dd0:	73 65 64 
  204dd3:	c7 85 1c ff ff ff 20 	movl   $0x25203d20,-0xe4(%ebp)
  204dda:	3d 20 25 
  204ddd:	c6 85 20 ff ff ff 00 	movb   $0x0,-0xe0(%ebp)
  204de4:	0f b6 45 f9          	movzbl -0x7(%ebp),%eax
  204de8:	50                   	push   %eax
  204de9:	8d 85 14 ff ff ff    	lea    -0xec(%ebp),%eax
  204def:	50                   	push   %eax
  204df0:	e8 ef f8 ff ff       	call   2046e4 <modify_string>
  204df5:	83 c4 08             	add    $0x8,%esp
  204df8:	8d 85 14 ff ff ff    	lea    -0xec(%ebp),%eax
  204dfe:	89 45 f4             	mov    %eax,-0xc(%ebp)
  204e01:	c7 85 f0 fe ff ff 00 	movl   $0x0,-0x110(%ebp)
  204e08:	00 00 00 
  204e0b:	8b 45 d8             	mov    -0x28(%ebp),%eax
  204e0e:	89 85 f4 fe ff ff    	mov    %eax,-0x10c(%ebp)
  204e14:	8b 45 dc             	mov    -0x24(%ebp),%eax
  204e17:	89 85 f8 fe ff ff    	mov    %eax,-0x108(%ebp)
  204e1d:	8b 45 e0             	mov    -0x20(%ebp),%eax
  204e20:	89 85 fc fe ff ff    	mov    %eax,-0x104(%ebp)
  204e26:	8b 45 e4             	mov    -0x1c(%ebp),%eax
  204e29:	89 85 00 ff ff ff    	mov    %eax,-0x100(%ebp)
  204e2f:	8b 45 e8             	mov    -0x18(%ebp),%eax
  204e32:	89 85 04 ff ff ff    	mov    %eax,-0xfc(%ebp)
  204e38:	8b 45 ec             	mov    -0x14(%ebp),%eax
  204e3b:	89 85 08 ff ff ff    	mov    %eax,-0xf8(%ebp)
  204e41:	8b 45 f0             	mov    -0x10(%ebp),%eax
  204e44:	89 85 0c ff ff ff    	mov    %eax,-0xf4(%ebp)
  204e4a:	8b 45 f4             	mov    -0xc(%ebp),%eax
  204e4d:	89 85 10 ff ff ff    	mov    %eax,-0xf0(%ebp)
  204e53:	ff b5 10 ff ff ff    	push   -0xf0(%ebp)
  204e59:	ff b5 0c ff ff ff    	push   -0xf4(%ebp)
  204e5f:	ff b5 08 ff ff ff    	push   -0xf8(%ebp)
  204e65:	ff b5 04 ff ff ff    	push   -0xfc(%ebp)
  204e6b:	ff b5 00 ff ff ff    	push   -0x100(%ebp)
  204e71:	ff b5 fc fe ff ff    	push   -0x104(%ebp)
  204e77:	ff b5 f8 fe ff ff    	push   -0x108(%ebp)
  204e7d:	ff b5 f4 fe ff ff    	push   -0x10c(%ebp)
  204e83:	ff b5 f0 fe ff ff    	push   -0x110(%ebp)
  204e89:	ff 75 0c             	push   0xc(%ebp)
  204e8c:	e8 71 f9 ff ff       	call   204802 <create_access_desc_str>
  204e91:	83 c4 28             	add    $0x28,%esp
  204e94:	90                   	nop
  204e95:	c9                   	leave
  204e96:	c3                   	ret

00204e97 <interpret_flags>:
  204e97:	55                   	push   %ebp
  204e98:	89 e5                	mov    %esp,%ebp
  204e9a:	81 ec a4 00 00 00    	sub    $0xa4,%esp
  204ea0:	8b 45 08             	mov    0x8(%ebp),%eax
  204ea3:	88 85 5c ff ff ff    	mov    %al,-0xa4(%ebp)
  204ea9:	0f b6 85 5c ff ff ff 	movzbl -0xa4(%ebp),%eax
  204eb0:	c0 e8 07             	shr    $0x7,%al
  204eb3:	83 e0 01             	and    $0x1,%eax
  204eb6:	88 45 fe             	mov    %al,-0x2(%ebp)
  204eb9:	0f b6 85 5c ff ff ff 	movzbl -0xa4(%ebp),%eax
  204ec0:	c0 e8 06             	shr    $0x6,%al
  204ec3:	83 e0 01             	and    $0x1,%eax
  204ec6:	88 45 fd             	mov    %al,-0x3(%ebp)
  204ec9:	0f b6 85 5c ff ff ff 	movzbl -0xa4(%ebp),%eax
  204ed0:	c0 e8 05             	shr    $0x5,%al
  204ed3:	83 e0 01             	and    $0x1,%eax
  204ed6:	88 45 fc             	mov    %al,-0x4(%ebp)
  204ed9:	0f b6 85 5c ff ff ff 	movzbl -0xa4(%ebp),%eax
  204ee0:	c0 e8 04             	shr    $0x4,%al
  204ee3:	83 e0 01             	and    $0x1,%eax
  204ee6:	88 45 fb             	mov    %al,-0x5(%ebp)
  204ee9:	80 7d fc 00          	cmpb   $0x0,-0x4(%ebp)
  204eed:	74 06                	je     204ef5 <interpret_flags+0x5e>
  204eef:	c6 45 ff 40          	movb   $0x40,-0x1(%ebp)
  204ef3:	eb 10                	jmp    204f05 <interpret_flags+0x6e>
  204ef5:	80 7d fd 00          	cmpb   $0x0,-0x3(%ebp)
  204ef9:	74 06                	je     204f01 <interpret_flags+0x6a>
  204efb:	c6 45 ff 20          	movb   $0x20,-0x1(%ebp)
  204eff:	eb 04                	jmp    204f05 <interpret_flags+0x6e>
  204f01:	c6 45 ff 10          	movb   $0x10,-0x1(%ebp)
  204f05:	c7 45 d4 46 6c 61 67 	movl   $0x67616c46,-0x2c(%ebp)
  204f0c:	c7 45 d8 73 20 3d 20 	movl   $0x203d2073,-0x28(%ebp)
  204f13:	c7 45 dc 7b 7d 0a 00 	movl   $0xa7d7b,-0x24(%ebp)
  204f1a:	8d 45 d4             	lea    -0x2c(%ebp),%eax
  204f1d:	89 45 e0             	mov    %eax,-0x20(%ebp)
  204f20:	c7 45 c4 67 72 61 6e 	movl   $0x6e617267,-0x3c(%ebp)
  204f27:	c7 45 c8 75 6c 61 72 	movl   $0x72616c75,-0x38(%ebp)
  204f2e:	c7 45 cc 69 74 79 20 	movl   $0x20797469,-0x34(%ebp)
  204f35:	c7 45 d0 3d 20 25 00 	movl   $0x25203d,-0x30(%ebp)
  204f3c:	0f b6 45 fe          	movzbl -0x2(%ebp),%eax
  204f40:	50                   	push   %eax
  204f41:	8d 45 c4             	lea    -0x3c(%ebp),%eax
  204f44:	50                   	push   %eax
  204f45:	e8 9a f7 ff ff       	call   2046e4 <modify_string>
  204f4a:	83 c4 08             	add    $0x8,%esp
  204f4d:	8d 45 c4             	lea    -0x3c(%ebp),%eax
  204f50:	89 45 e4             	mov    %eax,-0x1c(%ebp)
  204f53:	c7 45 b7 6f 70 73 69 	movl   $0x6973706f,-0x49(%ebp)
  204f5a:	c7 45 bb 7a 65 33 32 	movl   $0x3233657a,-0x45(%ebp)
  204f61:	c7 45 bf 20 3d 20 25 	movl   $0x25203d20,-0x41(%ebp)
  204f68:	c6 45 c3 00          	movb   $0x0,-0x3d(%ebp)
  204f6c:	0f b6 45 fd          	movzbl -0x3(%ebp),%eax
  204f70:	50                   	push   %eax
  204f71:	8d 45 b7             	lea    -0x49(%ebp),%eax
  204f74:	50                   	push   %eax
  204f75:	e8 6a f7 ff ff       	call   2046e4 <modify_string>
  204f7a:	83 c4 08             	add    $0x8,%esp
  204f7d:	8d 45 b7             	lea    -0x49(%ebp),%eax
  204f80:	89 45 e8             	mov    %eax,-0x18(%ebp)
  204f83:	c7 45 a9 6c 6f 6e 67 	movl   $0x676e6f6c,-0x57(%ebp)
  204f8a:	c7 45 ad 5f 6d 6f 64 	movl   $0x646f6d5f,-0x53(%ebp)
  204f91:	c7 45 b1 65 20 3d 20 	movl   $0x203d2065,-0x4f(%ebp)
  204f98:	66 c7 45 b5 25 00    	movw   $0x25,-0x4b(%ebp)
  204f9e:	0f b6 45 fc          	movzbl -0x4(%ebp),%eax
  204fa2:	50                   	push   %eax
  204fa3:	8d 45 a9             	lea    -0x57(%ebp),%eax
  204fa6:	50                   	push   %eax
  204fa7:	e8 38 f7 ff ff       	call   2046e4 <modify_string>
  204fac:	83 c4 08             	add    $0x8,%esp
  204faf:	8d 45 a9             	lea    -0x57(%ebp),%eax
  204fb2:	89 45 ec             	mov    %eax,-0x14(%ebp)
  204fb5:	c7 45 9f 61 76 61 69 	movl   $0x69617661,-0x61(%ebp)
  204fbc:	c7 45 a3 6c 20 3d 20 	movl   $0x203d206c,-0x5d(%ebp)
  204fc3:	66 c7 45 a7 25 00    	movw   $0x25,-0x59(%ebp)
  204fc9:	0f b6 45 fb          	movzbl -0x5(%ebp),%eax
  204fcd:	50                   	push   %eax
  204fce:	8d 45 9f             	lea    -0x61(%ebp),%eax
  204fd1:	50                   	push   %eax
  204fd2:	e8 0d f7 ff ff       	call   2046e4 <modify_string>
  204fd7:	83 c4 08             	add    $0x8,%esp
  204fda:	8d 45 9f             	lea    -0x61(%ebp),%eax
  204fdd:	89 45 f0             	mov    %eax,-0x10(%ebp)
  204fe0:	c7 45 8b 5f 5f 5f 72 	movl   $0x725f5f5f,-0x75(%ebp)
  204fe7:	c7 45 8f 65 61 6c 5f 	movl   $0x5f6c6165,-0x71(%ebp)
  204fee:	c7 45 93 6f 70 73 69 	movl   $0x6973706f,-0x6d(%ebp)
  204ff5:	c7 45 97 7a 65 20 3d 	movl   $0x3d20657a,-0x69(%ebp)
  204ffc:	c7 45 9b 20 25 25 00 	movl   $0x252520,-0x65(%ebp)
  205003:	0f b6 45 ff          	movzbl -0x1(%ebp),%eax
  205007:	50                   	push   %eax
  205008:	8d 45 8b             	lea    -0x75(%ebp),%eax
  20500b:	50                   	push   %eax
  20500c:	e8 4e f7 ff ff       	call   20475f <modify_string_opsize>
  205011:	83 c4 08             	add    $0x8,%esp
  205014:	8d 45 8b             	lea    -0x75(%ebp),%eax
  205017:	89 45 f4             	mov    %eax,-0xc(%ebp)
  20501a:	c7 85 64 ff ff ff 01 	movl   $0x1,-0x9c(%ebp)
  205021:	00 00 00 
  205024:	8b 45 e0             	mov    -0x20(%ebp),%eax
  205027:	89 85 68 ff ff ff    	mov    %eax,-0x98(%ebp)
  20502d:	8b 45 e4             	mov    -0x1c(%ebp),%eax
  205030:	89 85 6c ff ff ff    	mov    %eax,-0x94(%ebp)
  205036:	8b 45 e8             	mov    -0x18(%ebp),%eax
  205039:	89 85 70 ff ff ff    	mov    %eax,-0x90(%ebp)
  20503f:	8b 45 ec             	mov    -0x14(%ebp),%eax
  205042:	89 85 74 ff ff ff    	mov    %eax,-0x8c(%ebp)
  205048:	8b 45 f0             	mov    -0x10(%ebp),%eax
  20504b:	89 85 78 ff ff ff    	mov    %eax,-0x88(%ebp)
  205051:	8b 45 f4             	mov    -0xc(%ebp),%eax
  205054:	89 85 7c ff ff ff    	mov    %eax,-0x84(%ebp)
  20505a:	ff 75 84             	push   -0x7c(%ebp)
  20505d:	ff 75 80             	push   -0x80(%ebp)
  205060:	ff b5 7c ff ff ff    	push   -0x84(%ebp)
  205066:	ff b5 78 ff ff ff    	push   -0x88(%ebp)
  20506c:	ff b5 74 ff ff ff    	push   -0x8c(%ebp)
  205072:	ff b5 70 ff ff ff    	push   -0x90(%ebp)
  205078:	ff b5 6c ff ff ff    	push   -0x94(%ebp)
  20507e:	ff b5 68 ff ff ff    	push   -0x98(%ebp)
  205084:	ff b5 64 ff ff ff    	push   -0x9c(%ebp)
  20508a:	ff 75 0c             	push   0xc(%ebp)
  20508d:	e8 70 f7 ff ff       	call   204802 <create_access_desc_str>
  205092:	83 c4 28             	add    $0x28,%esp
  205095:	90                   	nop
  205096:	c9                   	leave
  205097:	c3                   	ret

00205098 <interpret_test>:
  205098:	55                   	push   %ebp
  205099:	89 e5                	mov    %esp,%ebp
  20509b:	81 ec 90 00 00 00    	sub    $0x90,%esp
  2050a1:	c6 45 ff 9b          	movb   $0x9b,-0x1(%ebp)
  2050a5:	0f b6 45 ff          	movzbl -0x1(%ebp),%eax
  2050a9:	8d 95 7e ff ff ff    	lea    -0x82(%ebp),%edx
  2050af:	52                   	push   %edx
  2050b0:	50                   	push   %eax
  2050b1:	e8 09 f9 ff ff       	call   2049bf <interpret_access>
  2050b6:	83 c4 08             	add    $0x8,%esp
  2050b9:	c6 45 ff 93          	movb   $0x93,-0x1(%ebp)
  2050bd:	0f b6 45 ff          	movzbl -0x1(%ebp),%eax
  2050c1:	8d 95 7e ff ff ff    	lea    -0x82(%ebp),%edx
  2050c7:	52                   	push   %edx
  2050c8:	50                   	push   %eax
  2050c9:	e8 f1 f8 ff ff       	call   2049bf <interpret_access>
  2050ce:	83 c4 08             	add    $0x8,%esp
  2050d1:	c6 45 fe 80          	movb   $0x80,-0x2(%ebp)
  2050d5:	0f b6 45 fe          	movzbl -0x2(%ebp),%eax
  2050d9:	8d 95 7e ff ff ff    	lea    -0x82(%ebp),%edx
  2050df:	52                   	push   %edx
  2050e0:	50                   	push   %eax
  2050e1:	e8 b1 fd ff ff       	call   204e97 <interpret_flags>
  2050e6:	83 c4 08             	add    $0x8,%esp
  2050e9:	90                   	nop
  2050ea:	c9                   	leave
  2050eb:	c3                   	ret

002050ec <get_gdt_root>:
  2050ec:	55                   	push   %ebp
  2050ed:	89 e5                	mov    %esp,%ebp
  2050ef:	83 ec 10             	sub    $0x10,%esp
  2050f2:	0f 01 45 f8          	sgdtl  -0x8(%ebp)
  2050f6:	8b 4d 08             	mov    0x8(%ebp),%ecx
  2050f9:	8b 45 f8             	mov    -0x8(%ebp),%eax
  2050fc:	8b 55 fc             	mov    -0x4(%ebp),%edx
  2050ff:	89 01                	mov    %eax,(%ecx)
  205101:	89 51 04             	mov    %edx,0x4(%ecx)
  205104:	8b 45 08             	mov    0x8(%ebp),%eax
  205107:	c9                   	leave
  205108:	c2 04 00             	ret    $0x4

0020510b <min>:
  20510b:	55                   	push   %ebp
  20510c:	89 e5                	mov    %esp,%ebp
  20510e:	8b 45 08             	mov    0x8(%ebp),%eax
  205111:	3b 45 0c             	cmp    0xc(%ebp),%eax
  205114:	73 05                	jae    20511b <min+0x10>
  205116:	8b 45 08             	mov    0x8(%ebp),%eax
  205119:	eb 03                	jmp    20511e <min+0x13>
  20511b:	8b 45 0c             	mov    0xc(%ebp),%eax
  20511e:	5d                   	pop    %ebp
  20511f:	c3                   	ret

00205120 <print_args16>:
  205120:	55                   	push   %ebp
  205121:	89 e5                	mov    %esp,%ebp
  205123:	83 ec 08             	sub    $0x8,%esp
  205126:	83 ec 0c             	sub    $0xc,%esp
  205129:	68 66 64 20 00       	push   $0x206466
  20512e:	e8 a4 c8 ff ff       	call   2019d7 <terminal_writestring>
  205133:	83 c4 10             	add    $0x10,%esp
  205136:	83 ec 0c             	sub    $0xc,%esp
  205139:	68 81 64 20 00       	push   $0x206481
  20513e:	e8 94 c8 ff ff       	call   2019d7 <terminal_writestring>
  205143:	83 c4 10             	add    $0x10,%esp
  205146:	8b 45 08             	mov    0x8(%ebp),%eax
  205149:	0f b7 00             	movzwl (%eax),%eax
  20514c:	0f b7 c0             	movzwl %ax,%eax
  20514f:	83 ec 04             	sub    $0x4,%esp
  205152:	6a 08                	push   $0x8
  205154:	68 8c 64 20 00       	push   $0x20648c
  205159:	50                   	push   %eax
  20515a:	e8 44 bf ff ff       	call   2010a3 <printBinarySize>
  20515f:	83 c4 10             	add    $0x10,%esp
  205162:	8b 45 08             	mov    0x8(%ebp),%eax
  205165:	8b 40 02             	mov    0x2(%eax),%eax
  205168:	83 ec 04             	sub    $0x4,%esp
  20516b:	6a 20                	push   $0x20
  20516d:	68 97 64 20 00       	push   $0x206497
  205172:	50                   	push   %eax
  205173:	e8 2b bf ff ff       	call   2010a3 <printBinarySize>
  205178:	83 c4 10             	add    $0x10,%esp
  20517b:	83 ec 0c             	sub    $0xc,%esp
  20517e:	68 ac 64 20 00       	push   $0x2064ac
  205183:	e8 4f c8 ff ff       	call   2019d7 <terminal_writestring>
  205188:	83 c4 10             	add    $0x10,%esp
  20518b:	8b 45 08             	mov    0x8(%ebp),%eax
  20518e:	8b 40 02             	mov    0x2(%eax),%eax
  205191:	85 c0                	test   %eax,%eax
  205193:	0f 84 8a 00 00 00    	je     205223 <print_args16+0x103>
  205199:	8b 45 08             	mov    0x8(%ebp),%eax
  20519c:	8b 40 02             	mov    0x2(%eax),%eax
  20519f:	83 c0 10             	add    $0x10,%eax
  2051a2:	8b 00                	mov    (%eax),%eax
  2051a4:	83 ec 04             	sub    $0x4,%esp
  2051a7:	6a 20                	push   $0x20
  2051a9:	68 b0 64 20 00       	push   $0x2064b0
  2051ae:	50                   	push   %eax
  2051af:	e8 ef be ff ff       	call   2010a3 <printBinarySize>
  2051b4:	83 c4 10             	add    $0x10,%esp
  2051b7:	8b 45 08             	mov    0x8(%ebp),%eax
  2051ba:	8b 40 02             	mov    0x2(%eax),%eax
  2051bd:	83 c0 10             	add    $0x10,%eax
  2051c0:	8b 40 04             	mov    0x4(%eax),%eax
  2051c3:	83 ec 04             	sub    $0x4,%esp
  2051c6:	6a 20                	push   $0x20
  2051c8:	68 d8 64 20 00       	push   $0x2064d8
  2051cd:	50                   	push   %eax
  2051ce:	e8 d0 be ff ff       	call   2010a3 <printBinarySize>
  2051d3:	83 c4 10             	add    $0x10,%esp
  2051d6:	8b 45 08             	mov    0x8(%ebp),%eax
  2051d9:	8b 40 02             	mov    0x2(%eax),%eax
  2051dc:	83 c0 18             	add    $0x18,%eax
  2051df:	8b 00                	mov    (%eax),%eax
  2051e1:	83 ec 04             	sub    $0x4,%esp
  2051e4:	6a 20                	push   $0x20
  2051e6:	68 04 65 20 00       	push   $0x206504
  2051eb:	50                   	push   %eax
  2051ec:	e8 b2 be ff ff       	call   2010a3 <printBinarySize>
  2051f1:	83 c4 10             	add    $0x10,%esp
  2051f4:	8b 45 08             	mov    0x8(%ebp),%eax
  2051f7:	8b 40 02             	mov    0x2(%eax),%eax
  2051fa:	83 c0 18             	add    $0x18,%eax
  2051fd:	8b 40 04             	mov    0x4(%eax),%eax
  205200:	83 ec 04             	sub    $0x4,%esp
  205203:	6a 20                	push   $0x20
  205205:	68 2c 65 20 00       	push   $0x20652c
  20520a:	50                   	push   %eax
  20520b:	e8 93 be ff ff       	call   2010a3 <printBinarySize>
  205210:	83 c4 10             	add    $0x10,%esp
  205213:	83 ec 0c             	sub    $0xc,%esp
  205216:	68 ac 64 20 00       	push   $0x2064ac
  20521b:	e8 b7 c7 ff ff       	call   2019d7 <terminal_writestring>
  205220:	83 c4 10             	add    $0x10,%esp
  205223:	8b 45 08             	mov    0x8(%ebp),%eax
  205226:	8b 40 08             	mov    0x8(%eax),%eax
  205229:	83 ec 08             	sub    $0x8,%esp
  20522c:	50                   	push   %eax
  20522d:	68 55 65 20 00       	push   $0x206555
  205232:	e8 ac cd ff ff       	call   201fe3 <terminal_write_hex>
  205237:	83 c4 10             	add    $0x10,%esp
  20523a:	83 ec 0c             	sub    $0xc,%esp
  20523d:	68 ac 64 20 00       	push   $0x2064ac
  205242:	e8 90 c7 ff ff       	call   2019d7 <terminal_writestring>
  205247:	83 c4 10             	add    $0x10,%esp
  20524a:	8b 45 08             	mov    0x8(%ebp),%eax
  20524d:	0f b7 40 10          	movzwl 0x10(%eax),%eax
  205251:	0f b7 c0             	movzwl %ax,%eax
  205254:	83 ec 08             	sub    $0x8,%esp
  205257:	50                   	push   %eax
  205258:	68 5b 65 20 00       	push   $0x20655b
  20525d:	e8 37 cd ff ff       	call   201f99 <terminal_write_uint>
  205262:	83 c4 10             	add    $0x10,%esp
  205265:	8b 45 08             	mov    0x8(%ebp),%eax
  205268:	0f b7 40 12          	movzwl 0x12(%eax),%eax
  20526c:	0f b7 c0             	movzwl %ax,%eax
  20526f:	83 ec 08             	sub    $0x8,%esp
  205272:	50                   	push   %eax
  205273:	68 62 65 20 00       	push   $0x206562
  205278:	e8 1c cd ff ff       	call   201f99 <terminal_write_uint>
  20527d:	83 c4 10             	add    $0x10,%esp
  205280:	83 ec 0c             	sub    $0xc,%esp
  205283:	68 ac 64 20 00       	push   $0x2064ac
  205288:	e8 4a c7 ff ff       	call   2019d7 <terminal_writestring>
  20528d:	83 c4 10             	add    $0x10,%esp
  205290:	8b 45 08             	mov    0x8(%ebp),%eax
  205293:	0f b7 40 14          	movzwl 0x14(%eax),%eax
  205297:	0f b7 c0             	movzwl %ax,%eax
  20529a:	83 ec 08             	sub    $0x8,%esp
  20529d:	50                   	push   %eax
  20529e:	68 6c 65 20 00       	push   $0x20656c
  2052a3:	e8 3b cd ff ff       	call   201fe3 <terminal_write_hex>
  2052a8:	83 c4 10             	add    $0x10,%esp
  2052ab:	8b 45 08             	mov    0x8(%ebp),%eax
  2052ae:	0f b7 40 16          	movzwl 0x16(%eax),%eax
  2052b2:	0f b7 c0             	movzwl %ax,%eax
  2052b5:	83 ec 08             	sub    $0x8,%esp
  2052b8:	50                   	push   %eax
  2052b9:	68 8c 65 20 00       	push   $0x20658c
  2052be:	e8 20 cd ff ff       	call   201fe3 <terminal_write_hex>
  2052c3:	83 c4 10             	add    $0x10,%esp
  2052c6:	83 ec 0c             	sub    $0xc,%esp
  2052c9:	68 ac 64 20 00       	push   $0x2064ac
  2052ce:	e8 04 c7 ff ff       	call   2019d7 <terminal_writestring>
  2052d3:	83 c4 10             	add    $0x10,%esp
  2052d6:	8b 45 08             	mov    0x8(%ebp),%eax
  2052d9:	0f b7 40 18          	movzwl 0x18(%eax),%eax
  2052dd:	0f b7 c0             	movzwl %ax,%eax
  2052e0:	83 ec 08             	sub    $0x8,%esp
  2052e3:	50                   	push   %eax
  2052e4:	68 ac 65 20 00       	push   $0x2065ac
  2052e9:	e8 ab cc ff ff       	call   201f99 <terminal_write_uint>
  2052ee:	83 c4 10             	add    $0x10,%esp
  2052f1:	83 ec 0c             	sub    $0xc,%esp
  2052f4:	68 ac 64 20 00       	push   $0x2064ac
  2052f9:	e8 d9 c6 ff ff       	call   2019d7 <terminal_writestring>
  2052fe:	83 c4 10             	add    $0x10,%esp
  205301:	83 ec 0c             	sub    $0xc,%esp
  205304:	68 b3 65 20 00       	push   $0x2065b3
  205309:	e8 c9 c6 ff ff       	call   2019d7 <terminal_writestring>
  20530e:	83 c4 10             	add    $0x10,%esp
  205311:	8b 45 08             	mov    0x8(%ebp),%eax
  205314:	0f b7 40 18          	movzwl 0x18(%eax),%eax
  205318:	66 85 c0             	test   %ax,%ax
  20531b:	75 12                	jne    20532f <print_args16+0x20f>
  20531d:	83 ec 0c             	sub    $0xc,%esp
  205320:	68 c8 65 20 00       	push   $0x2065c8
  205325:	e8 ad c6 ff ff       	call   2019d7 <terminal_writestring>
  20532a:	83 c4 10             	add    $0x10,%esp
  20532d:	eb 31                	jmp    205360 <print_args16+0x240>
  20532f:	8b 45 08             	mov    0x8(%ebp),%eax
  205332:	0f b7 40 18          	movzwl 0x18(%eax),%eax
  205336:	0f b7 c0             	movzwl %ax,%eax
  205339:	83 ec 08             	sub    $0x8,%esp
  20533c:	6a 0c                	push   $0xc
  20533e:	50                   	push   %eax
  20533f:	e8 c7 fd ff ff       	call   20510b <min>
  205344:	83 c4 10             	add    $0x10,%esp
  205347:	8b 55 08             	mov    0x8(%ebp),%edx
  20534a:	83 c2 1a             	add    $0x1a,%edx
  20534d:	83 ec 04             	sub    $0x4,%esp
  205350:	50                   	push   %eax
  205351:	68 cf 65 20 00       	push   $0x2065cf
  205356:	52                   	push   %edx
  205357:	e8 65 c8 ff ff       	call   201bc1 <terminal_write_uint16_array_newlines>
  20535c:	83 c4 10             	add    $0x10,%esp
  20535f:	90                   	nop
  205360:	c9                   	leave
  205361:	c3                   	ret

00205362 <print_args16_more>:
  205362:	55                   	push   %ebp
  205363:	89 e5                	mov    %esp,%ebp
  205365:	83 ec 38             	sub    $0x38,%esp
  205368:	83 ec 0c             	sub    $0xc,%esp
  20536b:	68 20 b0 00 00       	push   $0xb020
  205370:	e8 ab fd ff ff       	call   205120 <print_args16>
  205375:	83 c4 10             	add    $0x10,%esp
  205378:	83 ec 04             	sub    $0x4,%esp
  20537b:	6a 30                	push   $0x30
  20537d:	68 20 b0 00 00       	push   $0xb020
  205382:	8d 45 c8             	lea    -0x38(%ebp),%eax
  205385:	50                   	push   %eax
  205386:	e8 9f b4 ff ff       	call   20082a <memcpy>
  20538b:	83 c4 10             	add    $0x10,%esp
  20538e:	83 ec 0c             	sub    $0xc,%esp
  205391:	68 d7 65 20 00       	push   $0x2065d7
  205396:	e8 3c c6 ff ff       	call   2019d7 <terminal_writestring>
  20539b:	83 c4 10             	add    $0x10,%esp
  20539e:	83 ec 04             	sub    $0x4,%esp
  2053a1:	6a 18                	push   $0x18
  2053a3:	68 eb 65 20 00       	push   $0x2065eb
  2053a8:	8d 45 c8             	lea    -0x38(%ebp),%eax
  2053ab:	50                   	push   %eax
  2053ac:	e8 10 c8 ff ff       	call   201bc1 <terminal_write_uint16_array_newlines>
  2053b1:	83 c4 10             	add    $0x10,%esp
  2053b4:	b8 00 00 00 00       	mov    $0x0,%eax
  2053b9:	c9                   	leave
  2053ba:	c3                   	ret

002053bb <get_realmode_function_address>:
  2053bb:	55                   	push   %ebp
  2053bc:	89 e5                	mov    %esp,%ebp
  2053be:	83 ec 10             	sub    $0x10,%esp
  2053c1:	8b 45 0c             	mov    0xc(%ebp),%eax
  2053c4:	89 45 fc             	mov    %eax,-0x4(%ebp)
  2053c7:	81 7d fc ff ff 0f 00 	cmpl   $0xfffff,-0x4(%ebp)
  2053ce:	76 13                	jbe    2053e3 <get_realmode_function_address+0x28>
  2053d0:	8b 45 08             	mov    0x8(%ebp),%eax
  2053d3:	66 c7 00 ff ff       	movw   $0xffff,(%eax)
  2053d8:	8b 45 08             	mov    0x8(%ebp),%eax
  2053db:	66 c7 40 02 ff ff    	movw   $0xffff,0x2(%eax)
  2053e1:	eb 31                	jmp    205414 <get_realmode_function_address+0x59>
  2053e3:	8b 45 fc             	mov    -0x4(%ebp),%eax
  2053e6:	66 89 45 fa          	mov    %ax,-0x6(%ebp)
  2053ea:	0f b7 45 fa          	movzwl -0x6(%ebp),%eax
  2053ee:	8b 55 fc             	mov    -0x4(%ebp),%edx
  2053f1:	29 c2                	sub    %eax,%edx
  2053f3:	89 d0                	mov    %edx,%eax
  2053f5:	c1 e8 10             	shr    $0x10,%eax
  2053f8:	66 89 45 f8          	mov    %ax,-0x8(%ebp)
  2053fc:	0f b7 45 fa          	movzwl -0x6(%ebp),%eax
  205400:	66 89 45 f4          	mov    %ax,-0xc(%ebp)
  205404:	0f b7 45 f8          	movzwl -0x8(%ebp),%eax
  205408:	66 89 45 f6          	mov    %ax,-0xa(%ebp)
  20540c:	8b 45 08             	mov    0x8(%ebp),%eax
  20540f:	8b 55 f4             	mov    -0xc(%ebp),%edx
  205412:	89 10                	mov    %edx,(%eax)
  205414:	8b 45 08             	mov    0x8(%ebp),%eax
  205417:	c9                   	leave
  205418:	c2 04 00             	ret    $0x4

0020541b <call_real_mode_function_with_argc>:
  20541b:	55                   	push   %ebp
  20541c:	89 e5                	mov    %esp,%ebp
  20541e:	83 ec 28             	sub    $0x28,%esp
  205421:	c6 45 f3 00          	movb   $0x0,-0xd(%ebp)
  205425:	80 7d f3 00          	cmpb   $0x0,-0xd(%ebp)
  205429:	74 27                	je     205452 <call_real_mode_function_with_argc+0x37>
  20542b:	8d 45 d8             	lea    -0x28(%ebp),%eax
  20542e:	50                   	push   %eax
  20542f:	e8 b8 fc ff ff       	call   2050ec <get_gdt_root>
  205434:	8b 45 d8             	mov    -0x28(%ebp),%eax
  205437:	8b 55 dc             	mov    -0x24(%ebp),%edx
  20543a:	a3 20 b0 00 00       	mov    %eax,0xb020
  20543f:	89 15 24 b0 00 00    	mov    %edx,0xb024
  205445:	89 e0                	mov    %esp,%eax
  205447:	89 45 ec             	mov    %eax,-0x14(%ebp)
  20544a:	8b 45 ec             	mov    -0x14(%ebp),%eax
  20544d:	a3 28 b0 00 00       	mov    %eax,0xb028
  205452:	8d 45 0c             	lea    0xc(%ebp),%eax
  205455:	89 45 e4             	mov    %eax,-0x1c(%ebp)
  205458:	8b 45 e4             	mov    -0x1c(%ebp),%eax
  20545b:	8d 50 04             	lea    0x4(%eax),%edx
  20545e:	89 55 e4             	mov    %edx,-0x1c(%ebp)
  205461:	8b 00                	mov    (%eax),%eax
  205463:	89 45 e8             	mov    %eax,-0x18(%ebp)
  205466:	8b 55 e8             	mov    -0x18(%ebp),%edx
  205469:	8d 45 e0             	lea    -0x20(%ebp),%eax
  20546c:	52                   	push   %edx
  20546d:	50                   	push   %eax
  20546e:	e8 48 ff ff ff       	call   2053bb <get_realmode_function_address>
  205473:	83 c4 04             	add    $0x4,%esp
  205476:	0f b7 45 e0          	movzwl -0x20(%ebp),%eax
  20547a:	66 a3 34 b0 00 00    	mov    %ax,0xb034
  205480:	0f b7 45 e2          	movzwl -0x1e(%ebp),%eax
  205484:	66 a3 36 b0 00 00    	mov    %ax,0xb036
  20548a:	8b 45 08             	mov    0x8(%ebp),%eax
  20548d:	83 e8 01             	sub    $0x1,%eax
  205490:	66 a3 38 b0 00 00    	mov    %ax,0xb038
  205496:	c7 45 f4 00 00 00 00 	movl   $0x0,-0xc(%ebp)
  20549d:	eb 1f                	jmp    2054be <call_real_mode_function_with_argc+0xa3>
  20549f:	8b 45 e4             	mov    -0x1c(%ebp),%eax
  2054a2:	8d 50 04             	lea    0x4(%eax),%edx
  2054a5:	89 55 e4             	mov    %edx,-0x1c(%ebp)
  2054a8:	8b 00                	mov    (%eax),%eax
  2054aa:	89 c2                	mov    %eax,%edx
  2054ac:	8b 45 f4             	mov    -0xc(%ebp),%eax
  2054af:	83 c0 08             	add    $0x8,%eax
  2054b2:	66 89 94 00 2a b0 00 	mov    %dx,0xb02a(%eax,%eax,1)
  2054b9:	00 
  2054ba:	83 45 f4 01          	addl   $0x1,-0xc(%ebp)
  2054be:	8b 45 f4             	mov    -0xc(%ebp),%eax
  2054c1:	3b 45 08             	cmp    0x8(%ebp),%eax
  2054c4:	72 d9                	jb     20549f <call_real_mode_function_with_argc+0x84>
  2054c6:	e8 95 5b e0 ff       	call   b060 <pm32_to_pm16>
  2054cb:	c9                   	leave
  2054cc:	c3                   	ret

Disassembly of section .rodata:

00206000 <TYPE_START>:
  206000:	08                 	or     %cl,(%ebx)

00206001 <TYPE_END>:
  206001:	0b       	or     0xf000f0e(,%ecx,1),%ecx

00206002 <DESCRIPTOR_TYPE_S>:
  206002:	0c                 	or     $0xd,%al

00206003 <DPL_START>:
  206003:	0d           	or     $0xf000f0e,%eax

00206004 <DPL_END>:
  206004:	0e                   	push   %cs

00206005 <PRESENT>:
  206005:	0f               	str    (%edi)

00206006 <SEGMENT_LIMIT_START_1>:
	...

00206007 <SEGMENT_LIMIT_END_1>:
  206007:	0f               	movups (%ebx),%xmm2

00206008 <SEGMENT_LIMIT_START_2>:
  206008:	10                 	adc    %dl,(%ebx)

00206009 <SEGMENT_LIMIT_END_2>:
  206009:	13       	adc    0x1f101716(,%edx,1),%edx

0020600a <AVL>:
  20600a:	14                 	adc    $0x15,%al

0020600b <LONG_MODE>:
  20600b:	15           	adc    $0x1f101716,%eax

0020600c <DEFAULT_OPERATION_SIZE>:
  20600c:	16                   	push   %ss

0020600d <GRANULARITY>:
  20600d:	17                   	pop    %ss

0020600e <BASE_ADDRESS_LOWER_START>:
  20600e:	10                 	adc    %bl,(%edi)

0020600f <BASE_ADDRESS_LOWER_END>:
  20600f:	1f                   	pop    %ds

00206010 <BASE_ADDRESS_HIGHER_START_1>:
	...

00206011 <BASE_ADDRESS_HIGHER_END_1>:
  206011:	07                   	pop    %es

00206012 <BASE_ADDRESS_HIGHER_START_2>:
  206012:	18                 	sbb    %bl,(%edi)

00206013 <BASE_ADDRESS_HIGHER_END_2>:
  206013:	1f                   	pop    %ds

00206014 <BASE_ADDRESS_INDEX_START_1>:
	...

00206015 <BASE_ADDRESS_INDEX_END_1>:
  206015:	0f               	movups (%edi),%xmm2

00206016 <BASE_ADDRESS_INDEX_START_2>:
  206016:	10                 	adc    %dl,(%edi)

00206017 <BASE_ADDRESS_INDEX_END_2>:
  206017:	17                   	pop    %ss

00206018 <BASE_ADDRESS_INDEX_START_3>:
  206018:	18                 	sbb    %bl,(%edi)

00206019 <BASE_ADDRESS_INDEX_END_3>:
  206019:	1f                   	pop    %ds

0020601a <TYPE_START>:
  20601a:	08                 	or     %cl,(%ebx)

0020601b <TYPE_END>:
  20601b:	0b       	or     0xf000f0e(,%ecx,1),%ecx

0020601c <DESCRIPTOR_TYPE_S>:
  20601c:	0c                 	or     $0xd,%al

0020601d <DPL_START>:
  20601d:	0d           	or     $0xf000f0e,%eax

0020601e <DPL_END>:
  20601e:	0e                   	push   %cs

0020601f <PRESENT>:
  20601f:	0f               	str    (%edi)

00206020 <SEGMENT_LIMIT_START_1>:
	...

00206021 <SEGMENT_LIMIT_END_1>:
  206021:	0f               	movups (%ebx),%xmm2

00206022 <SEGMENT_LIMIT_START_2>:
  206022:	10                 	adc    %dl,(%ebx)

00206023 <SEGMENT_LIMIT_END_2>:
  206023:	13       	adc    0x1f101716(,%edx,1),%edx

00206024 <AVL>:
  206024:	14                 	adc    $0x15,%al

00206025 <LONG_MODE>:
  206025:	15           	adc    $0x1f101716,%eax

00206026 <DEFAULT_OPERATION_SIZE>:
  206026:	16                   	push   %ss

00206027 <GRANULARITY>:
  206027:	17                   	pop    %ss

00206028 <BASE_ADDRESS_LOWER_START>:
  206028:	10                 	adc    %bl,(%edi)

00206029 <BASE_ADDRESS_LOWER_END>:
  206029:	1f                   	pop    %ds

0020602a <BASE_ADDRESS_HIGHER_START_1>:
	...

0020602b <BASE_ADDRESS_HIGHER_END_1>:
  20602b:	07                   	pop    %es

0020602c <BASE_ADDRESS_HIGHER_START_2>:
  20602c:	18                 	sbb    %bl,(%edi)

0020602d <BASE_ADDRESS_HIGHER_END_2>:
  20602d:	1f                   	pop    %ds

0020602e <BASE_ADDRESS_INDEX_START_1>:
	...

0020602f <BASE_ADDRESS_INDEX_END_1>:
  20602f:	0f               	movups (%edi),%xmm2

00206030 <BASE_ADDRESS_INDEX_START_2>:
  206030:	10                 	adc    %dl,(%edi)

00206031 <BASE_ADDRESS_INDEX_END_2>:
  206031:	17                   	pop    %ss

00206032 <BASE_ADDRESS_INDEX_START_3>:
  206032:	18                 	sbb    %bl,(%edi)

00206033 <BASE_ADDRESS_INDEX_END_3>:
  206033:	1f                   	pop    %ds
  206034:	30 31                	xor    %dh,(%ecx)
  206036:	32 33                	xor    (%ebx),%dh
  206038:	34 35                	xor    $0x35,%al
  20603a:	36 37                	ss aaa
  20603c:	38 39                	cmp    %bh,(%ecx)
  20603e:	41                   	inc    %ecx
  20603f:	42                   	inc    %edx
  206040:	43                   	inc    %ebx
  206041:	44                   	inc    %esp
  206042:	45                   	inc    %ebp
  206043:	46                   	inc    %esi
  206044:	00 30                	add    %dh,(%eax)
  206046:	31 32                	xor    %esi,(%edx)
  206048:	33 34 35 36 37 38 39 	xor    0x39383736(,%esi,1),%esi
  20604f:	61                   	popa
  206050:	62 63 64             	bound  %esp,0x64(%ebx)
  206053:	65 66 00 00          	data16 add %al,%gs:(%eax)
  206057:	00 00                	add    %al,(%eax)
  206059:	00 20                	add    %ah,(%eax)
  20605b:	41                   	inc    %ecx
  20605c:	41                   	inc    %ecx
  20605d:	42                   	inc    %edx
  20605e:	4f                   	dec    %edi
  20605f:	52                   	push   %edx
  206060:	54                   	push   %esp
  206061:	45                   	inc    %ebp
  206062:	44                   	inc    %esp
  206063:	0a 00                	or     (%eax),%al
  206065:	25 73 0a 46 69       	and    $0x69460a73,%eax
  20606a:	6c                   	insb   (%dx),%es:(%edi)
  20606b:	65 3a 20             	cmp    %gs:(%eax),%ah
  20606e:	25 73 2c 20 4c       	and    $0x4c202c73,%eax
  206073:	69 6e 65 3a 20 25 64 	imul   $0x6425203a,0x65(%esi),%ebp
  20607a:	0a 00                	or     (%eax),%al
  20607c:	41                   	inc    %ecx
  20607d:	73 73                	jae    2060f2 <BASE_ADDRESS_INDEX_END_3+0xbf>
  20607f:	65 72 74             	gs jb  2060f6 <BASE_ADDRESS_INDEX_END_3+0xc3>
  206082:	69 6f 6e 20 46 61 69 	imul   $0x69614620,0x6e(%edi),%ebp
  206089:	6c                   	insb   (%dx),%es:(%edi)
  20608a:	65 64 0a 00          	gs or  %fs:(%eax),%al
  20608e:	20 3d 20 00 20 7c    	and    %bh,0x7c200020
  206094:	20 00                	and    %al,(%eax)
  206096:	0a 00                	or     (%eax),%al
  206098:	73 74                	jae    20610e <BASE_ADDRESS_INDEX_END_3+0xdb>
  20609a:	64 69 6f 2f 62 69 74 	imul   $0x5f746962,%fs:0x2f(%edi),%ebp
  2060a1:	5f 
  2060a2:	68 65 78 5f 73       	push   $0x735f7865
  2060a7:	74 72                	je     20611b <BASE_ADDRESS_INDEX_END_3+0xe8>
  2060a9:	69 6e 67 2e 63 00 00 	imul   $0x632e,0x67(%esi),%ebp
  2060b0:	4e                   	dec    %esi
  2060b1:	6f                   	outsl  %ds:(%esi),(%dx)
  2060b2:	74 20                	je     2060d4 <BASE_ADDRESS_INDEX_END_3+0xa1>
  2060b4:	64 65 73 69          	fs gs jae 206121 <BASE_ADDRESS_INDEX_END_3+0xee>
  2060b8:	67 6e                	outsb  %ds:(%si),(%dx)
  2060ba:	65 64 20 66 6f       	gs and %ah,%fs:0x6f(%esi)
  2060bf:	72 20                	jb     2060e1 <BASE_ADDRESS_INDEX_END_3+0xae>
  2060c1:	74 6f                	je     206132 <BASE_ADDRESS_INDEX_END_3+0xff>
  2060c3:	6f                   	outsl  %ds:(%esi),(%dx)
  2060c4:	20 62 69             	and    %ah,0x69(%edx)
  2060c7:	67 20 68 65          	and    %ch,0x65(%bx,%si)
  2060cb:	78 20                	js     2060ed <BASE_ADDRESS_INDEX_END_3+0xba>
  2060cd:	28 42 6f             	sub    %al,0x6f(%edx)
  2060d0:	75 6e                	jne    206140 <BASE_ADDRESS_INDEX_END_3+0x10d>
  2060d2:	64 65 64 29 00       	fs gs sub %eax,%fs:(%eax)
  2060d7:	00 49 66             	add    %cl,0x66(%ecx)
  2060da:	20 68 65             	and    %ch,0x65(%eax)
  2060dd:	78 53                	js     206132 <BASE_ADDRESS_INDEX_END_3+0xff>
  2060df:	69 7a 65 20 69 73 6e 	imul   $0x6e736920,0x65(%edx),%edi
  2060e6:	27                   	daa
  2060e7:	74 20                	je     206109 <BASE_ADDRESS_INDEX_END_3+0xd6>
  2060e9:	6c                   	insb   (%dx),%es:(%edi)
  2060ea:	65 6e                	outsb  %gs:(%esi),(%dx)
  2060ec:	2c 20                	sub    $0x20,%al
  2060ee:	74 68                	je     206158 <BASE_ADDRESS_INDEX_END_3+0x125>
  2060f0:	65 6e                	outsb  %gs:(%esi),(%dx)
  2060f2:	20 77 65             	and    %dh,0x65(%edi)
  2060f5:	20 61 72             	and    %ah,0x72(%ecx)
  2060f8:	65 20 66 75          	and    %ah,%gs:0x75(%esi)
  2060fc:	63 6b 65             	arpl   %ebp,0x65(%ebx)
  2060ff:	64 21 0a             	and    %ecx,%fs:(%edx)
  206102:	00 30                	add    %dh,(%eax)
  206104:	78 00                	js     206106 <BASE_ADDRESS_INDEX_END_3+0xd3>
  206106:	00 00                	add    %al,(%eax)
  206108:	5b                   	pop    %ebx
  206109:	00 2c 20             	add    %ch,(%eax,%eiz,1)
  20610c:	00 0a                	add    %cl,(%edx)
  20610e:	00 5d 0a             	add    %bl,0xa(%ebp)
  206111:	00 20                	add    %ah,(%eax)
  206113:	3d 20 5b 00 5d       	cmp    $0x5d005b20,%eax
  206118:	20 3d 20 00 cd cc    	and    %bh,0xcccd0020
  20611e:	cc                   	int3
  20611f:	3d 41 42 4f 52       	cmp    $0x524f4241,%eax
  206124:	54                   	push   %esp
  206125:	45                   	inc    %ebp
  206126:	44                   	inc    %esp
  206127:	0a 00                	or     (%eax),%al
  206129:	25 73 0a 46 69       	and    $0x69460a73,%eax
  20612e:	6c                   	insb   (%dx),%es:(%edi)
  20612f:	65 3a 20             	cmp    %gs:(%eax),%ah
  206132:	25 73 2c 20 4c       	and    $0x4c202c73,%eax
  206137:	69 6e 65 3a 20 25 64 	imul   $0x6425203a,0x65(%esi),%ebp
  20613e:	0a 00                	or     (%eax),%al
  206140:	46                   	inc    %esi
  206141:	4d                   	dec    %ebp
  206142:	54                   	push   %esp
  206143:	5f                   	pop    %edi
  206144:	4f                   	dec    %edi
  206145:	50                   	push   %eax
  206146:	54                   	push   %esp
  206147:	49                   	dec    %ecx
  206148:	4f                   	dec    %edi
  206149:	4e                   	dec    %esi
  20614a:	5f                   	pop    %edi
  20614b:	4e                   	dec    %esi
  20614c:	4f                   	dec    %edi
  20614d:	4e                   	dec    %esi
  20614e:	45                   	inc    %ebp
  20614f:	00 46 4d             	add    %al,0x4d(%esi)
  206152:	54                   	push   %esp
  206153:	5f                   	pop    %edi
  206154:	4f                   	dec    %edi
  206155:	50                   	push   %eax
  206156:	54                   	push   %esp
  206157:	49                   	dec    %ecx
  206158:	4f                   	dec    %edi
  206159:	4e                   	dec    %esi
  20615a:	5f                   	pop    %edi
  20615b:	4e                   	dec    %esi
  20615c:	4f                   	dec    %edi
  20615d:	54                   	push   %esp
  20615e:	5f                   	pop    %edi
  20615f:	49                   	dec    %ecx
  206160:	4d                   	dec    %ebp
  206161:	50                   	push   %eax
  206162:	4c                   	dec    %esp
  206163:	45                   	inc    %ebp
  206164:	4d                   	dec    %ebp
  206165:	45                   	inc    %ebp
  206166:	4e                   	dec    %esi
  206167:	54                   	push   %esp
  206168:	45                   	inc    %ebp
  206169:	44                   	inc    %esp
  20616a:	00 46 4d             	add    %al,0x4d(%esi)
  20616d:	54                   	push   %esp
  20616e:	5f                   	pop    %edi
  20616f:	4f                   	dec    %edi
  206170:	50                   	push   %eax
  206171:	54                   	push   %esp
  206172:	49                   	dec    %ecx
  206173:	4f                   	dec    %edi
  206174:	4e                   	dec    %esi
  206175:	5f                   	pop    %edi
  206176:	43                   	inc    %ebx
  206177:	4f                   	dec    %edi
  206178:	55                   	push   %ebp
  206179:	4c                   	dec    %esp
  20617a:	44                   	inc    %esp
  20617b:	5f                   	pop    %edi
  20617c:	4e                   	dec    %esi
  20617d:	4f                   	dec    %edi
  20617e:	54                   	push   %esp
  20617f:	5f                   	pop    %edi
  206180:	43                   	inc    %ebx
  206181:	4f                   	dec    %edi
  206182:	4e                   	dec    %esi
  206183:	56                   	push   %esi
  206184:	45                   	inc    %ebp
  206185:	52                   	push   %edx
  206186:	54                   	push   %esp
  206187:	00 46 4d             	add    %al,0x4d(%esi)
  20618a:	54                   	push   %esp
  20618b:	5f                   	pop    %edi
  20618c:	4f                   	dec    %edi
  20618d:	50                   	push   %eax
  20618e:	54                   	push   %esp
  20618f:	49                   	dec    %ecx
  206190:	4f                   	dec    %edi
  206191:	4e                   	dec    %esi
  206192:	5f                   	pop    %edi
  206193:	50                   	push   %eax
  206194:	41                   	inc    %ecx
  206195:	44                   	inc    %esp
  206196:	00 46 4d             	add    %al,0x4d(%esi)
  206199:	54                   	push   %esp
  20619a:	5f                   	pop    %edi
  20619b:	4f                   	dec    %edi
  20619c:	50                   	push   %eax
  20619d:	54                   	push   %esp
  20619e:	49                   	dec    %ecx
  20619f:	4f                   	dec    %edi
  2061a0:	4e                   	dec    %esi
  2061a1:	5f                   	pop    %edi
  2061a2:	50                   	push   %eax
  2061a3:	52                   	push   %edx
  2061a4:	45                   	inc    %ebp
  2061a5:	43                   	inc    %ebx
  2061a6:	49                   	dec    %ecx
  2061a7:	53                   	push   %ebx
  2061a8:	49                   	dec    %ecx
  2061a9:	4f                   	dec    %edi
  2061aa:	4e                   	dec    %esi
  2061ab:	00 46 4d             	add    %al,0x4d(%esi)
  2061ae:	54                   	push   %esp
  2061af:	5f                   	pop    %edi
  2061b0:	44                   	inc    %esp
  2061b1:	45                   	inc    %ebp
  2061b2:	46                   	inc    %esi
  2061b3:	41                   	inc    %ecx
  2061b4:	55                   	push   %ebp
  2061b5:	4c                   	dec    %esp
  2061b6:	54                   	push   %esp
  2061b7:	00 50 52             	add    %dl,0x52(%eax)
  2061ba:	49                   	dec    %ecx
  2061bb:	4e                   	dec    %esi
  2061bc:	54                   	push   %esp
  2061bd:	46                   	inc    %esi
  2061be:	5f                   	pop    %edi
  2061bf:	54                   	push   %esp
  2061c0:	41                   	inc    %ecx
  2061c1:	47                   	inc    %edi
  2061c2:	5f                   	pop    %edi
  2061c3:	43                   	inc    %ebx
  2061c4:	48                   	dec    %eax
  2061c5:	41                   	inc    %ecx
  2061c6:	52                   	push   %edx
  2061c7:	00 50 52             	add    %dl,0x52(%eax)
  2061ca:	49                   	dec    %ecx
  2061cb:	4e                   	dec    %esi
  2061cc:	54                   	push   %esp
  2061cd:	46                   	inc    %esi
  2061ce:	5f                   	pop    %edi
  2061cf:	54                   	push   %esp
  2061d0:	41                   	inc    %ecx
  2061d1:	47                   	inc    %edi
  2061d2:	5f                   	pop    %edi
  2061d3:	53                   	push   %ebx
  2061d4:	54                   	push   %esp
  2061d5:	52                   	push   %edx
  2061d6:	49                   	dec    %ecx
  2061d7:	4e                   	dec    %esi
  2061d8:	47                   	inc    %edi
  2061d9:	00 50 52             	add    %dl,0x52(%eax)
  2061dc:	49                   	dec    %ecx
  2061dd:	4e                   	dec    %esi
  2061de:	54                   	push   %esp
  2061df:	46                   	inc    %esi
  2061e0:	5f                   	pop    %edi
  2061e1:	54                   	push   %esp
  2061e2:	41                   	inc    %ecx
  2061e3:	47                   	inc    %edi
  2061e4:	5f                   	pop    %edi
  2061e5:	49                   	dec    %ecx
  2061e6:	4e                   	dec    %esi
  2061e7:	54                   	push   %esp
  2061e8:	00 50 52             	add    %dl,0x52(%eax)
  2061eb:	49                   	dec    %ecx
  2061ec:	4e                   	dec    %esi
  2061ed:	54                   	push   %esp
  2061ee:	46                   	inc    %esi
  2061ef:	5f                   	pop    %edi
  2061f0:	54                   	push   %esp
  2061f1:	41                   	inc    %ecx
  2061f2:	47                   	inc    %edi
  2061f3:	5f                   	pop    %edi
  2061f4:	55                   	push   %ebp
  2061f5:	49                   	dec    %ecx
  2061f6:	4e                   	dec    %esi
  2061f7:	54                   	push   %esp
  2061f8:	33 32                	xor    (%edx),%esi
  2061fa:	5f                   	pop    %edi
  2061fb:	54                   	push   %esp
  2061fc:	00 50 52             	add    %dl,0x52(%eax)
  2061ff:	49                   	dec    %ecx
  206200:	4e                   	dec    %esi
  206201:	54                   	push   %esp
  206202:	46                   	inc    %esi
  206203:	5f                   	pop    %edi
  206204:	54                   	push   %esp
  206205:	41                   	inc    %ecx
  206206:	47                   	inc    %edi
  206207:	5f                   	pop    %edi
  206208:	46                   	inc    %esi
  206209:	4c                   	dec    %esp
  20620a:	4f                   	dec    %edi
  20620b:	41                   	inc    %ecx
  20620c:	54                   	push   %esp
  20620d:	00 50 52             	add    %dl,0x52(%eax)
  206210:	49                   	dec    %ecx
  206211:	4e                   	dec    %esi
  206212:	54                   	push   %esp
  206213:	46                   	inc    %esi
  206214:	5f                   	pop    %edi
  206215:	54                   	push   %esp
  206216:	41                   	inc    %ecx
  206217:	47                   	inc    %edi
  206218:	5f                   	pop    %edi
  206219:	48                   	dec    %eax
  20621a:	45                   	inc    %ebp
  20621b:	58                   	pop    %eax
  20621c:	00 50 52             	add    %dl,0x52(%eax)
  20621f:	49                   	dec    %ecx
  206220:	4e                   	dec    %esi
  206221:	54                   	push   %esp
  206222:	46                   	inc    %esi
  206223:	5f                   	pop    %edi
  206224:	54                   	push   %esp
  206225:	41                   	inc    %ecx
  206226:	47                   	inc    %edi
  206227:	5f                   	pop    %edi
  206228:	42                   	inc    %edx
  206229:	49                   	dec    %ecx
  20622a:	4e                   	dec    %esi
  20622b:	41                   	inc    %ecx
  20622c:	52                   	push   %edx
  20622d:	59                   	pop    %ecx
  20622e:	00 50 52             	add    %dl,0x52(%eax)
  206231:	49                   	dec    %ecx
  206232:	4e                   	dec    %esi
  206233:	54                   	push   %esp
  206234:	46                   	inc    %esi
  206235:	5f                   	pop    %edi
  206236:	54                   	push   %esp
  206237:	41                   	inc    %ecx
  206238:	47                   	inc    %edi
  206239:	5f                   	pop    %edi
  20623a:	49                   	dec    %ecx
  20623b:	4e                   	dec    %esi
  20623c:	56                   	push   %esi
  20623d:	41                   	inc    %ecx
  20623e:	4c                   	dec    %esp
  20623f:	49                   	dec    %ecx
  206240:	44                   	inc    %esp
  206241:	00 50 52             	add    %dl,0x52(%eax)
  206244:	49                   	dec    %ecx
  206245:	4e                   	dec    %esi
  206246:	54                   	push   %esp
  206247:	46                   	inc    %esi
  206248:	5f                   	pop    %edi
  206249:	54                   	push   %esp
  20624a:	41                   	inc    %ecx
  20624b:	47                   	inc    %edi
  20624c:	5f                   	pop    %edi
  20624d:	55                   	push   %ebp
  20624e:	4e                   	dec    %esi
  20624f:	4b                   	dec    %ebx
  206250:	4e                   	dec    %esi
  206251:	4f                   	dec    %edi
  206252:	57                   	push   %edi
  206253:	4e                   	dec    %esi
  206254:	00 54 79 70          	add    %dl,0x70(%ecx,%edi,2)
  206258:	65 20 3d 20 00 0a 00 	and    %bh,%gs:0xa0020
  20625f:	4f                   	dec    %edi
  206260:	70 74                	jo     2062d6 <BASE_ADDRESS_INDEX_END_3+0x2a3>
  206262:	69 6f 6e 20 3d 20 00 	imul   $0x203d20,0x6e(%edi),%ebp
  206269:	4f                   	dec    %edi
  20626a:	70 74                	jo     2062e0 <BASE_ADDRESS_INDEX_END_3+0x2ad>
  20626c:	69 6f 6e 20 6e 75 6d 	imul   $0x6d756e20,0x6e(%edi),%ebp
  206273:	20 3d 20 00 6c 65    	and    %bh,0x656c0020
  206279:	6e                   	outsb  %ds:(%esi),(%dx)
  20627a:	20 3d 20 00 70 6f    	and    %bh,0x6f700020
  206280:	73 20                	jae    2062a2 <BASE_ADDRESS_INDEX_END_3+0x26f>
  206282:	3d 20 00 70 65       	cmp    $0x65700020,%eax
  206287:	72 63                	jb     2062ec <BASE_ADDRESS_INDEX_END_3+0x2b9>
  206289:	65 6e                	outsb  %gs:(%esi),(%dx)
  20628b:	74 5f                	je     2062ec <BASE_ADDRESS_INDEX_END_3+0x2b9>
  20628d:	63 6f 75             	arpl   %ebp,0x75(%edi)
  206290:	6e                   	outsb  %ds:(%esi),(%dx)
  206291:	74 20                	je     2062b3 <BASE_ADDRESS_INDEX_END_3+0x280>
  206293:	3d 20 00 63 6f       	cmp    $0x6f630020,%eax
  206298:	75 6e                	jne    206308 <BASE_ADDRESS_INDEX_END_3+0x2d5>
  20629a:	74 20                	je     2062bc <BASE_ADDRESS_INDEX_END_3+0x289>
  20629c:	3d 20 00 73 74       	cmp    $0x74730020,%eax
  2062a1:	64 69 6f 2f 73 74 64 	imul   $0x69647473,%fs:0x2f(%edi),%ebp
  2062a8:	69 
  2062a9:	6f                   	outsl  %ds:(%esi),(%dx)
  2062aa:	2e 63 00             	arpl   %eax,%cs:(%eax)
  2062ad:	61                   	popa
  2062ae:	62 6f 72             	bound  %ebp,0x72(%edi)
  2062b1:	74 20                	je     2062d3 <BASE_ADDRESS_INDEX_END_3+0x2a0>
  2062b3:	63 61 6c             	arpl   %esp,0x6c(%ecx)
  2062b6:	6c                   	insb   (%dx),%es:(%edi)
  2062b7:	65 64 00 6c 65 6e    	gs add %ch,%fs:0x6e(%ebp,%eiz,2)
  2062bd:	20 63 68             	and    %ah,0x68(%ebx)
  2062c0:	65 63 6b 20          	arpl   %ebp,%gs:0x20(%ebx)
  2062c4:	66 61                	popaw
  2062c6:	69 6c 65 64 0a 00 6c 	imul   $0x656c000a,0x64(%ebp,%eiz,2),%ebp
  2062cd:	65 
  2062ce:	6e                   	outsb  %ds:(%esi),(%dx)
  2062cf:	5f                   	pop    %edi
  2062d0:	63 68 65             	arpl   %ebp,0x65(%eax)
  2062d3:	63 6b 20             	arpl   %ebp,0x20(%ebx)
  2062d6:	3d 20 00 41 42       	cmp    $0x42410020,%eax
  2062db:	4f                   	dec    %edi
  2062dc:	52                   	push   %edx
  2062dd:	54                   	push   %esp
  2062de:	45                   	inc    %ebp
  2062df:	44                   	inc    %esp
  2062e0:	0a 00                	or     (%eax),%al
  2062e2:	25 73 0a 46 69       	and    $0x69460a73,%eax
  2062e7:	6c                   	insb   (%dx),%es:(%edi)
  2062e8:	65 3a 20             	cmp    %gs:(%eax),%ah
  2062eb:	25 73 2c 20 4c       	and    $0x4c202c73,%eax
  2062f0:	69 6e 65 3a 20 25 64 	imul   $0x6425203a,0x65(%esi),%ebp
  2062f7:	0a 00                	or     (%eax),%al
  2062f9:	41                   	inc    %ecx
  2062fa:	73 73                	jae    20636f <interrupt_69_fmt+0x24>
  2062fc:	65 72 74             	gs jb  206373 <interrupt_69_fmt+0x28>
  2062ff:	69 6f 6e 20 46 61 69 	imul   $0x69614620,0x6e(%edi),%ebp
  206306:	6c                   	insb   (%dx),%es:(%edi)
  206307:	65 64 0a 00          	gs or  %fs:(%eax),%al
  20630b:	69 64 74 2f 69 64 74 	imul   $0x2e746469,0x2f(%esp,%esi,2),%esp
  206312:	2e 
  206313:	63 00                	arpl   %eax,(%eax)
  206315:	47                   	inc    %edi
  206316:	61                   	popa
  206317:	74 65                	je     20637e <interrupt_69_fmt+0x33>
  206319:	20 74 79 70          	and    %dh,0x70(%ecx,%edi,2)
  20631d:	65 20 69 73          	and    %ch,%gs:0x73(%ecx)
  206321:	20 6e 6f             	and    %ch,0x6f(%esi)
  206324:	74 20                	je     206346 <interrupt_printf_fmt+0x16>
  206326:	76 61                	jbe    206389 <interrupt_69_fmt+0x3e>
  206328:	6c                   	insb   (%dx),%es:(%edi)
  206329:	69 64 00     	imul   $0x49000000,0x2(%eax,%eax,1),%esp
  206330:	 

0020632c <argc>:
  20632c:	02 00                	add    (%eax),%al
	...

00206330 <interrupt_printf_fmt>:
  206330:	49                   	dec    %ecx
  206331:	6e                   	outsb  %ds:(%esi),(%dx)
  206332:	20 49 6e             	and    %cl,0x6e(%ecx)
  206335:	74 65                	je     20639c <DPL_END>
  206337:	72 72                	jb     2063ab <BASE_ADDRESS_HIGHER_END_2>
  206339:	75 70                	jne    2063ab <BASE_ADDRESS_HIGHER_END_2>
  20633b:	74 20                	je     20635d <interrupt_69_fmt+0x12>
  20633d:	68 61 6e 64 6c       	push   $0x6c646e61
  206342:	65 72 3a             	gs jb  20637f <interrupt_69_fmt+0x34>
  206345:	20 25 64 0a 0a 00    	and    %ah,0xa0a64

0020634b <interrupt_69_fmt>:
  20634b:	0a 48 65             	or     0x65(%eax),%cl
  20634e:	6c                   	insb   (%dx),%es:(%edi)
  20634f:	6c                   	insb   (%dx),%es:(%edi)
  206350:	6f                   	outsl  %ds:(%esi),(%dx)
  206351:	20 66 72             	and    %ah,0x72(%esi)
  206354:	6f                   	outsl  %ds:(%esi),(%dx)
  206355:	6d                   	insl   (%dx),%es:(%edi)
  206356:	20 49 6e             	and    %cl,0x6e(%ecx)
  206359:	73 69                	jae    2063c4 <BASE_ADDRESS_INDEX_END_3+0x13>
  20635b:	64 65 20 74 68 65    	fs and %dh,%gs:0x65(%eax,%ebp,2)
  206361:	20 49 6e             	and    %cl,0x6e(%ecx)
  206364:	74 65                	je     2063cb <BASE_ADDRESS_INDEX_END_3+0x1a>
  206366:	72 72                	jb     2063da <BASE_ADDRESS_INDEX_END_3+0x29>
  206368:	75 70                	jne    2063da <BASE_ADDRESS_INDEX_END_3+0x29>
  20636a:	74 20                	je     20638c <interrupt_69_fmt+0x41>
  20636c:	68 61 6e 64 6c       	push   $0x6c646e61
  206371:	65 72 20             	gs jb  206394 <interrupt_69_fmt+0x49>
  206374:	25 64 2c 20 6e       	and    $0x6e202c64,%eax
  206379:	69 63 65 21 0a 0a 00 	imul   $0xa0a21,0x65(%ebx),%esp
  206380:	5b                   	pop    %ebx
  206381:	45                   	inc    %ebp
  206382:	52                   	push   %edx
  206383:	52                   	push   %edx
  206384:	4f                   	dec    %edi
  206385:	52                   	push   %edx
  206386:	5d                   	pop    %ebp
  206387:	3a 20                	cmp    (%eax),%ah
  206389:	62 69 67             	bound  %ebp,0x67(%ecx)
  20638c:	20 3e                	and    %bh,(%esi)
  20638e:	3d 20 73 6d 61       	cmp    $0x616d7320,%eax
  206393:	6c                   	insb   (%dx),%es:(%edi)
  206394:	6c                   	insb   (%dx),%es:(%edi)
  206395:	20 00                	and    %al,(%eax)
	...

00206398 <TYPE_START>:
  206398:	08                 	or     %cl,(%ebx)

00206399 <TYPE_END>:
  206399:	0b       	or     0xf000f0e(,%ecx,1),%ecx

0020639a <DESCRIPTOR_TYPE_S>:
  20639a:	0c                 	or     $0xd,%al

0020639b <DPL_START>:
  20639b:	0d           	or     $0xf000f0e,%eax

0020639c <DPL_END>:
  20639c:	0e                   	push   %cs

0020639d <PRESENT>:
  20639d:	0f               	str    (%edi)

0020639e <SEGMENT_LIMIT_START_1>:
	...

0020639f <SEGMENT_LIMIT_END_1>:
  20639f:	0f               	movups (%ebx),%xmm2

002063a0 <SEGMENT_LIMIT_START_2>:
  2063a0:	10                 	adc    %dl,(%ebx)

002063a1 <SEGMENT_LIMIT_END_2>:
  2063a1:	13       	adc    0x1f101716(,%edx,1),%edx

002063a2 <AVL>:
  2063a2:	14                 	adc    $0x15,%al

002063a3 <LONG_MODE>:
  2063a3:	15           	adc    $0x1f101716,%eax

002063a4 <DEFAULT_OPERATION_SIZE>:
  2063a4:	16                   	push   %ss

002063a5 <GRANULARITY>:
  2063a5:	17                   	pop    %ss

002063a6 <BASE_ADDRESS_LOWER_START>:
  2063a6:	10                 	adc    %bl,(%edi)

002063a7 <BASE_ADDRESS_LOWER_END>:
  2063a7:	1f                   	pop    %ds

002063a8 <BASE_ADDRESS_HIGHER_START_1>:
	...

002063a9 <BASE_ADDRESS_HIGHER_END_1>:
  2063a9:	07                   	pop    %es

002063aa <BASE_ADDRESS_HIGHER_START_2>:
  2063aa:	18                 	sbb    %bl,(%edi)

002063ab <BASE_ADDRESS_HIGHER_END_2>:
  2063ab:	1f                   	pop    %ds

002063ac <BASE_ADDRESS_INDEX_START_1>:
	...

002063ad <BASE_ADDRESS_INDEX_END_1>:
  2063ad:	0f               	movups (%edi),%xmm2

002063ae <BASE_ADDRESS_INDEX_START_2>:
  2063ae:	10                 	adc    %dl,(%edi)

002063af <BASE_ADDRESS_INDEX_END_2>:
  2063af:	17                   	pop    %ss

002063b0 <BASE_ADDRESS_INDEX_START_3>:
  2063b0:	18                 	sbb    %bl,(%edi)

002063b1 <BASE_ADDRESS_INDEX_END_3>:
  2063b1:	1f                   	pop    %ds
  2063b2:	74 79                	je     20642d <BASE_ADDRESS_INDEX_END_3+0x7c>
  2063b4:	70 65                	jo     20641b <BASE_ADDRESS_INDEX_END_3+0x6a>
  2063b6:	00 64 65 73          	add    %ah,0x73(%ebp,%eiz,2)
  2063ba:	63 72 69             	arpl   %esi,0x69(%edx)
  2063bd:	70 74                	jo     206433 <BASE_ADDRESS_INDEX_END_3+0x82>
  2063bf:	6f                   	outsl  %ds:(%esi),(%dx)
  2063c0:	72 54                	jb     206416 <BASE_ADDRESS_INDEX_END_3+0x65>
  2063c2:	79 70                	jns    206434 <BASE_ADDRESS_INDEX_END_3+0x83>
  2063c4:	65 53                	gs push %ebx
  2063c6:	00 70 72             	add    %dh,0x72(%eax)
  2063c9:	69 76 69 6c 65 64 67 	imul   $0x6764656c,0x69(%esi),%esi
  2063d0:	65 44                	gs inc %esp
  2063d2:	50                   	push   %eax
  2063d3:	4c                   	dec    %esp
  2063d4:	00 70 72             	add    %dh,0x72(%eax)
  2063d7:	65 73 65             	gs jae 20643f <BASE_ADDRESS_INDEX_END_3+0x8e>
  2063da:	6e                   	outsb  %ds:(%esi),(%dx)
  2063db:	74 50                	je     20642d <BASE_ADDRESS_INDEX_END_3+0x7c>
  2063dd:	00 73 65             	add    %dh,0x65(%ebx)
  2063e0:	67 6d                	insl   (%dx),%es:(%di)
  2063e2:	65 6e                	outsb  %gs:(%esi),(%dx)
  2063e4:	74 4c                	je     206432 <BASE_ADDRESS_INDEX_END_3+0x81>
  2063e6:	69 6d 69 74 00 61 76 	imul   $0x76610074,0x69(%ebp),%ebp
  2063ed:	6c                   	insb   (%dx),%es:(%edi)
  2063ee:	00 4c 00 44          	add    %cl,0x44(%eax,%eax,1)
  2063f2:	73 42                	jae    206436 <BASE_ADDRESS_INDEX_END_3+0x85>
  2063f4:	00 67 72             	add    %ah,0x72(%edi)
  2063f7:	61                   	popa
  2063f8:	6e                   	outsb  %ds:(%esi),(%dx)
  2063f9:	75 6c                	jne    206467 <BASE_ADDRESS_INDEX_END_3+0x2>
  2063fb:	61                   	popa
  2063fc:	72 69                	jb     206467 <BASE_ADDRESS_INDEX_END_3+0x2>
  2063fe:	74 79                	je     206479 <BASE_ADDRESS_INDEX_END_3+0x14>
  206400:	00 62 61             	add    %ah,0x61(%edx)
  206403:	73 65                	jae    20646a <BASE_ADDRESS_INDEX_END_3+0x5>
  206405:	41                   	inc    %ecx
  206406:	64 64 72 65          	fs fs jb 20646f <BASE_ADDRESS_INDEX_END_3+0xa>
  20640a:	73 73                	jae    20647f <BASE_ADDRESS_INDEX_END_3+0x1a>
  20640c:	00 00                	add    %al,(%eax)
  20640e:	00 00                	add    %al,(%eax)
  206410:	46                   	inc    %esi
  206411:	6c                   	insb   (%dx),%es:(%edi)
  206412:	61                   	popa
  206413:	67 73 20             	addr16 jae 206436 <BASE_ADDRESS_INDEX_END_3+0x85>
  206416:	69 73 20 74 6f 6f 20 	imul   $0x206f6f74,0x20(%ebx),%esi
  20641d:	62 69 67             	bound  %ebp,0x67(%ecx)
  206420:	2c 20                	sub    $0x20,%al
  206422:	74 68                	je     20648c <BASE_ADDRESS_INDEX_END_3+0x27>
  206424:	69 73 20 69 73 20 61 	imul   $0x61207369,0x20(%ebx),%esi
  20642b:	6e                   	outsb  %ds:(%esi),(%dx)
  20642c:	20 69 6d             	and    %ch,0x6d(%ecx)
  20642f:	70 6f                	jo     2064a0 <BASE_ADDRESS_INDEX_END_3+0x3b>
  206431:	73 73                	jae    2064a6 <BASE_ADDRESS_INDEX_END_3+0x41>
  206433:	69 62 6c 65 20 63 61 	imul   $0x61632065,0x6c(%edx),%esp
  20643a:	73 65                	jae    2064a1 <BASE_ADDRESS_INDEX_END_3+0x3c>
  20643c:	0a 00                	or     (%eax),%al
  20643e:	66 6c                	data16 insb (%dx),%es:(%edi)
  206440:	61                   	popa
  206441:	67 73 00             	addr16 jae 206444 <BASE_ADDRESS_INDEX_END_3+0x93>
  206444:	61                   	popa
  206445:	63 63 65             	arpl   %esp,0x65(%ebx)
  206448:	73 73                	jae    2064bd <BASE_ADDRESS_INDEX_END_3+0x58>
	...

0020644c <TYPE_START>:
  20644c:	08                 	or     %cl,(%ebx)

0020644d <TYPE_END>:
  20644d:	0b       	or     0xf000f0e(,%ecx,1),%ecx

0020644e <DESCRIPTOR_TYPE_S>:
  20644e:	0c                 	or     $0xd,%al

0020644f <DPL_START>:
  20644f:	0d           	or     $0xf000f0e,%eax

00206450 <DPL_END>:
  206450:	0e                   	push   %cs

00206451 <PRESENT>:
  206451:	0f               	str    (%edi)

00206452 <SEGMENT_LIMIT_START_1>:
	...

00206453 <SEGMENT_LIMIT_END_1>:
  206453:	0f               	movups (%ebx),%xmm2

00206454 <SEGMENT_LIMIT_START_2>:
  206454:	10                 	adc    %dl,(%ebx)

00206455 <SEGMENT_LIMIT_END_2>:
  206455:	13       	adc    0x1f101716(,%edx,1),%edx

00206456 <AVL>:
  206456:	14                 	adc    $0x15,%al

00206457 <LONG_MODE>:
  206457:	15           	adc    $0x1f101716,%eax

00206458 <DEFAULT_OPERATION_SIZE>:
  206458:	16                   	push   %ss

00206459 <GRANULARITY>:
  206459:	17                   	pop    %ss

0020645a <BASE_ADDRESS_LOWER_START>:
  20645a:	10                 	adc    %bl,(%edi)

0020645b <BASE_ADDRESS_LOWER_END>:
  20645b:	1f                   	pop    %ds

0020645c <BASE_ADDRESS_HIGHER_START_1>:
	...

0020645d <BASE_ADDRESS_HIGHER_END_1>:
  20645d:	07                   	pop    %es

0020645e <BASE_ADDRESS_HIGHER_START_2>:
  20645e:	18                 	sbb    %bl,(%edi)

0020645f <BASE_ADDRESS_HIGHER_END_2>:
  20645f:	1f                   	pop    %ds

00206460 <BASE_ADDRESS_INDEX_START_1>:
	...

00206461 <BASE_ADDRESS_INDEX_END_1>:
  206461:	0f               	movups (%edi),%xmm2

00206462 <BASE_ADDRESS_INDEX_START_2>:
  206462:	10                 	adc    %dl,(%edi)

00206463 <BASE_ADDRESS_INDEX_END_2>:
  206463:	17                   	pop    %ss

00206464 <BASE_ADDRESS_INDEX_START_3>:
  206464:	18                 	sbb    %bl,(%edi)

00206465 <BASE_ADDRESS_INDEX_END_3>:
  206465:	1f                   	pop    %ds
  206466:	3d 3d 3d 3d 20       	cmp    $0x203d3d3d,%eax
  20646b:	41                   	inc    %ecx
  20646c:	72 67                	jb     2064d5 <BASE_ADDRESS_INDEX_END_3+0x70>
  20646e:	73 31                	jae    2064a1 <BASE_ADDRESS_INDEX_END_3+0x3c>
  206470:	36 20 43 6f          	and    %al,%ss:0x6f(%ebx)
  206474:	6e                   	outsb  %ds:(%esi),(%dx)
  206475:	74 65                	je     2064dc <BASE_ADDRESS_INDEX_END_3+0x77>
  206477:	6e                   	outsb  %ds:(%esi),(%dx)
  206478:	74 73                	je     2064ed <BASE_ADDRESS_INDEX_END_3+0x88>
  20647a:	20 3d 3d 3d 3d 0a    	and    %bh,0xa3d3d3d
  206480:	00 47 44             	add    %al,0x44(%edi)
  206483:	54                   	push   %esp
  206484:	20 52 6f             	and    %dl,0x6f(%edx)
  206487:	6f                   	outsl  %ds:(%esi),(%dx)
  206488:	74 3a                	je     2064c4 <BASE_ADDRESS_INDEX_END_3+0x5f>
  20648a:	0a 00                	or     (%eax),%al
  20648c:	47                   	inc    %edi
  20648d:	44                   	inc    %esp
  20648e:	54                   	push   %esp
  20648f:	20 53 69             	and    %dl,0x69(%ebx)
  206492:	7a 65                	jp     2064f9 <BASE_ADDRESS_INDEX_END_3+0x94>
  206494:	3a 20                	cmp    (%eax),%ah
  206496:	00 47 44             	add    %al,0x44(%edi)
  206499:	54                   	push   %esp
  20649a:	20 42 61             	and    %al,0x61(%edx)
  20649d:	73 65                	jae    206504 <BASE_ADDRESS_INDEX_END_3+0x9f>
  20649f:	20 28                	and    %ch,(%eax)
  2064a1:	62 69 74             	bound  %ebp,0x74(%ecx)
  2064a4:	73 20                	jae    2064c6 <BASE_ADDRESS_INDEX_END_3+0x61>
  2064a6:	30 2d 33 32 29 00    	xor    %ch,0x293233
  2064ac:	0a 00                	or     (%eax),%al
  2064ae:	00 00                	add    %al,(%eax)
  2064b0:	43                   	inc    %ebx
  2064b1:	6f                   	outsl  %ds:(%esi),(%dx)
  2064b2:	64 65 20 42 61       	fs and %al,%gs:0x61(%edx)
  2064b7:	73 65                	jae    20651e <BASE_ADDRESS_INDEX_END_3+0xb9>
  2064b9:	20 44 65 73          	and    %al,0x73(%ebp,%eiz,2)
  2064bd:	63 72 69             	arpl   %esi,0x69(%edx)
  2064c0:	70 74                	jo     206536 <BASE_ADDRESS_INDEX_END_3+0xd1>
  2064c2:	6f                   	outsl  %ds:(%esi),(%dx)
  2064c3:	72 20                	jb     2064e5 <BASE_ADDRESS_INDEX_END_3+0x80>
  2064c5:	4c                   	dec    %esp
  2064c6:	6f                   	outsl  %ds:(%esi),(%dx)
  2064c7:	77 65                	ja     20652e <BASE_ADDRESS_INDEX_END_3+0xc9>
  2064c9:	72 20                	jb     2064eb <BASE_ADDRESS_INDEX_END_3+0x86>
  2064cb:	28 62 69             	sub    %ah,0x69(%edx)
  2064ce:	74 73                	je     206543 <BASE_ADDRESS_INDEX_END_3+0xde>
  2064d0:	20 30                	and    %dh,(%eax)
  2064d2:	2d 33 32 29 00       	sub    $0x293233,%eax
  2064d7:	00 43 6f             	add    %al,0x6f(%ebx)
  2064da:	64 65 20 42 61       	fs and %al,%gs:0x61(%edx)
  2064df:	73 65                	jae    206546 <BASE_ADDRESS_INDEX_END_3+0xe1>
  2064e1:	20 44 65 73          	and    %al,0x73(%ebp,%eiz,2)
  2064e5:	63 72 69             	arpl   %esi,0x69(%edx)
  2064e8:	70 74                	jo     20655e <BASE_ADDRESS_INDEX_END_3+0xf9>
  2064ea:	6f                   	outsl  %ds:(%esi),(%dx)
  2064eb:	72 20                	jb     20650d <BASE_ADDRESS_INDEX_END_3+0xa8>
  2064ed:	48                   	dec    %eax
  2064ee:	69 67 68 65 72 20 28 	imul   $0x28207265,0x68(%edi),%esp
  2064f5:	62 69 74             	bound  %ebp,0x74(%ecx)
  2064f8:	73 20                	jae    20651a <BASE_ADDRESS_INDEX_END_3+0xb5>
  2064fa:	33 33                	xor    (%ebx),%esi
  2064fc:	2d 36 34 29 00       	sub    $0x293436,%eax
  206501:	00 00                	add    %al,(%eax)
  206503:	00 44 61 74          	add    %al,0x74(%ecx,%eiz,2)
  206507:	61                   	popa
  206508:	20 42 61             	and    %al,0x61(%edx)
  20650b:	73 65                	jae    206572 <BASE_ADDRESS_INDEX_END_3+0x10d>
  20650d:	20 44 65 73          	and    %al,0x73(%ebp,%eiz,2)
  206511:	63 72 69             	arpl   %esi,0x69(%edx)
  206514:	70 74                	jo     20658a <BASE_ADDRESS_INDEX_END_3+0x125>
  206516:	6f                   	outsl  %ds:(%esi),(%dx)
  206517:	72 20                	jb     206539 <BASE_ADDRESS_INDEX_END_3+0xd4>
  206519:	4c                   	dec    %esp
  20651a:	6f                   	outsl  %ds:(%esi),(%dx)
  20651b:	77 65                	ja     206582 <BASE_ADDRESS_INDEX_END_3+0x11d>
  20651d:	72 20                	jb     20653f <BASE_ADDRESS_INDEX_END_3+0xda>
  20651f:	28 62 69             	sub    %ah,0x69(%edx)
  206522:	74 73                	je     206597 <BASE_ADDRESS_INDEX_END_3+0x132>
  206524:	20 30                	and    %dh,(%eax)
  206526:	2d 33 32 29 00       	sub    $0x293233,%eax
  20652b:	00 44 61 74          	add    %al,0x74(%ecx,%eiz,2)
  20652f:	61                   	popa
  206530:	20 42 61             	and    %al,0x61(%edx)
  206533:	73 65                	jae    20659a <BASE_ADDRESS_INDEX_END_3+0x135>
  206535:	20 44 65 73          	and    %al,0x73(%ebp,%eiz,2)
  206539:	63 72 69             	arpl   %esi,0x69(%edx)
  20653c:	70 74                	jo     2065b2 <BASE_ADDRESS_INDEX_END_3+0x14d>
  20653e:	6f                   	outsl  %ds:(%esi),(%dx)
  20653f:	72 20                	jb     206561 <BASE_ADDRESS_INDEX_END_3+0xfc>
  206541:	48                   	dec    %eax
  206542:	69 67 68 65 72 20 28 	imul   $0x28207265,0x68(%edi),%esp
  206549:	62 69 74             	bound  %ebp,0x74(%ecx)
  20654c:	73 20                	jae    20656e <BASE_ADDRESS_INDEX_END_3+0x109>
  20654e:	33 33                	xor    (%ebx),%esi
  206550:	2d 36 34 29 00       	sub    $0x293436,%eax
  206555:	45                   	inc    %ebp
  206556:	53                   	push   %ebx
  206557:	50                   	push   %eax
  206558:	3a 20                	cmp    (%eax),%ah
  20655a:	00 52 65             	add    %dl,0x65(%edx)
  20655d:	74 31                	je     206590 <BASE_ADDRESS_INDEX_END_3+0x12b>
  20655f:	3a 20                	cmp    (%eax),%ah
  206561:	00 52 65             	add    %dl,0x65(%edx)
  206564:	74 32                	je     206598 <BASE_ADDRESS_INDEX_END_3+0x133>
  206566:	3a 20                	cmp    (%eax),%ah
  206568:	00 00                	add    %al,(%eax)
  20656a:	00 00                	add    %al,(%eax)
  20656c:	46                   	inc    %esi
  20656d:	75 6e                	jne    2065dd <BASE_ADDRESS_INDEX_END_3+0x178>
  20656f:	63 74 69 6f          	arpl   %esi,0x6f(%ecx,%ebp,2)
  206573:	6e                   	outsb  %ds:(%esi),(%dx)
  206574:	20 61 64             	and    %ah,0x64(%ecx)
  206577:	64 72 65             	fs jb  2065df <BASE_ADDRESS_INDEX_END_3+0x17a>
  20657a:	73 73                	jae    2065ef <BASE_ADDRESS_INDEX_END_3+0x18a>
  20657c:	20 6f 66             	and    %ch,0x66(%edi)
  20657f:	66 73 65             	data16 jae 2065e7 <BASE_ADDRESS_INDEX_END_3+0x182>
  206582:	74 20                	je     2065a4 <BASE_ADDRESS_INDEX_END_3+0x13f>
  206584:	28 69 70             	sub    %ch,0x70(%ecx)
  206587:	29 3a                	sub    %edi,(%edx)
  206589:	20 00                	and    %al,(%eax)
  20658b:	00 46 75             	add    %al,0x75(%esi)
  20658e:	6e                   	outsb  %ds:(%esi),(%dx)
  20658f:	63 74 69 6f          	arpl   %esi,0x6f(%ecx,%ebp,2)
  206593:	6e                   	outsb  %ds:(%esi),(%dx)
  206594:	20 61 64             	and    %ah,0x64(%ecx)
  206597:	64 72 65             	fs jb  2065ff <BASE_ADDRESS_INDEX_END_3+0x19a>
  20659a:	73 73                	jae    20660f <BASE_ADDRESS_INDEX_END_3+0x1aa>
  20659c:	20 73 65             	and    %dh,0x65(%ebx)
  20659f:	67 6d                	insl   (%dx),%es:(%di)
  2065a1:	65 6e                	outsb  %gs:(%esi),(%dx)
  2065a3:	74 20                	je     2065c5 <BASE_ADDRESS_INDEX_END_3+0x160>
  2065a5:	28 63 73             	sub    %ah,0x73(%ebx)
  2065a8:	29 3a                	sub    %edi,(%edx)
  2065aa:	20 00                	and    %al,(%eax)
  2065ac:	41                   	inc    %ecx
  2065ad:	72 67                	jb     206616 <BASE_ADDRESS_INDEX_END_3+0x1b1>
  2065af:	63 3a                	arpl   %edi,(%edx)
  2065b1:	20 00                	and    %al,(%eax)
  2065b3:	46                   	inc    %esi
  2065b4:	75 6e                	jne    206624 <BASE_ADDRESS_INDEX_END_3+0x1bf>
  2065b6:	63 74 69 6f          	arpl   %esi,0x6f(%ecx,%ebp,2)
  2065ba:	6e                   	outsb  %ds:(%esi),(%dx)
  2065bb:	20 41 72             	and    %al,0x72(%ecx)
  2065be:	67 75 6d             	addr16 jne 20662e <BASE_ADDRESS_INDEX_END_3+0x1c9>
  2065c1:	65 6e                	outsb  %gs:(%esi),(%dx)
  2065c3:	74 73                	je     206638 <BASE_ADDRESS_INDEX_END_3+0x1d3>
  2065c5:	3a 0a                	cmp    (%edx),%cl
  2065c7:	00 09                	add    %cl,(%ecx)
  2065c9:	4e                   	dec    %esi
  2065ca:	6f                   	outsl  %ds:(%esi),(%dx)
  2065cb:	6e                   	outsb  %ds:(%esi),(%dx)
  2065cc:	65 0a 00             	or     %gs:(%eax),%al
  2065cf:	20 20                	and    %ah,(%eax)
  2065d1:	20 20                	and    %ah,(%eax)
  2065d3:	61                   	popa
  2065d4:	72 67                	jb     20663d <BASE_ADDRESS_INDEX_END_3+0x1d8>
  2065d6:	00 0a                	add    %cl,(%edx)
  2065d8:	54                   	push   %esp
  2065d9:	68 65 20 72 61       	push   $0x61722065
  2065de:	77 20                	ja     206600 <BASE_ADDRESS_INDEX_END_3+0x19b>
  2065e0:	76 65                	jbe    206647 <BASE_ADDRESS_INDEX_END_3+0x1e2>
  2065e2:	72 73                	jb     206657 <BASE_ADDRESS_INDEX_END_3+0x1f2>
  2065e4:	69 6f 6e 3a 20 0a 00 	imul   $0xa203a,0x6e(%edi),%ebp
  2065eb:	61                   	popa
  2065ec:	72 67                	jb     206655 <BASE_ADDRESS_INDEX_END_3+0x1f0>
  2065ee:	73 31                	jae    206621 <BASE_ADDRESS_INDEX_END_3+0x1bc>
  2065f0:	36 5f                	ss pop %edi
  2065f2:	72 61                	jb     206655 <BASE_ADDRESS_INDEX_END_3+0x1f0>
  2065f4:	77 00                	ja     2065f6 <BASE_ADDRESS_INDEX_END_3+0x191>

Disassembly of section .rodata.str1.1:

002065f6 <.rodata.str1.1>:
  2065f6:	68 69 67 68 65       	push   $0x65686769
  2065fb:	72 00                	jb     2065fd <BASE_ADDRESS_INDEX_END_3+0x198>
  2065fd:	6c                   	insb   (%dx),%es:(%edi)
  2065fe:	6f                   	outsl  %ds:(%esi),(%dx)
  2065ff:	77 65                	ja     206666 <BASE_ADDRESS_INDEX_END_3+0x201>
  206601:	72 00                	jb     206603 <BASE_ADDRESS_INDEX_END_3+0x19e>
  206603:	2d 2d 2d 2d 2d       	sub    $0x2d2d2d2d,%eax
  206608:	20 50 61             	and    %dl,0x61(%eax)
  20660b:	72 73                	jb     206680 <BASE_ADDRESS_INDEX_END_3+0x21b>
  20660d:	65 64 20 46 69       	gs and %al,%fs:0x69(%esi)
  206612:	65 6c                	gs insb (%dx),%es:(%edi)
  206614:	64 73 20             	fs jae 206637 <BASE_ADDRESS_INDEX_END_3+0x1d2>
  206617:	2d 2d 2d 2d 2d       	sub    $0x2d2d2d2d,%eax
  20661c:	0a 00                	or     (%eax),%al
  20661e:	42                   	inc    %edx
  20661f:	61                   	popa
  206620:	73 65                	jae    206687 <BASE_ADDRESS_INDEX_END_3+0x222>
  206622:	20 41 64             	and    %al,0x64(%ecx)
  206625:	64 72 65             	fs jb  20668d <BASE_ADDRESS_INDEX_END_3+0x228>
  206628:	73 73                	jae    20669d <BASE_ADDRESS_INDEX_END_3+0x238>
  20662a:	00 53 65             	add    %dl,0x65(%ebx)
  20662d:	67 6d                	insl   (%dx),%es:(%di)
  20662f:	65 6e                	outsb  %gs:(%esi),(%dx)
  206631:	74 4c                	je     20667f <BASE_ADDRESS_INDEX_END_3+0x21a>
  206633:	69 6d 69 74 20 28 62 	imul   $0x62282074,0x69(%ebp),%ebp
  20663a:	69 74 73 20 30 2d 31 	imul   $0x39312d30,0x20(%ebx,%esi,2),%esi
  206641:	39 
  206642:	29 00                	sub    %eax,(%eax)
  206644:	47                   	inc    %edi
  206645:	72 61                	jb     2066a8 <BASE_ADDRESS_INDEX_END_3+0x243>
  206647:	6e                   	outsb  %ds:(%esi),(%dx)
  206648:	75 6c                	jne    2066b6 <BASE_ADDRESS_INDEX_END_3+0x251>
  20664a:	61                   	popa
  20664b:	72 69                	jb     2066b6 <BASE_ADDRESS_INDEX_END_3+0x251>
  20664d:	74 79                	je     2066c8 <BASE_ADDRESS_INDEX_END_3+0x263>
  20664f:	20 3d 20 00 44 65    	and    %bh,0x65440020
  206655:	66 61                	popaw
  206657:	75 6c                	jne    2066c5 <BASE_ADDRESS_INDEX_END_3+0x260>
  206659:	74 4f                	je     2066aa <BASE_ADDRESS_INDEX_END_3+0x245>
  20665b:	70 65                	jo     2066c2 <BASE_ADDRESS_INDEX_END_3+0x25d>
  20665d:	72 61                	jb     2066c0 <BASE_ADDRESS_INDEX_END_3+0x25b>
  20665f:	74 69                	je     2066ca <BASE_ADDRESS_INDEX_END_3+0x265>
  206661:	6f                   	outsl  %ds:(%esi),(%dx)
  206662:	6e                   	outsb  %ds:(%esi),(%dx)
  206663:	53                   	push   %ebx
  206664:	69 7a 65 20 3d 20 00 	imul   $0x203d20,0x65(%edx),%edi
  20666b:	4c                   	dec    %esp
  20666c:	6f                   	outsl  %ds:(%esi),(%dx)
  20666d:	6e                   	outsb  %ds:(%esi),(%dx)
  20666e:	67 4d                	addr16 dec %ebp
  206670:	6f                   	outsl  %ds:(%esi),(%dx)
  206671:	64 65 20 3d 20 00 41 	fs and %bh,%gs:0x56410020
  206678:	56 
  206679:	4c                   	dec    %esp
  20667a:	20 3d 20 00 50 72    	and    %bh,0x72500020
  206680:	65 73 65             	gs jae 2066e8 <BASE_ADDRESS_INDEX_END_3+0x283>
  206683:	6e                   	outsb  %ds:(%esi),(%dx)
  206684:	74 20                	je     2066a6 <BASE_ADDRESS_INDEX_END_3+0x241>
  206686:	3d 20 00 44 50       	cmp    $0x50440020,%eax
  20668b:	4c                   	dec    %esp
  20668c:	20 28                	and    %ch,(%eax)
  20668e:	62 69 74             	bound  %ebp,0x74(%ecx)
  206691:	73 20                	jae    2066b3 <BASE_ADDRESS_INDEX_END_3+0x24e>
  206693:	31 33                	xor    %esi,(%ebx)
  206695:	2d 31 34 29 00       	sub    $0x293431,%eax
  20669a:	44                   	inc    %esp
  20669b:	65 73 63             	gs jae 206701 <BASE_ADDRESS_INDEX_END_3+0x29c>
  20669e:	72 69                	jb     206709 <BASE_ADDRESS_INDEX_END_3+0x2a4>
  2066a0:	70 74                	jo     206716 <BASE_ADDRESS_INDEX_END_3+0x2b1>
  2066a2:	6f                   	outsl  %ds:(%esi),(%dx)
  2066a3:	72 54                	jb     2066f9 <BASE_ADDRESS_INDEX_END_3+0x294>
  2066a5:	79 70                	jns    206717 <BASE_ADDRESS_INDEX_END_3+0x2b2>
  2066a7:	65 53                	gs push %ebx
  2066a9:	20 3d 20 00 54 79    	and    %bh,0x79540020
  2066af:	70 65                	jo     206716 <BASE_ADDRESS_INDEX_END_3+0x2b1>
  2066b1:	20 28                	and    %ch,(%eax)
  2066b3:	62 69 74             	bound  %ebp,0x74(%ecx)
  2066b6:	73 20                	jae    2066d8 <BASE_ADDRESS_INDEX_END_3+0x273>
  2066b8:	38 2d 31 31 29 00    	cmp    %ch,0x293131
  2066be:	42                   	inc    %edx
  2066bf:	65 66 6f             	outsw  %gs:(%esi),(%dx)
  2066c2:	72 65                	jb     206729 <BASE_ADDRESS_INDEX_END_3+0x2c4>
  2066c4:	20 74 68 65          	and    %dh,0x65(%eax,%ebp,2)
  2066c8:	20 6d 61             	and    %ch,0x61(%ebp)
  2066cb:	69 6e 20 65 78 65 63 	imul   $0x63657865,0x20(%esi),%ebp
  2066d2:	75 74                	jne    206748 <BASE_ADDRESS_INDEX_END_3+0x2e3>
  2066d4:	69 6f 6e 0a 00 54 68 	imul   $0x6854000a,0x6e(%edi),%ebp
  2066db:	65 20 61 64          	and    %ah,%gs:0x64(%ecx)
  2066df:	64 72 65             	fs jb  206747 <BASE_ADDRESS_INDEX_END_3+0x2e2>
  2066e2:	73 73                	jae    206757 <BASE_ADDRESS_INDEX_END_3+0x2f2>
  2066e4:	20 6f 66             	and    %ch,0x66(%edi)
  2066e7:	20 73 74             	and    %dh,0x74(%ebx)
  2066ea:	61                   	popa
  2066eb:	63 6b 31             	arpl   %ebp,0x31(%ebx)
  2066ee:	36 5f                	ss pop %edi
  2066f0:	65 6e                	outsb  %gs:(%esi),(%dx)
  2066f2:	64 3a 20             	cmp    %fs:(%eax),%ah
  2066f5:	00 54 68 65          	add    %dl,0x65(%eax,%ebp,2)
  2066f9:	20 61 64             	and    %ah,0x64(%ecx)
  2066fc:	64 72 65             	fs jb  206764 <BASE_ADDRESS_INDEX_END_3+0x2ff>
  2066ff:	73 73                	jae    206774 <BASE_ADDRESS_INDEX_END_3+0x30f>
  206701:	20 6f 66             	and    %ch,0x66(%edi)
  206704:	20 61 72             	and    %ah,0x72(%ecx)
  206707:	67 73 31             	addr16 jae 20673b <BASE_ADDRESS_INDEX_END_3+0x2d6>
  20670a:	36 5f                	ss pop %edi
  20670c:	73 74                	jae    206782 <BASE_ADDRESS_INDEX_END_3+0x31d>
  20670e:	61                   	popa
  20670f:	72 74                	jb     206785 <BASE_ADDRESS_INDEX_END_3+0x320>
  206711:	3a 20                	cmp    (%eax),%ah
  206713:	00 54 68 65          	add    %dl,0x65(%eax,%ebp,2)
  206717:	20 61 64             	and    %ah,0x64(%ecx)
  20671a:	64 72 65             	fs jb  206782 <BASE_ADDRESS_INDEX_END_3+0x31d>
  20671d:	73 73                	jae    206792 <BASE_ADDRESS_INDEX_END_3+0x32d>
  20671f:	20 6f 66             	and    %ch,0x66(%edi)
  206722:	20 61 72             	and    %ah,0x72(%ecx)
  206725:	67 73 31             	addr16 jae 206759 <BASE_ADDRESS_INDEX_END_3+0x2f4>
  206728:	36 5f                	ss pop %edi
  20672a:	65 6e                	outsb  %gs:(%esi),(%dx)
  20672c:	64 3a 20             	cmp    %fs:(%eax),%ah
  20672f:	00 54 68 65          	add    %dl,0x65(%eax,%ebp,2)
  206733:	20 61 64             	and    %ah,0x64(%ecx)
  206736:	64 72 65             	fs jb  20679e <BASE_ADDRESS_INDEX_END_3+0x339>
  206739:	73 73                	jae    2067ae <BASE_ADDRESS_INDEX_END_3+0x349>
  20673b:	20 6f 66             	and    %ch,0x66(%edi)
  20673e:	20 70 6d             	and    %dh,0x6d(%eax)
  206741:	33 32                	xor    (%edx),%esi
  206743:	5f                   	pop    %edi
  206744:	74 6f                	je     2067b5 <BASE_ADDRESS_INDEX_END_3+0x350>
  206746:	5f                   	pop    %edi
  206747:	70 6d                	jo     2067b6 <BASE_ADDRESS_INDEX_END_3+0x351>
  206749:	31 36                	xor    %esi,(%esi)
  20674b:	3a 20                	cmp    (%eax),%ah
  20674d:	00 54 68 65          	add    %dl,0x65(%eax,%ebp,2)
  206751:	20 61 64             	and    %ah,0x64(%ecx)
  206754:	64 72 65             	fs jb  2067bc <BASE_ADDRESS_INDEX_END_3+0x357>
  206757:	73 73                	jae    2067cc <BASE_ADDRESS_INDEX_END_3+0x367>
  206759:	20 6f 66             	and    %ch,0x66(%edi)
  20675c:	20 72 65             	and    %dh,0x65(%edx)
  20675f:	73 75                	jae    2067d6 <BASE_ADDRESS_INDEX_END_3+0x371>
  206761:	6d                   	insl   (%dx),%es:(%edi)
  206762:	65 33 32             	xor    %gs:(%edx),%esi
  206765:	3a 20                	cmp    (%eax),%ah
  206767:	00 54 68 65          	add    %dl,0x65(%eax,%ebp,2)
  20676b:	20 61 64             	and    %ah,0x64(%ecx)
  20676e:	64 72 65             	fs jb  2067d6 <BASE_ADDRESS_INDEX_END_3+0x371>
  206771:	73 73                	jae    2067e6 <BASE_ADDRESS_INDEX_END_3+0x381>
  206773:	20 6f 66             	and    %ch,0x66(%edi)
  206776:	20 72 65             	and    %dh,0x65(%edx)
  206779:	73 75                	jae    2067f0 <BASE_ADDRESS_INDEX_END_3+0x38b>
  20677b:	6d                   	insl   (%dx),%es:(%edi)
  20677c:	65 33 32             	xor    %gs:(%edx),%esi
  20677f:	5f                   	pop    %edi
  206780:	65 6e                	outsb  %gs:(%esi),(%dx)
  206782:	64 3a 20             	cmp    %fs:(%eax),%ah
  206785:	00 54 68 65          	add    %dl,0x65(%eax,%ebp,2)
  206789:	20 61 64             	and    %ah,0x64(%ecx)
  20678c:	64 72 65             	fs jb  2067f4 <BASE_ADDRESS_INDEX_END_3+0x38f>
  20678f:	73 73                	jae    206804 <BASE_ADDRESS_INDEX_END_3+0x39f>
  206791:	20 6f 66             	and    %ch,0x66(%edi)
  206794:	20 6d 69             	and    %ch,0x69(%ebp)
  206797:	73 63                	jae    2067fc <BASE_ADDRESS_INDEX_END_3+0x397>
  206799:	33 32                	xor    (%edx),%esi
  20679b:	5f                   	pop    %edi
  20679c:	73 31                	jae    2067cf <BASE_ADDRESS_INDEX_END_3+0x36a>
  20679e:	3a 20                	cmp    (%eax),%ah
  2067a0:	00 54 68 65          	add    %dl,0x65(%eax,%ebp,2)
  2067a4:	20 61 64             	and    %ah,0x64(%ecx)
  2067a7:	64 72 65             	fs jb  20680f <BASE_ADDRESS_INDEX_END_3+0x3aa>
  2067aa:	73 73                	jae    20681f <BASE_ADDRESS_INDEX_END_3+0x3ba>
  2067ac:	20 6f 66             	and    %ch,0x66(%edi)
  2067af:	20 6d 69             	and    %ch,0x69(%ebp)
  2067b2:	73 63                	jae    206817 <BASE_ADDRESS_INDEX_END_3+0x3b2>
  2067b4:	33 32                	xor    (%edx),%esi
  2067b6:	5f                   	pop    %edi
  2067b7:	73 32                	jae    2067eb <BASE_ADDRESS_INDEX_END_3+0x386>
  2067b9:	3a 20                	cmp    (%eax),%ah
  2067bb:	00 0a                	add    %cl,(%edx)
  2067bd:	54                   	push   %esp
  2067be:	68 65 20 76 61       	push   $0x61762065
  2067c3:	6c                   	insb   (%dx),%es:(%edi)
  2067c4:	75 65                	jne    20682b <BASE_ADDRESS_INDEX_END_3+0x3c6>
  2067c6:	20 6f 66             	and    %ch,0x66(%edi)
  2067c9:	20 63 73             	and    %ah,0x73(%ebx)
  2067cc:	3a 20                	cmp    (%eax),%ah
  2067ce:	00 0a                	add    %cl,(%edx)
  2067d0:	54                   	push   %esp
  2067d1:	68 65 20 76 61       	push   $0x61762065
  2067d6:	6c                   	insb   (%dx),%es:(%edi)
  2067d7:	75 65                	jne    20683e <BASE_ADDRESS_INDEX_END_3+0x3d9>
  2067d9:	20 6f 66             	and    %ch,0x66(%edi)
  2067dc:	20 73 73             	and    %dh,0x73(%ebx)
  2067df:	3a 20                	cmp    (%eax),%ah
  2067e1:	00 0a                	add    %cl,(%edx)
  2067e3:	54                   	push   %esp
  2067e4:	68 65 20 76 61       	push   $0x61762065
  2067e9:	6c                   	insb   (%dx),%es:(%edi)
  2067ea:	75 65                	jne    206851 <BASE_ADDRESS_INDEX_END_3+0x3ec>
  2067ec:	20 6f 66             	and    %ch,0x66(%edi)
  2067ef:	20 64 73 3a          	and    %ah,0x3a(%ebx,%esi,2)
  2067f3:	20 00                	and    %al,(%eax)
  2067f5:	0a 54 68 65          	or     0x65(%eax,%ebp,2),%dl
  2067f9:	20 76 61             	and    %dh,0x61(%esi)
  2067fc:	6c                   	insb   (%dx),%es:(%edi)
  2067fd:	75 65                	jne    206864 <BASE_ADDRESS_INDEX_END_3+0x3ff>
  2067ff:	20 6f 66             	and    %ch,0x66(%edi)
  206802:	20 65 73             	and    %ah,0x73(%ebp)
  206805:	3a 20                	cmp    (%eax),%ah
  206807:	00 0a                	add    %cl,(%edx)
  206809:	54                   	push   %esp
  20680a:	68 65 20 76 61       	push   $0x61762065
  20680f:	6c                   	insb   (%dx),%es:(%edi)
  206810:	75 65                	jne    206877 <BASE_ADDRESS_INDEX_END_3+0x412>
  206812:	20 6f 66             	and    %ch,0x66(%edi)
  206815:	20 66 73             	and    %ah,0x73(%esi)
  206818:	3a 20                	cmp    (%eax),%ah
  20681a:	00 0a                	add    %cl,(%edx)
  20681c:	54                   	push   %esp
  20681d:	68 65 20 76 61       	push   $0x61762065
  206822:	6c                   	insb   (%dx),%es:(%edi)
  206823:	75 65                	jne    20688a <BASE_ADDRESS_INDEX_END_3+0x425>
  206825:	20 6f 66             	and    %ch,0x66(%edi)
  206828:	20 67 73             	and    %ah,0x73(%edi)
  20682b:	3a 20                	cmp    (%eax),%ah
  20682d:	00 67 64             	add    %ah,0x64(%edi)
  206830:	74 20                	je     206852 <BASE_ADDRESS_INDEX_END_3+0x3ed>
  206832:	62 61 73             	bound  %esp,0x73(%ecx)
  206835:	65 20 61 64          	and    %ah,%gs:0x64(%ecx)
  206839:	64 72 65             	fs jb  2068a1 <BASE_ADDRESS_INDEX_END_3+0x43c>
  20683c:	73 73                	jae    2068b1 <BASE_ADDRESS_INDEX_END_3+0x44c>
  20683e:	20 3d 20 00 67 64    	and    %bh,0x64670020
  206844:	74 20                	je     206866 <BASE_ADDRESS_INDEX_END_3+0x401>
  206846:	73 69                	jae    2068b1 <BASE_ADDRESS_INDEX_END_3+0x44c>
  206848:	7a 65                	jp     2068af <BASE_ADDRESS_INDEX_END_3+0x44a>
  20684a:	20 6c 69 6d          	and    %ch,0x6d(%ecx,%ebp,2)
  20684e:	69 74 20 3d 20 00 47 	imul   $0x44470020,0x3d(%eax,%eiz,1),%esi
  206855:	44 
  206856:	54                   	push   %esp
  206857:	31 36                	xor    %esi,(%esi)
  206859:	5f                   	pop    %edi
  20685a:	44                   	inc    %esp
  20685b:	45                   	inc    %ebp
  20685c:	53                   	push   %ebx
  20685d:	43                   	inc    %ebx
  20685e:	52                   	push   %edx
  20685f:	49                   	dec    %ecx
  206860:	50                   	push   %eax
  206861:	54                   	push   %esp
  206862:	4f                   	dec    %edi
  206863:	52                   	push   %edx
  206864:	20 3d 20 00 47 44    	and    %bh,0x44470020
  20686a:	54                   	push   %esp
  20686b:	31 36                	xor    %esi,(%esi)
  20686d:	20 3d 20 00 0a 2d    	and    %bh,0x2d0a0020
  206873:	2d 2d 2d 2d 2d       	sub    $0x2d2d2d2d,%eax
  206878:	2d 43 6f 64 65       	sub    $0x65646f43,%eax
  20687d:	20 53 65             	and    %dl,0x65(%ebx)
  206880:	67 6d                	insl   (%dx),%es:(%di)
  206882:	65 6e                	outsb  %gs:(%esi),(%dx)
  206884:	74 3a                	je     2068c0 <BASE_ADDRESS_INDEX_END_3+0x45b>
  206886:	20 0a                	and    %cl,(%edx)
  206888:	00 0a                	add    %cl,(%edx)
  20688a:	2d 2d 2d 2d 2d       	sub    $0x2d2d2d2d,%eax
  20688f:	2d 2d 44 61 74       	sub    $0x7461442d,%eax
  206894:	61                   	popa
  206895:	20 53 65             	and    %dl,0x65(%ebx)
  206898:	67 6d                	insl   (%dx),%es:(%di)
  20689a:	65 6e                	outsb  %gs:(%esi),(%dx)
  20689c:	74 3a                	je     2068d8 <BASE_ADDRESS_INDEX_END_3+0x473>
  20689e:	20 0a                	and    %cl,(%edx)
  2068a0:	00 0a                	add    %cl,(%edx)
  2068a2:	3d 3d 3d 3d 3d       	cmp    $0x3d3d3d3d,%eax
  2068a7:	3d 20 45 6e 64       	cmp    $0x646e4520,%eax
  2068ac:	20 6f 66             	and    %ch,0x66(%edi)
  2068af:	20 47 44             	and    %al,0x44(%edi)
  2068b2:	54                   	push   %esp
  2068b3:	33 32                	xor    (%edx),%esi
  2068b5:	20 3d 3d 3d 3d 3d    	and    %bh,0x3d3d3d3d
  2068bb:	3d 0a 0a 00 0a       	cmp    $0xa000a0a,%eax
  2068c0:	3d 3d 3d 3d 3d       	cmp    $0x3d3d3d3d,%eax
  2068c5:	3d 20 45 6e 64       	cmp    $0x646e4520,%eax
  2068ca:	20 6f 66             	and    %ch,0x66(%edi)
  2068cd:	20 47 44             	and    %al,0x44(%edi)
  2068d0:	54                   	push   %esp
  2068d1:	31 36                	xor    %esi,(%esi)
  2068d3:	20 3d 3d 3d 3d 3d    	and    %bh,0x3d3d3d3d
  2068d9:	3d 0a 0a 00 0a       	cmp    $0xa000a0a,%eax
  2068de:	3d 3d 3d 3d 6f       	cmp    $0x6f3d3d3d,%eax
  2068e3:	6b 3d 3d 3d 3d 0a 00 	imul   $0x0,0xa3d3d3d,%edi

Disassembly of section .rodata.str1.4:

002068ec <.rodata.str1.4>:
  2068ec:	54                   	push   %esp
  2068ed:	68 65 20 76 61       	push   $0x61762065
  2068f2:	6c                   	insb   (%dx),%es:(%edi)
  2068f3:	75 65                	jne    20695a <BASE_ADDRESS_INDEX_END_3+0x4f5>
  2068f5:	20 6f 66             	and    %ch,0x66(%edi)
  2068f8:	20 63 6f             	and    %ah,0x6f(%ebx)
  2068fb:	64 65 20 61 74       	fs and %ah,%gs:0x74(%ecx)
  206900:	20 70 6d             	and    %dh,0x6d(%eax)
  206903:	31 36                	xor    %esi,(%esi)
  206905:	5f                   	pop    %edi
  206906:	74 6f                	je     206977 <BASE_ADDRESS_INDEX_END_3+0x512>
  206908:	5f                   	pop    %edi
  206909:	72 65                	jb     206970 <BASE_ADDRESS_INDEX_END_3+0x50b>
  20690b:	61                   	popa
  20690c:	6c                   	insb   (%dx),%es:(%edi)
  20690d:	31 36                	xor    %esi,(%esi)
  20690f:	5f                   	pop    %edi
  206910:	61                   	popa
  206911:	64 64 72 65          	fs fs jb 20697a <BASE_ADDRESS_INDEX_END_3+0x515>
  206915:	73 73                	jae    20698a <BASE_ADDRESS_INDEX_END_3+0x525>
  206917:	3a 20                	cmp    (%eax),%ah
  206919:	0a 00                	or     (%eax),%al
  20691b:	00 00                	add    %al,(%eax)
  20691d:	00 00                	add    %al,(%eax)
  20691f:	00 54 68 65          	add    %dl,0x65(%eax,%ebp,2)
  206923:	20 76 61             	and    %dh,0x61(%esi)
  206926:	6c                   	insb   (%dx),%es:(%edi)
  206927:	75 65                	jne    20698e <BASE_ADDRESS_INDEX_END_3+0x529>
  206929:	20 6f 66             	and    %ch,0x66(%edi)
  20692c:	20 74 68 65          	and    %dh,0x65(%eax,%ebp,2)
  206930:	20 63 6f             	and    %ah,0x6f(%ebx)
  206933:	64 65 20 61 74       	fs and %ah,%gs:0x74(%ecx)
  206938:	20 63 61             	and    %ah,0x61(%ebx)
  20693b:	6c                   	insb   (%dx),%es:(%edi)
  20693c:	6c                   	insb   (%dx),%es:(%edi)
  20693d:	5f                   	pop    %edi
  20693e:	72 65                	jb     2069a5 <BASE_ADDRESS_INDEX_END_3+0x540>
  206940:	61                   	popa
  206941:	6c                   	insb   (%dx),%es:(%edi)
  206942:	31 36                	xor    %esi,(%esi)
  206944:	5f                   	pop    %edi
  206945:	66 75 6e             	data16 jne 2069b6 <BASE_ADDRESS_INDEX_END_3+0x551>
  206948:	63 74 69 6f          	arpl   %esi,0x6f(%ecx,%ebp,2)
  20694c:	6e                   	outsb  %ds:(%esi),(%dx)
  20694d:	5f                   	pop    %edi
  20694e:	61                   	popa
  20694f:	64 64 72 65          	fs fs jb 2069b8 <BASE_ADDRESS_INDEX_END_3+0x553>
  206953:	73 73                	jae    2069c8 <BASE_ADDRESS_INDEX_END_3+0x563>
  206955:	3a 20                	cmp    (%eax),%ah
  206957:	0a 00                	or     (%eax),%al
  206959:	00 00                	add    %al,(%eax)
  20695b:	00 54 68 65          	add    %dl,0x65(%eax,%ebp,2)
  20695f:	20 76 61             	and    %dh,0x61(%esi)
  206962:	6c                   	insb   (%dx),%es:(%edi)
  206963:	75 65                	jne    2069ca <BASE_ADDRESS_INDEX_END_3+0x565>
  206965:	20 6f 66             	and    %ch,0x66(%edi)
  206968:	20 74 68 65          	and    %dh,0x65(%eax,%ebp,2)
  20696c:	20 63 6f             	and    %ah,0x6f(%ebx)
  20696f:	64 65 20 61 74       	fs and %ah,%gs:0x74(%ecx)
  206974:	20 30                	and    %dh,(%eax)
  206976:	78 42                	js     2069ba <BASE_ADDRESS_INDEX_END_3+0x555>
  206978:	30 41 38             	xor    %al,0x38(%ecx)
  20697b:	3a 20                	cmp    (%eax),%ah
  20697d:	0a 00                	or     (%eax),%al
  20697f:	00 0a                	add    %cl,(%edx)
  206981:	0a 3d 3d 3d 3d 3d    	or     0x3d3d3d3d,%bh
  206987:	20 53 74             	and    %dl,0x74(%ebx)
  20698a:	61                   	popa
  20698b:	72 74                	jb     206a01 <BASE_ADDRESS_INDEX_END_3+0x59c>
  20698d:	20 6f 66             	and    %ch,0x66(%edi)
  206990:	20 4b 65             	and    %cl,0x65(%ebx)
  206993:	72 6e                	jb     206a03 <BASE_ADDRESS_INDEX_END_3+0x59e>
  206995:	65 6c                	gs insb (%dx),%es:(%edi)
  206997:	20 54 65 73          	and    %dl,0x73(%ebp,%eiz,2)
  20699b:	74 3d                	je     2069da <BASE_ADDRESS_INDEX_END_3+0x575>
  20699d:	3d 3d 3d 3d 0a       	cmp    $0xa3d3d3d,%eax
  2069a2:	0a 00                	or     (%eax),%al
  2069a4:	69 6e 74 20 3d 20 25 	imul   $0x25203d20,0x74(%esi),%ebp
  2069ab:	64 2c 20             	fs sub $0x20,%al
  2069ae:	75 69                	jne    206a19 <BASE_ADDRESS_INDEX_END_3+0x5b4>
  2069b0:	6e                   	outsb  %ds:(%esi),(%dx)
  2069b1:	74 20                	je     2069d3 <BASE_ADDRESS_INDEX_END_3+0x56e>
  2069b3:	3d 20 25 75 2c       	cmp    $0x2c752520,%eax
  2069b8:	20 66 6c             	and    %ah,0x6c(%esi)
  2069bb:	6f                   	outsl  %ds:(%esi),(%dx)
  2069bc:	61                   	popa
  2069bd:	74 20                	je     2069df <BASE_ADDRESS_INDEX_END_3+0x57a>
  2069bf:	3d 20 25 66 2e       	cmp    $0x2e662520,%eax
  2069c4:	32 2c 20             	xor    (%eax,%eiz,1),%ch
  2069c7:	62 69 6e             	bound  %ebp,0x6e(%ecx)
  2069ca:	20 3d 20 25 62 3a    	and    %bh,0x3a622520
  2069d0:	37                   	aaa
  2069d1:	2c 20                	sub    $0x20,%al
  2069d3:	68 65 78 20 3d       	push   $0x3d207865
  2069d8:	20 25 68 3a 39 2d    	and    %ah,0x2d393a68
  2069de:	66 69 6e 61 6c 20    	imul   $0x206c,0x61(%esi),%bp
  2069e4:	74 65                	je     206a4b <BASE_ADDRESS_INDEX_END_3+0x5e6>
  2069e6:	78 74                	js     206a5c <BASE_ADDRESS_INDEX_END_3+0x5f7>
  2069e8:	7c 0a                	jl     2069f4 <BASE_ADDRESS_INDEX_END_3+0x58f>
  2069ea:	0a 00                	or     (%eax),%al
  2069ec:	54                   	push   %esp
  2069ed:	68 65 20 61 64       	push   $0x64612065
  2069f2:	64 72 65             	fs jb  206a5a <BASE_ADDRESS_INDEX_END_3+0x5f5>
  2069f5:	73 73                	jae    206a6a <BASE_ADDRESS_INDEX_END_3+0x605>
  2069f7:	20 6f 66             	and    %ch,0x66(%edi)
  2069fa:	20 73 74             	and    %dh,0x74(%ebx)
  2069fd:	61                   	popa
  2069fe:	63 6b 31             	arpl   %ebp,0x31(%ebx)
  206a01:	36 5f                	ss pop %edi
  206a03:	73 74                	jae    206a79 <BASE_ADDRESS_INDEX_END_3+0x614>
  206a05:	61                   	popa
  206a06:	72 74                	jb     206a7c <BASE_ADDRESS_INDEX_END_3+0x617>
  206a08:	3a 20                	cmp    (%eax),%ah
  206a0a:	00 00                	add    %al,(%eax)
  206a0c:	54                   	push   %esp
  206a0d:	68 65 20 61 64       	push   $0x64612065
  206a12:	64 72 65             	fs jb  206a7a <BASE_ADDRESS_INDEX_END_3+0x615>
  206a15:	73 73                	jae    206a8a <BASE_ADDRESS_INDEX_END_3+0x625>
  206a17:	20 6f 66             	and    %ch,0x66(%edi)
  206a1a:	20 74 68 65          	and    %dh,0x65(%eax,%ebp,2)
  206a1e:	20 6e 69             	and    %ch,0x69(%esi)
  206a21:	63 65 20             	arpl   %esp,0x20(%ebp)
  206a24:	77 72                	ja     206a98 <BASE_ADDRESS_INDEX_END_3+0x633>
  206a26:	61                   	popa
  206a27:	70 70                	jo     206a99 <BASE_ADDRESS_INDEX_END_3+0x634>
  206a29:	65 72 20             	gs jb  206a4c <BASE_ADDRESS_INDEX_END_3+0x5e7>
  206a2c:	28 3e                	sub    %bh,(%esi)
  206a2e:	32 4d 42             	xor    0x42(%ebp),%cl
  206a31:	29 3a                	sub    %edi,(%edx)
  206a33:	20 00                	and    %al,(%eax)
  206a35:	00 00                	add    %al,(%eax)
  206a37:	00 54 68 65          	add    %dl,0x65(%eax,%ebp,2)
  206a3b:	20 61 64             	and    %ah,0x64(%ecx)
  206a3e:	64 72 65             	fs jb  206aa6 <BASE_ADDRESS_INDEX_END_3+0x641>
  206a41:	73 73                	jae    206ab6 <BASE_ADDRESS_INDEX_END_3+0x651>
  206a43:	20 6f 66             	and    %ch,0x66(%edi)
  206a46:	20 70 6d             	and    %dh,0x6d(%eax)
  206a49:	31 36                	xor    %esi,(%esi)
  206a4b:	5f                   	pop    %edi
  206a4c:	74 6f                	je     206abd <BASE_ADDRESS_INDEX_END_3+0x658>
  206a4e:	5f                   	pop    %edi
  206a4f:	72 65                	jb     206ab6 <BASE_ADDRESS_INDEX_END_3+0x651>
  206a51:	61                   	popa
  206a52:	6c                   	insb   (%dx),%es:(%edi)
  206a53:	31 36                	xor    %esi,(%esi)
  206a55:	3a 20                	cmp    (%eax),%ah
  206a57:	00 54 68 65          	add    %dl,0x65(%eax,%ebp,2)
  206a5b:	20 61 64             	and    %ah,0x64(%ecx)
  206a5e:	64 72 65             	fs jb  206ac6 <BASE_ADDRESS_INDEX_END_3+0x661>
  206a61:	73 73                	jae    206ad6 <BASE_ADDRESS_INDEX_END_3+0x671>
  206a63:	20 6f 66             	and    %ch,0x66(%edi)
  206a66:	20 63 61             	and    %ah,0x61(%ebx)
  206a69:	6c                   	insb   (%dx),%es:(%edi)
  206a6a:	6c                   	insb   (%dx),%es:(%edi)
  206a6b:	5f                   	pop    %edi
  206a6c:	72 65                	jb     206ad3 <BASE_ADDRESS_INDEX_END_3+0x66e>
  206a6e:	61                   	popa
  206a6f:	6c                   	insb   (%dx),%es:(%edi)
  206a70:	31 36                	xor    %esi,(%esi)
  206a72:	5f                   	pop    %edi
  206a73:	66 75 6e             	data16 jne 206ae4 <BASE_ADDRESS_INDEX_END_3+0x67f>
  206a76:	63 74 69 6f          	arpl   %esi,0x6f(%ecx,%ebp,2)
  206a7a:	6e                   	outsb  %ds:(%esi),(%dx)
  206a7b:	5f                   	pop    %edi
  206a7c:	61                   	popa
  206a7d:	64 64 72 65          	fs fs jb 206ae6 <BASE_ADDRESS_INDEX_END_3+0x681>
  206a81:	73 73                	jae    206af6 <BASE_ADDRESS_INDEX_END_3+0x691>
  206a83:	3a 20                	cmp    (%eax),%ah
  206a85:	00 00                	add    %al,(%eax)
  206a87:	00 0a                	add    %cl,(%edx)
  206a89:	0a 3d 3d 3d 3d 3d    	or     0x3d3d3d3d,%bh
  206a8f:	3d 20 53 74 61       	cmp    $0x61745320,%eax
  206a94:	72 74                	jb     206b0a <BASE_ADDRESS_INDEX_END_3+0x6a5>
  206a96:	20 6f 66             	and    %ch,0x66(%edi)
  206a99:	20 47 44             	and    %al,0x44(%edi)
  206a9c:	54                   	push   %esp
  206a9d:	33 32                	xor    (%edx),%esi
  206a9f:	20 3d 3d 3d 3d 3d    	and    %bh,0x3d3d3d3d
  206aa5:	3d 0a 00 0a 0a       	cmp    $0xa0a000a,%eax
  206aaa:	3d 3d 3d 3d 3d       	cmp    $0x3d3d3d3d,%eax
  206aaf:	3d 20 53 74 61       	cmp    $0x61745320,%eax
  206ab4:	72 74                	jb     206b2a <saved_i+0xa>
  206ab6:	20 6f 66             	and    %ch,0x66(%edi)
  206ab9:	20 47 44             	and    %al,0x44(%edi)
  206abc:	54                   	push   %esp
  206abd:	31 36                	xor    %esi,(%esi)
  206abf:	20 3d 3d 3d 3d 3d    	and    %bh,0x3d3d3d3d
  206ac5:	3d 0a 00 0a 54       	cmp    $0x540a000a,%eax
  206aca:	68 65 20 72 65       	push   $0x65722065
  206acf:	73 75                	jae    206b46 <saved_i+0x26>
  206ad1:	6c                   	insb   (%dx),%es:(%edi)
  206ad2:	74 20                	je     206af4 <BASE_ADDRESS_INDEX_END_3+0x68f>
  206ad4:	6f                   	outsl  %ds:(%esi),(%dx)
  206ad5:	66 20 74 68 65       	data16 and %dh,0x65(%eax,%ebp,2)
  206ada:	20 72 65             	and    %dh,0x65(%edx)
  206add:	61                   	popa
  206ade:	6c                   	insb   (%dx),%es:(%edi)
  206adf:	20 6d 6f             	and    %ch,0x6f(%ebp)
  206ae2:	64 65 20 63 61       	fs and %ah,%gs:0x61(%ebx)
  206ae7:	6c                   	insb   (%dx),%es:(%edi)
  206ae8:	6c                   	insb   (%dx),%es:(%edi)
  206ae9:	20 69 73             	and    %ch,0x73(%ecx)
  206aec:	3a 20                	cmp    (%eax),%ah
  206aee:	00 00                	add    %al,(%eax)
  206af0:	0a 0a                	or     (%edx),%cl
  206af2:	3d 3d 3d 3d 3d       	cmp    $0x3d3d3d3d,%eax
  206af7:	20 45 6e             	and    %al,0x6e(%ebp)
  206afa:	64 20 6f 66          	and    %ch,%fs:0x66(%edi)
  206afe:	20 4b 65             	and    %cl,0x65(%ebx)
  206b01:	72 6e                	jb     206b71 <saved_i+0x51>
  206b03:	65 6c                	gs insb (%dx),%es:(%edi)
  206b05:	20 54 65 73          	and    %dl,0x73(%ebp,%eiz,2)
  206b09:	74 3d                	je     206b48 <saved_i+0x28>
  206b0b:	3d 3d 3d 3d 0a       	cmp    $0xa3d3d3d,%eax
  206b10:	0a 00                	or     (%eax),%al

Disassembly of section .rodata.cst8:

00206b18 <.rodata.cst8>:
  206b18:	00 00                	add    %al,(%eax)
  206b1a:	00 00                	add    %al,(%eax)
  206b1c:	00 00                	add    %al,(%eax)
  206b1e:	08                   	.byte 0x8
  206b1f:	40                   	inc    %eax

Disassembly of section .bss.interrupts:

00206b20 <saved_i>:
	...

Disassembly of section .data:

00207000 <GDT16_ROOT>:
  207000:	a0                   	.byte 0xa0
  207001:	b1 00                	mov    $0x0,%cl
	...

Disassembly of section .comment:

00000000 <.comment>:
   0:	47                   	inc    %edi
   1:	43                   	inc    %ebx
   2:	43                   	inc    %ebx
   3:	3a 20                	cmp    (%eax),%ah
   5:	28 47 4e             	sub    %al,0x4e(%edi)
   8:	55                   	push   %ebp
   9:	29 20                	sub    %esp,(%eax)
   b:	31 35 2e 32 2e 30    	xor    %esi,0x302e322e
  11:	00 47 43             	add    %al,0x43(%edi)
  14:	43                   	inc    %ebx
  15:	3a 20                	cmp    (%eax),%ah
  17:	28 47 4e             	sub    %al,0x4e(%edi)
  1a:	55                   	push   %ebp
  1b:	29 20                	sub    %esp,(%eax)
  1d:	36 2e 33 2e          	ss xor %cs:(%esi),%ebp
  21:	30 00                	xor    %al,(%eax)
