
realmode_functions.o:     file format elf32-i386


Disassembly of section .text.realmode_functions:

00000000 <add16>:
   0:	55                   	push   %bp
   1:	89 e5                	mov    %sp,%bp
   3:	55                   	push   %bp
   4:	89 e5                	mov    %sp,%bp
   6:	8b 46 04             	mov    0x4(%bp),%ax
   9:	03 46 06             	add    0x6(%bp),%ax
   c:	5d                   	pop    %bp
   d:	c3                   	ret
   e:	5d                   	pop    %bp
   f:	c3                   	ret

00000010 <add16_ref>:
  10:	55                   	push   %bp
  11:	89 e5                	mov    %sp,%bp
  13:	8b 46 04             	mov    0x4(%bp),%ax
  16:	d1 e0                	shl    %ax
  18:	03 46 06             	add    0x6(%bp),%ax
  1b:	5d                   	pop    %bp
  1c:	c3                   	ret

0000001d <ret_5>:
  1d:	55                   	push   %bp
  1e:	89 e5                	mov    %sp,%bp
  20:	b8 05 00             	mov    $0x5,%ax
  23:	5d                   	pop    %bp
  24:	c3                   	ret

00000025 <complex_operation>:
  25:	55                   	push   %bp
  26:	89 e5                	mov    %sp,%bp
  28:	8b 56 0a             	mov    0xa(%bp),%dx
  2b:	89 d0                	mov    %dx,%ax
  2d:	d1 e0                	shl    %ax
  2f:	01 d0                	add    %dx,%ax
  31:	03 46 06             	add    0x6(%bp),%ax
  34:	2b 46 08             	sub    0x8(%bp),%ax
  37:	8b 56 04             	mov    0x4(%bp),%dx
  3a:	d1 e2                	shl    %dx
  3c:	01 d0                	add    %dx,%ax
  3e:	5d                   	pop    %bp
  3f:	c3                   	ret
