
call_realmode_function_wrapper32.o:     file format elf32-i386


Disassembly of section .text.pm32_to_pm16:

00000000 <pm32_to_pm16>:
   0:	60                   	pusha
   1:	9c                   	pushf
   2:	1e                   	push   %ds
   3:	06                   	push   %es
   4:	0f a0                	push   %fs
   6:	0f a8                	push   %gs
   8:	0f 01 05 00 00 00 00 	sgdtl  0x0
   f:	89 25 08 00 00 00    	mov    %esp,0x8
  15:	66 8c d0             	mov    %ss,%ax
  18:	66 a3 0c 00 00 00    	mov    %ax,0xc
  1e:	0e                   	push   %cs
  1f:	66 58                	pop    %ax
  21:	66 a3 0e 00 00 00    	mov    %ax,0xe
  27:	bc 00 00 00 00       	mov    $0x0,%esp
  2c:	bd 00 00 00 00       	mov    $0x0,%ebp
  31:	fa                   	cli
  32:	0f 01 15 00 00 00 00 	lgdtl  0x0
  39:	ea 00 00 00 00 10 00 	ljmp   $0x10,$0x0

00000040 <halt_loop>:
  40:	f4                   	hlt
  41:	eb fd                	jmp    40 <halt_loop>

Disassembly of section .text.resume32:

00000000 <resume32>:
   0:	8b 25 08 00 00 00    	mov    0x8,%esp
   6:	66 a1 0c 00 00 00    	mov    0xc,%ax
   c:	8e d0                	mov    %eax,%ss
   e:	8e d0                	mov    %eax,%ss
  10:	0f a9                	pop    %gs
  12:	0f a1                	pop    %fs
  14:	07                   	pop    %es
  15:	1f                   	pop    %ds
  16:	9d                   	popf
  17:	61                   	popa
  18:	0f b7 05 10 00 00 00 	movzwl 0x10,%eax
  1f:	c3                   	ret

00000020 <halt_loop2>:
  20:	f4                   	hlt
  21:	eb fd                	jmp    20 <halt_loop2>
